EXPORTS 
	??_R0?AUFastLZCompressor@@@8 	 DATA
	??_R0?AULinearAllocator@@@8 	 DATA
	??_R0?AUMeshProcess@@@8 	 DATA
	??_R0?AUdtTileCacheAlloc@@@8 	 DATA
	??_R0?AUdtTileCacheCompressor@@@8 	 DATA
	??_R0?AUdtTileCacheMeshProcess@@@8 	 DATA
	??_R0?AV?$_Iosb@H@std@@@8 	 DATA
	??_R0?AV?$basic_filebuf@DU?$char_traits@D@std@@@std@@@8 	 DATA
	??_R0?AV?$basic_ifstream@DU?$char_traits@D@std@@@std@@@8 	 DATA
	??_R0?AV?$basic_ios@DU?$char_traits@D@std@@@std@@@8 	 DATA
	??_R0?AV?$basic_istream@DU?$char_traits@D@std@@@std@@@8 	 DATA
	??_R0?AV?$basic_istringstream@DU?$char_traits@D@std@@V?$allocator@D@2@@std@@@8 	 DATA
	??_R0?AV?$basic_streambuf@DU?$char_traits@D@std@@@std@@@8 	 DATA
	??_R0?AV?$basic_stringbuf@DU?$char_traits@D@std@@V?$allocator@D@2@@std@@@8 	 DATA
	??_R0?AVbad_cast@std@@@8 	 DATA
	??_R0?AVexception@std@@@8 	 DATA
	??_R0?AVios_base@std@@@8 	 DATA
	?AlienBuildableStructureMap@@3V?$unordered_map@HU_BUILDABLE_STRUCTURE@@U?$hash@H@std@@U?$equal_to@H@3@V?$allocator@U?$pair@$$CBHU_BUILDABLE_STRUCTURE@@@std@@@3@@std@@A 	 DATA
	?BotDeltaTime@@3MA 	 DATA
	?BotPrefix@@3PADA 	 DATA
	?BotSkillLevelsMap@@3V?$unordered_map@V?$basic_string@DU?$char_traits@D@std@@V?$allocator@D@2@@std@@U_BOT_SKILL@@U?$hash@V?$basic_string@DU?$char_traits@D@std@@V?$allocator@D@2@@std@@@2@U?$equal_to@V?$basic_string@DU?$char_traits@D@std@@V?$allocator@D@2@@std@@@2@V?$allocator@U?$pair@$$CBV?$basic_string@DU?$char_traits@D@std@@V?$allocator@D@2@@std@@U_BOT_SKILL@@@std@@@2@@std@@A 	 DATA
	?ChamberSequence@@3PAW4HiveTechStatus@@A 	 DATA
	?CommanderViewZHeight@@3MA 	 DATA
	?CurrNameIndex@@3HA 	 DATA
	?CurrentDebugMode@@3W4_EVODEBUGMODE@@A 	 DATA
	?CurrentGameMode@@3W4NSGameMode@@A 	 DATA
	?CurrentSkillLevel@@3V?$basic_string@DU?$char_traits@D@std@@V?$allocator@D@2@@std@@A 	 DATA
	?GameStartTime@@3MA 	 DATA
	?GameStatus@@3HA 	 DATA
	?GlobalSkillLevel@@3V?$basic_string@DU?$char_traits@D@std@@V?$allocator@D@2@@std@@A 	 DATA
	?Hives@@3PAU_HIVE_DEFINITION_T@@A 	 DATA
	?IsDedicatedServer@@3HA 	 DATA
	?ItemRefreshFrame@@3HA 	 DATA
	?ManualAlienTeamSize@@3HA 	 DATA
	?ManualMarineTeamSize@@3HA 	 DATA
	?MapLocations@@3PAU_MAP_LOCATION@@A 	 DATA
	?MarineBuildableStructureMap@@3V?$unordered_map@HU_BUILDABLE_STRUCTURE@@U?$hash@H@std@@U?$equal_to@H@3@V?$allocator@U?$pair@$$CBHU_BUILDABLE_STRUCTURE@@@std@@@3@@std@@A 	 DATA
	?MarineDroppedItemMap@@3V?$unordered_map@HU_DROPPED_MARINE_ITEM@@U?$hash@H@std@@U?$equal_to@H@3@V?$allocator@U?$pair@$$CBHU_DROPPED_MARINE_ITEM@@@std@@@3@@std@@A 	 DATA
	?MaxStuckTime@@3MA 	 DATA
	?NSVersion@@3HA 	 DATA
	?NavDoors@@3PAU_NAV_DOOR@@A 	 DATA
	?NavWeldableObstacles@@3PAU_NAV_WELDABLE@@A 	 DATA
	?NumAlienBots@@3HA 	 DATA
	?NumBotNames@@3HA 	 DATA
	?NumBots@@3HA 	 DATA
	?NumClients@@3HA 	 DATA
	?NumDoors@@3HA 	 DATA
	?NumHumans@@3HA 	 DATA
	?NumMapLocations@@3HA 	 DATA
	?NumMarineBots@@3HA 	 DATA
	?NumTotalHives@@3HA 	 DATA
	?NumTotalResNodes@@3HA 	 DATA
	?NumWeldableObstacles@@3HA 	 DATA
	?Plugin_info@@3Uplugin_info_t@@A 	 DATA
	?ResourceNodes@@3PAU_RESOURCE_NODE@@A 	 DATA
	?ServerMSecVal@@3HA 	 DATA
	?StructureRefreshFrame@@3HA 	 DATA
	?TeamSizeMap@@3V?$unordered_map@V?$basic_string@DU?$char_traits@D@std@@V?$allocator@D@2@@std@@U_TEAMSIZEDEFINITIONS@@U?$hash@V?$basic_string@DU?$char_traits@D@std@@V?$allocator@D@2@@std@@@2@U?$equal_to@V?$basic_string@DU?$char_traits@D@std@@V?$allocator@D@2@@std@@@2@V?$allocator@U?$pair@$$CBV?$basic_string@DU?$char_traits@D@std@@V?$allocator@D@2@@std@@U_TEAMSIZEDEFINITIONS@@@std@@@2@@std@@A 	 DATA
	?_OptionsStorage@?1??__local_stdio_printf_options@@9@4_KA 	 DATA
	?_Psave@?$_Facetptr@V?$codecvt@DDU_Mbstatet@@@std@@@std@@2PBVfacet@locale@2@B 	 DATA
	?_Stinit@?1??_Init@?$basic_filebuf@DU?$char_traits@D@std@@@std@@IAEXPAU_iobuf@@W4_Initfl@23@@Z@4U_Mbstatet@@A 	 DATA
	?bConfigOverride@@3_NA 	 DATA
	?bGameHasStarted@@3_NA 	 DATA
	?bGameIsActive@@3_NA 	 DATA
	?botMsgEndFunction@@3P6AXPAXH@ZA 	 DATA
	?botMsgFunction@@3P6AXPAXH@ZA 	 DATA
	?botMsgIndex@@3HA 	 DATA
	?bot_names@@3PAY0CB@DA 	 DATA
	?bots@@3PAU_BOT_T@@A 	 DATA
	?clients@@3PAPAUedict_s@@A 	 DATA
	?eBotFillMode@@3W4_BOTFILLMODE@@A 	 DATA
	?eCommanderMode@@3W4_COMMANDERMODE@@A 	 DATA
	?fCommanderWaitTime@@3MA 	 DATA
	?fake_arg_count@@3HA 	 DATA
	?g_argv@@3PADA 	 DATA
	?g_engfuncs@@3Uenginefuncs_s@@A 	 DATA
	?gpGamedllFuncs@@3PAUgamedll_funcs_t@@A 	 DATA
	?gpGlobals@@3PAUglobalvars_t@@A 	 DATA
	?gpMetaGlobals@@3PAUmeta_globals_s@@A 	 DATA
	?gpMetaUtilFuncs@@3PAUmeta_util_funcs_s@@A 	 DATA
	?isFakeClientCommand@@3_NA 	 DATA
	?last_bot_count_check_time@@3MA 	 DATA
	?last_item_refresh_time@@3MA 	 DATA
	?last_structure_refresh_time@@3MA 	 DATA
	?last_think_time@@3MA 	 DATA
	?listenserver_edict@@3PAUedict_s@@A 	 DATA
	?m_spriteTexture@@3HA 	 DATA
	?meta_engfuncs@@3Uenginefuncs_s@@A 	 DATA
	?weapon_defs@@3PAUbot_weapon_t@@A 	 DATA
	??$?0$$QAV?$basic_string@DU?$char_traits@D@std@@V?$allocator@D@2@@std@@$$Z$$V@?$pair@$$CBV?$basic_string@DU?$char_traits@D@std@@V?$allocator@D@2@@std@@U_BOT_SKILL@@@std@@QAE@Upiecewise_construct_t@1@V?$tuple@$$QAV?$basic_string@DU?$char_traits@D@std@@V?$allocator@D@2@@std@@@1@V?$tuple@$$V@1@@Z
	??$?0$$QAV?$basic_string@DU?$char_traits@D@std@@V?$allocator@D@2@@std@@$$Z$$V@?$pair@$$CBV?$basic_string@DU?$char_traits@D@std@@V?$allocator@D@2@@std@@U_TEAMSIZEDEFINITIONS@@@std@@QAE@Upiecewise_construct_t@1@V?$tuple@$$QAV?$basic_string@DU?$char_traits@D@std@@V?$allocator@D@2@@std@@@1@V?$tuple@$$V@1@@Z
	??$?0$$V@?$_Compressed_pair@V?$allocator@D@std@@V?$_String_val@U?$_Simple_types@D@std@@@2@$00@std@@QAE@U_Zero_then_variadic_args_t@1@@Z
	??$?0AAPAV_Facet_base@std@@@?$_Compressed_pair@U?$default_delete@V_Facet_base@std@@@std@@PAV_Facet_base@2@$00@std@@QAE@U_Zero_then_variadic_args_t@1@AAPAV_Facet_base@1@@Z
	??$?0AAU?$equal_to@H@std@@M@?$_Compressed_pair@U?$equal_to@H@std@@M$00@std@@QAE@U_One_then_variadic_args_t@1@AAU?$equal_to@H@1@$$QAM@Z
	??$?0AAU?$equal_to@V?$basic_string@DU?$char_traits@D@std@@V?$allocator@D@2@@std@@@std@@M@?$_Compressed_pair@U?$equal_to@V?$basic_string@DU?$char_traits@D@std@@V?$allocator@D@2@@std@@@std@@M$00@std@@QAE@U_One_then_variadic_args_t@1@AAU?$equal_to@V?$basic_string@DU?$char_traits@D@std@@V?$allocator@D@2@@std@@@1@$$QAM@Z
	??$?0AAU?$hash@H@std@@U_One_then_variadic_args_t@1@AAU?$equal_to@H@1@M@?$_Compressed_pair@U?$hash@H@std@@V?$_Compressed_pair@U?$equal_to@H@std@@M$00@2@$00@std@@QAE@U_One_then_variadic_args_t@1@AAU?$hash@H@1@$$QAU21@AAU?$equal_to@H@1@$$QAM@Z
	??$?0AAU?$hash@V?$basic_string@DU?$char_traits@D@std@@V?$allocator@D@2@@std@@@std@@U_One_then_variadic_args_t@1@AAU?$equal_to@V?$basic_string@DU?$char_traits@D@std@@V?$allocator@D@2@@std@@@1@M@?$_Compressed_pair@U?$hash@V?$basic_string@DU?$char_traits@D@std@@V?$allocator@D@2@@std@@@std@@V?$_Compressed_pair@U?$equal_to@V?$basic_string@DU?$char_traits@D@std@@V?$allocator@D@2@@std@@@std@@M$00@2@$00@std@@QAE@U_One_then_variadic_args_t@1@AAU?$hash@V?$basic_string@DU?$char_traits@D@std@@V?$allocator@D@2@@std@@@1@$$QAU21@AAU?$equal_to@V?$basic_string@DU?$char_traits@D@std@@V?$allocator@D@2@@std@@@1@$$QAM@Z
	??$?0AAV?$_List_iterator@V?$_List_val@U?$_List_simple_types@U?$pair@$$CBHU_BUILDABLE_STRUCTURE@@@std@@@std@@@std@@@std@@_N$0A@@?$pair@V?$_List_iterator@V?$_List_val@U?$_List_simple_types@U?$pair@$$CBHU_BUILDABLE_STRUCTURE@@@std@@@std@@@std@@@std@@_N@std@@QAE@AAV?$_List_iterator@V?$_List_val@U?$_List_simple_types@U?$pair@$$CBHU_BUILDABLE_STRUCTURE@@@std@@@std@@@std@@@1@$$QA_N@Z
	??$?0AAV?$_List_iterator@V?$_List_val@U?$_List_simple_types@U?$pair@$$CBHU_DROPPED_MARINE_ITEM@@@std@@@std@@@std@@@std@@_N$0A@@?$pair@V?$_List_iterator@V?$_List_val@U?$_List_simple_types@U?$pair@$$CBHU_DROPPED_MARINE_ITEM@@@std@@@std@@@std@@@std@@_N@std@@QAE@AAV?$_List_iterator@V?$_List_val@U?$_List_simple_types@U?$pair@$$CBHU_DROPPED_MARINE_ITEM@@@std@@@std@@@std@@@1@$$QA_N@Z
	??$?0AAV?$_List_iterator@V?$_List_val@U?$_List_simple_types@U?$pair@$$CBV?$basic_string@DU?$char_traits@D@std@@V?$allocator@D@2@@std@@U_BOT_SKILL@@@std@@@std@@@std@@@std@@_N$0A@@?$pair@V?$_List_iterator@V?$_List_val@U?$_List_simple_types@U?$pair@$$CBV?$basic_string@DU?$char_traits@D@std@@V?$allocator@D@2@@std@@U_BOT_SKILL@@@std@@@std@@@std@@@std@@_N@std@@QAE@AAV?$_List_iterator@V?$_List_val@U?$_List_simple_types@U?$pair@$$CBV?$basic_string@DU?$char_traits@D@std@@V?$allocator@D@2@@std@@U_BOT_SKILL@@@std@@@std@@@std@@@1@$$QA_N@Z
	??$?0AAV?$_List_iterator@V?$_List_val@U?$_List_simple_types@U?$pair@$$CBV?$basic_string@DU?$char_traits@D@std@@V?$allocator@D@2@@std@@U_TEAMSIZEDEFINITIONS@@@std@@@std@@@std@@@std@@_N$0A@@?$pair@V?$_List_iterator@V?$_List_val@U?$_List_simple_types@U?$pair@$$CBV?$basic_string@DU?$char_traits@D@std@@V?$allocator@D@2@@std@@U_TEAMSIZEDEFINITIONS@@@std@@@std@@@std@@@std@@_N@std@@QAE@AAV?$_List_iterator@V?$_List_val@U?$_List_simple_types@U?$pair@$$CBV?$basic_string@DU?$char_traits@D@std@@V?$allocator@D@2@@std@@U_TEAMSIZEDEFINITIONS@@@std@@@std@@@std@@@1@$$QA_N@Z
	??$?0ABH$$Z$$V@?$pair@$$CBHU_BUILDABLE_STRUCTURE@@@std@@QAE@Upiecewise_construct_t@1@V?$tuple@ABH@1@V?$tuple@$$V@1@@Z
	??$?0ABH$$Z$$V@?$pair@$$CBHU_DROPPED_MARINE_ITEM@@@std@@QAE@Upiecewise_construct_t@1@V?$tuple@ABH@1@V?$tuple@$$V@1@@Z
	??$?0ABH$0A@@?$tuple@ABH@std@@QAE@ABH@Z
	??$?0ABH@?$_Tuple_val@ABH@std@@QAE@ABH@Z
	??$?0ABV?$allocator@D@std@@$$V@?$_Compressed_pair@V?$allocator@D@std@@V?$_String_val@U?$_Simple_types@D@std@@@2@$00@std@@QAE@U_One_then_variadic_args_t@1@ABV?$allocator@D@1@@Z
	??$?0ABV?$allocator@D@std@@X@?$_String_alloc@U?$_String_base_types@DV?$allocator@D@std@@@std@@@std@@QAE@ABV?$allocator@D@1@@Z
	??$?0ABV?$allocator@U?$pair@$$CBHU_BUILDABLE_STRUCTURE@@@std@@@std@@$$V@?$_Compressed_pair@V?$allocator@U?$_List_node@U?$pair@$$CBHU_BUILDABLE_STRUCTURE@@@std@@PAX@std@@@std@@V?$_List_val@U?$_List_simple_types@U?$pair@$$CBHU_BUILDABLE_STRUCTURE@@@std@@@std@@@2@$00@std@@QAE@U_One_then_variadic_args_t@1@ABV?$allocator@U?$pair@$$CBHU_BUILDABLE_STRUCTURE@@@std@@@1@@Z
	??$?0ABV?$allocator@U?$pair@$$CBHU_BUILDABLE_STRUCTURE@@@std@@@std@@X@?$_List_alloc@U?$_List_base_types@U?$pair@$$CBHU_BUILDABLE_STRUCTURE@@@std@@V?$allocator@U?$pair@$$CBHU_BUILDABLE_STRUCTURE@@@std@@@2@@std@@@std@@QAE@ABV?$allocator@U?$pair@$$CBHU_BUILDABLE_STRUCTURE@@@std@@@1@@Z
	??$?0ABV?$allocator@U?$pair@$$CBHU_BUILDABLE_STRUCTURE@@@std@@@std@@X@?$_List_buy@U?$pair@$$CBHU_BUILDABLE_STRUCTURE@@@std@@V?$allocator@U?$pair@$$CBHU_BUILDABLE_STRUCTURE@@@std@@@2@@std@@QAE@ABV?$allocator@U?$pair@$$CBHU_BUILDABLE_STRUCTURE@@@std@@@1@@Z
	??$?0ABV?$allocator@U?$pair@$$CBHU_DROPPED_MARINE_ITEM@@@std@@@std@@$$V@?$_Compressed_pair@V?$allocator@U?$_List_node@U?$pair@$$CBHU_DROPPED_MARINE_ITEM@@@std@@PAX@std@@@std@@V?$_List_val@U?$_List_simple_types@U?$pair@$$CBHU_DROPPED_MARINE_ITEM@@@std@@@std@@@2@$00@std@@QAE@U_One_then_variadic_args_t@1@ABV?$allocator@U?$pair@$$CBHU_DROPPED_MARINE_ITEM@@@std@@@1@@Z
	??$?0ABV?$allocator@U?$pair@$$CBHU_DROPPED_MARINE_ITEM@@@std@@@std@@X@?$_List_alloc@U?$_List_base_types@U?$pair@$$CBHU_DROPPED_MARINE_ITEM@@@std@@V?$allocator@U?$pair@$$CBHU_DROPPED_MARINE_ITEM@@@std@@@2@@std@@@std@@QAE@ABV?$allocator@U?$pair@$$CBHU_DROPPED_MARINE_ITEM@@@std@@@1@@Z
	??$?0ABV?$allocator@U?$pair@$$CBHU_DROPPED_MARINE_ITEM@@@std@@@std@@X@?$_List_buy@U?$pair@$$CBHU_DROPPED_MARINE_ITEM@@@std@@V?$allocator@U?$pair@$$CBHU_DROPPED_MARINE_ITEM@@@std@@@2@@std@@QAE@ABV?$allocator@U?$pair@$$CBHU_DROPPED_MARINE_ITEM@@@std@@@1@@Z
	??$?0ABV?$allocator@U?$pair@$$CBV?$basic_string@DU?$char_traits@D@std@@V?$allocator@D@2@@std@@U_BOT_SKILL@@@std@@@std@@$$V@?$_Compressed_pair@V?$allocator@U?$_List_node@U?$pair@$$CBV?$basic_string@DU?$char_traits@D@std@@V?$allocator@D@2@@std@@U_BOT_SKILL@@@std@@PAX@std@@@std@@V?$_List_val@U?$_List_simple_types@U?$pair@$$CBV?$basic_string@DU?$char_traits@D@std@@V?$allocator@D@2@@std@@U_BOT_SKILL@@@std@@@std@@@2@$00@std@@QAE@U_One_then_variadic_args_t@1@ABV?$allocator@U?$pair@$$CBV?$basic_string@DU?$char_traits@D@std@@V?$allocator@D@2@@std@@U_BOT_SKILL@@@std@@@1@@Z
	??$?0ABV?$allocator@U?$pair@$$CBV?$basic_string@DU?$char_traits@D@std@@V?$allocator@D@2@@std@@U_BOT_SKILL@@@std@@@std@@X@?$_List_alloc@U?$_List_base_types@U?$pair@$$CBV?$basic_string@DU?$char_traits@D@std@@V?$allocator@D@2@@std@@U_BOT_SKILL@@@std@@V?$allocator@U?$pair@$$CBV?$basic_string@DU?$char_traits@D@std@@V?$allocator@D@2@@std@@U_BOT_SKILL@@@std@@@2@@std@@@std@@QAE@ABV?$allocator@U?$pair@$$CBV?$basic_string@DU?$char_traits@D@std@@V?$allocator@D@2@@std@@U_BOT_SKILL@@@std@@@1@@Z
	??$?0ABV?$allocator@U?$pair@$$CBV?$basic_string@DU?$char_traits@D@std@@V?$allocator@D@2@@std@@U_BOT_SKILL@@@std@@@std@@X@?$_List_buy@U?$pair@$$CBV?$basic_string@DU?$char_traits@D@std@@V?$allocator@D@2@@std@@U_BOT_SKILL@@@std@@V?$allocator@U?$pair@$$CBV?$basic_string@DU?$char_traits@D@std@@V?$allocator@D@2@@std@@U_BOT_SKILL@@@std@@@2@@std@@QAE@ABV?$allocator@U?$pair@$$CBV?$basic_string@DU?$char_traits@D@std@@V?$allocator@D@2@@std@@U_BOT_SKILL@@@std@@@1@@Z
	??$?0ABV?$allocator@U?$pair@$$CBV?$basic_string@DU?$char_traits@D@std@@V?$allocator@D@2@@std@@U_TEAMSIZEDEFINITIONS@@@std@@@std@@$$V@?$_Compressed_pair@V?$allocator@U?$_List_node@U?$pair@$$CBV?$basic_string@DU?$char_traits@D@std@@V?$allocator@D@2@@std@@U_TEAMSIZEDEFINITIONS@@@std@@PAX@std@@@std@@V?$_List_val@U?$_List_simple_types@U?$pair@$$CBV?$basic_string@DU?$char_traits@D@std@@V?$allocator@D@2@@std@@U_TEAMSIZEDEFINITIONS@@@std@@@std@@@2@$00@std@@QAE@U_One_then_variadic_args_t@1@ABV?$allocator@U?$pair@$$CBV?$basic_string@DU?$char_traits@D@std@@V?$allocator@D@2@@std@@U_TEAMSIZEDEFINITIONS@@@std@@@1@@Z
	??$?0ABV?$allocator@U?$pair@$$CBV?$basic_string@DU?$char_traits@D@std@@V?$allocator@D@2@@std@@U_TEAMSIZEDEFINITIONS@@@std@@@std@@X@?$_List_alloc@U?$_List_base_types@U?$pair@$$CBV?$basic_string@DU?$char_traits@D@std@@V?$allocator@D@2@@std@@U_TEAMSIZEDEFINITIONS@@@std@@V?$allocator@U?$pair@$$CBV?$basic_string@DU?$char_traits@D@std@@V?$allocator@D@2@@std@@U_TEAMSIZEDEFINITIONS@@@std@@@2@@std@@@std@@QAE@ABV?$allocator@U?$pair@$$CBV?$basic_string@DU?$char_traits@D@std@@V?$allocator@D@2@@std@@U_TEAMSIZEDEFINITIONS@@@std@@@1@@Z
	??$?0ABV?$allocator@U?$pair@$$CBV?$basic_string@DU?$char_traits@D@std@@V?$allocator@D@2@@std@@U_TEAMSIZEDEFINITIONS@@@std@@@std@@X@?$_List_buy@U?$pair@$$CBV?$basic_string@DU?$char_traits@D@std@@V?$allocator@D@2@@std@@U_TEAMSIZEDEFINITIONS@@@std@@V?$allocator@U?$pair@$$CBV?$basic_string@DU?$char_traits@D@std@@V?$allocator@D@2@@std@@U_TEAMSIZEDEFINITIONS@@@std@@@2@@std@@QAE@ABV?$allocator@U?$pair@$$CBV?$basic_string@DU?$char_traits@D@std@@V?$allocator@D@2@@std@@U_TEAMSIZEDEFINITIONS@@@std@@@1@@Z
	??$?0ABV?$allocator@V?$_List_unchecked_iterator@V?$_List_val@U?$_List_simple_types@U?$pair@$$CBHU_BUILDABLE_STRUCTURE@@@std@@@std@@@std@@@std@@@std@@$$V@?$_Compressed_pair@V?$allocator@V?$_List_unchecked_iterator@V?$_List_val@U?$_List_simple_types@U?$pair@$$CBHU_BUILDABLE_STRUCTURE@@@std@@@std@@@std@@@std@@@std@@V?$_Vector_val@U?$_Simple_types@V?$_List_unchecked_iterator@V?$_List_val@U?$_List_simple_types@U?$pair@$$CBHU_BUILDABLE_STRUCTURE@@@std@@@std@@@std@@@std@@@std@@@2@$00@std@@QAE@U_One_then_variadic_args_t@1@ABV?$allocator@V?$_List_unchecked_iterator@V?$_List_val@U?$_List_simple_types@U?$pair@$$CBHU_BUILDABLE_STRUCTURE@@@std@@@std@@@std@@@std@@@1@@Z
	??$?0ABV?$allocator@V?$_List_unchecked_iterator@V?$_List_val@U?$_List_simple_types@U?$pair@$$CBHU_BUILDABLE_STRUCTURE@@@std@@@std@@@std@@@std@@@std@@X@?$_Vector_alloc@U?$_Vec_base_types@V?$_List_unchecked_iterator@V?$_List_val@U?$_List_simple_types@U?$pair@$$CBHU_BUILDABLE_STRUCTURE@@@std@@@std@@@std@@@std@@V?$allocator@V?$_List_unchecked_iterator@V?$_List_val@U?$_List_simple_types@U?$pair@$$CBHU_BUILDABLE_STRUCTURE@@@std@@@std@@@std@@@std@@@2@@std@@@std@@QAE@ABV?$allocator@V?$_List_unchecked_iterator@V?$_List_val@U?$_List_simple_types@U?$pair@$$CBHU_BUILDABLE_STRUCTURE@@@std@@@std@@@std@@@std@@@1@@Z
	??$?0ABV?$allocator@V?$_List_unchecked_iterator@V?$_List_val@U?$_List_simple_types@U?$pair@$$CBHU_DROPPED_MARINE_ITEM@@@std@@@std@@@std@@@std@@@std@@$$V@?$_Compressed_pair@V?$allocator@V?$_List_unchecked_iterator@V?$_List_val@U?$_List_simple_types@U?$pair@$$CBHU_DROPPED_MARINE_ITEM@@@std@@@std@@@std@@@std@@@std@@V?$_Vector_val@U?$_Simple_types@V?$_List_unchecked_iterator@V?$_List_val@U?$_List_simple_types@U?$pair@$$CBHU_DROPPED_MARINE_ITEM@@@std@@@std@@@std@@@std@@@std@@@2@$00@std@@QAE@U_One_then_variadic_args_t@1@ABV?$allocator@V?$_List_unchecked_iterator@V?$_List_val@U?$_List_simple_types@U?$pair@$$CBHU_DROPPED_MARINE_ITEM@@@std@@@std@@@std@@@std@@@1@@Z
	??$?0ABV?$allocator@V?$_List_unchecked_iterator@V?$_List_val@U?$_List_simple_types@U?$pair@$$CBHU_DROPPED_MARINE_ITEM@@@std@@@std@@@std@@@std@@@std@@X@?$_Vector_alloc@U?$_Vec_base_types@V?$_List_unchecked_iterator@V?$_List_val@U?$_List_simple_types@U?$pair@$$CBHU_DROPPED_MARINE_ITEM@@@std@@@std@@@std@@@std@@V?$allocator@V?$_List_unchecked_iterator@V?$_List_val@U?$_List_simple_types@U?$pair@$$CBHU_DROPPED_MARINE_ITEM@@@std@@@std@@@std@@@std@@@2@@std@@@std@@QAE@ABV?$allocator@V?$_List_unchecked_iterator@V?$_List_val@U?$_List_simple_types@U?$pair@$$CBHU_DROPPED_MARINE_ITEM@@@std@@@std@@@std@@@std@@@1@@Z
	??$?0ABV?$allocator@V?$_List_unchecked_iterator@V?$_List_val@U?$_List_simple_types@U?$pair@$$CBV?$basic_string@DU?$char_traits@D@std@@V?$allocator@D@2@@std@@U_BOT_SKILL@@@std@@@std@@@std@@@std@@@std@@$$V@?$_Compressed_pair@V?$allocator@V?$_List_unchecked_iterator@V?$_List_val@U?$_List_simple_types@U?$pair@$$CBV?$basic_string@DU?$char_traits@D@std@@V?$allocator@D@2@@std@@U_BOT_SKILL@@@std@@@std@@@std@@@std@@@std@@V?$_Vector_val@U?$_Simple_types@V?$_List_unchecked_iterator@V?$_List_val@U?$_List_simple_types@U?$pair@$$CBV?$basic_string@DU?$char_traits@D@std@@V?$allocator@D@2@@std@@U_BOT_SKILL@@@std@@@std@@@std@@@std@@@std@@@2@$00@std@@QAE@U_One_then_variadic_args_t@1@ABV?$allocator@V?$_List_unchecked_iterator@V?$_List_val@U?$_List_simple_types@U?$pair@$$CBV?$basic_string@DU?$char_traits@D@std@@V?$allocator@D@2@@std@@U_BOT_SKILL@@@std@@@std@@@std@@@std@@@1@@Z
	??$?0ABV?$allocator@V?$_List_unchecked_iterator@V?$_List_val@U?$_List_simple_types@U?$pair@$$CBV?$basic_string@DU?$char_traits@D@std@@V?$allocator@D@2@@std@@U_BOT_SKILL@@@std@@@std@@@std@@@std@@@std@@X@?$_Vector_alloc@U?$_Vec_base_types@V?$_List_unchecked_iterator@V?$_List_val@U?$_List_simple_types@U?$pair@$$CBV?$basic_string@DU?$char_traits@D@std@@V?$allocator@D@2@@std@@U_BOT_SKILL@@@std@@@std@@@std@@@std@@V?$allocator@V?$_List_unchecked_iterator@V?$_List_val@U?$_List_simple_types@U?$pair@$$CBV?$basic_string@DU?$char_traits@D@std@@V?$allocator@D@2@@std@@U_BOT_SKILL@@@std@@@std@@@std@@@std@@@2@@std@@@std@@QAE@ABV?$allocator@V?$_List_unchecked_iterator@V?$_List_val@U?$_List_simple_types@U?$pair@$$CBV?$basic_string@DU?$char_traits@D@std@@V?$allocator@D@2@@std@@U_BOT_SKILL@@@std@@@std@@@std@@@std@@@1@@Z
	??$?0ABV?$allocator@V?$_List_unchecked_iterator@V?$_List_val@U?$_List_simple_types@U?$pair@$$CBV?$basic_string@DU?$char_traits@D@std@@V?$allocator@D@2@@std@@U_TEAMSIZEDEFINITIONS@@@std@@@std@@@std@@@std@@@std@@$$V@?$_Compressed_pair@V?$allocator@V?$_List_unchecked_iterator@V?$_List_val@U?$_List_simple_types@U?$pair@$$CBV?$basic_string@DU?$char_traits@D@std@@V?$allocator@D@2@@std@@U_TEAMSIZEDEFINITIONS@@@std@@@std@@@std@@@std@@@std@@V?$_Vector_val@U?$_Simple_types@V?$_List_unchecked_iterator@V?$_List_val@U?$_List_simple_types@U?$pair@$$CBV?$basic_string@DU?$char_traits@D@std@@V?$allocator@D@2@@std@@U_TEAMSIZEDEFINITIONS@@@std@@@std@@@std@@@std@@@std@@@2@$00@std@@QAE@U_One_then_variadic_args_t@1@ABV?$allocator@V?$_List_unchecked_iterator@V?$_List_val@U?$_List_simple_types@U?$pair@$$CBV?$basic_string@DU?$char_traits@D@std@@V?$allocator@D@2@@std@@U_TEAMSIZEDEFINITIONS@@@std@@@std@@@std@@@std@@@1@@Z
	??$?0ABV?$allocator@V?$_List_unchecked_iterator@V?$_List_val@U?$_List_simple_types@U?$pair@$$CBV?$basic_string@DU?$char_traits@D@std@@V?$allocator@D@2@@std@@U_TEAMSIZEDEFINITIONS@@@std@@@std@@@std@@@std@@@std@@X@?$_Vector_alloc@U?$_Vec_base_types@V?$_List_unchecked_iterator@V?$_List_val@U?$_List_simple_types@U?$pair@$$CBV?$basic_string@DU?$char_traits@D@std@@V?$allocator@D@2@@std@@U_TEAMSIZEDEFINITIONS@@@std@@@std@@@std@@@std@@V?$allocator@V?$_List_unchecked_iterator@V?$_List_val@U?$_List_simple_types@U?$pair@$$CBV?$basic_string@DU?$char_traits@D@std@@V?$allocator@D@2@@std@@U_TEAMSIZEDEFINITIONS@@@std@@@std@@@std@@@std@@@2@@std@@@std@@QAE@ABV?$allocator@V?$_List_unchecked_iterator@V?$_List_val@U?$_List_simple_types@U?$pair@$$CBV?$basic_string@DU?$char_traits@D@std@@V?$allocator@D@2@@std@@U_TEAMSIZEDEFINITIONS@@@std@@@std@@@std@@@std@@@1@@Z
	??$?0ABV?$allocator@W4HiveTechStatus@@@std@@$$V@?$_Compressed_pair@V?$allocator@W4HiveTechStatus@@@std@@V?$_Vector_val@U?$_Simple_types@W4HiveTechStatus@@@std@@@2@$00@std@@QAE@U_One_then_variadic_args_t@1@ABV?$allocator@W4HiveTechStatus@@@1@@Z
	??$?0ABV?$allocator@W4HiveTechStatus@@@std@@X@?$_Vector_alloc@U?$_Vec_base_types@W4HiveTechStatus@@V?$allocator@W4HiveTechStatus@@@std@@@std@@@std@@QAE@ABV?$allocator@W4HiveTechStatus@@@1@@Z
	??$?0ABV?$basic_string@DU?$char_traits@D@std@@V?$allocator@D@2@@std@@$$Z$$V@?$pair@$$CBV?$basic_string@DU?$char_traits@D@std@@V?$allocator@D@2@@std@@U_TEAMSIZEDEFINITIONS@@@std@@QAE@Upiecewise_construct_t@1@V?$tuple@ABV?$basic_string@DU?$char_traits@D@std@@V?$allocator@D@2@@std@@@1@V?$tuple@$$V@1@@Z
	??$?0ABV?$basic_string@DU?$char_traits@D@std@@V?$allocator@D@2@@std@@$0A@@?$tuple@ABV?$basic_string@DU?$char_traits@D@std@@V?$allocator@D@2@@std@@@std@@QAE@ABV?$basic_string@DU?$char_traits@D@std@@V?$allocator@D@2@@1@@Z
	??$?0ABV?$basic_string@DU?$char_traits@D@std@@V?$allocator@D@2@@std@@@?$_Tuple_val@ABV?$basic_string@DU?$char_traits@D@std@@V?$allocator@D@2@@std@@@std@@QAE@ABV?$basic_string@DU?$char_traits@D@std@@V?$allocator@D@2@@1@@Z
	??$?0D@?$allocator@U_Container_proxy@std@@@std@@QAE@ABV?$allocator@D@1@@Z
	??$?0PAV_Facet_base@std@@@?$_Unique_ptr_base@V_Facet_base@std@@U?$default_delete@V_Facet_base@std@@@2@@std@@QAE@PAV_Facet_base@1@@Z
	??$?0U?$_List_node@U?$pair@$$CBHU_BUILDABLE_STRUCTURE@@@std@@PAX@std@@@?$allocator@U_Container_proxy@std@@@std@@QAE@ABV?$allocator@U?$_List_node@U?$pair@$$CBHU_BUILDABLE_STRUCTURE@@@std@@PAX@std@@@1@@Z
	??$?0U?$_List_node@U?$pair@$$CBHU_DROPPED_MARINE_ITEM@@@std@@PAX@std@@@?$allocator@U_Container_proxy@std@@@std@@QAE@ABV?$allocator@U?$_List_node@U?$pair@$$CBHU_DROPPED_MARINE_ITEM@@@std@@PAX@std@@@1@@Z
	??$?0U?$_List_node@U?$pair@$$CBV?$basic_string@DU?$char_traits@D@std@@V?$allocator@D@2@@std@@U_BOT_SKILL@@@std@@PAX@std@@@?$allocator@U_Container_proxy@std@@@std@@QAE@ABV?$allocator@U?$_List_node@U?$pair@$$CBV?$basic_string@DU?$char_traits@D@std@@V?$allocator@D@2@@std@@U_BOT_SKILL@@@std@@PAX@std@@@1@@Z
	??$?0U?$_List_node@U?$pair@$$CBV?$basic_string@DU?$char_traits@D@std@@V?$allocator@D@2@@std@@U_TEAMSIZEDEFINITIONS@@@std@@PAX@std@@@?$allocator@U_Container_proxy@std@@@std@@QAE@ABV?$allocator@U?$_List_node@U?$pair@$$CBV?$basic_string@DU?$char_traits@D@std@@V?$allocator@D@2@@std@@U_TEAMSIZEDEFINITIONS@@@std@@PAX@std@@@1@@Z
	??$?0U?$default_delete@V_Facet_base@std@@@std@@$0A@@?$unique_ptr@V_Facet_base@std@@U?$default_delete@V_Facet_base@std@@@2@@std@@QAE@PAV_Facet_base@1@@Z
	??$?0U?$integral_constant@_N$00@std@@@_Unused_parameter@std@@QAE@$$QAU?$integral_constant@_N$00@1@@Z
	??$?0U?$pair@$$CBHU_BUILDABLE_STRUCTURE@@@std@@@?$allocator@U?$_List_node@U?$pair@$$CBHU_BUILDABLE_STRUCTURE@@@std@@PAX@std@@@std@@QAE@ABV?$allocator@U?$pair@$$CBHU_BUILDABLE_STRUCTURE@@@std@@@1@@Z
	??$?0U?$pair@$$CBHU_BUILDABLE_STRUCTURE@@@std@@@?$allocator@V?$_List_unchecked_iterator@V?$_List_val@U?$_List_simple_types@U?$pair@$$CBHU_BUILDABLE_STRUCTURE@@@std@@@std@@@std@@@std@@@std@@QAE@ABV?$allocator@U?$pair@$$CBHU_BUILDABLE_STRUCTURE@@@std@@@1@@Z
	??$?0U?$pair@$$CBHU_DROPPED_MARINE_ITEM@@@std@@@?$allocator@U?$_List_node@U?$pair@$$CBHU_DROPPED_MARINE_ITEM@@@std@@PAX@std@@@std@@QAE@ABV?$allocator@U?$pair@$$CBHU_DROPPED_MARINE_ITEM@@@std@@@1@@Z
	??$?0U?$pair@$$CBHU_DROPPED_MARINE_ITEM@@@std@@@?$allocator@V?$_List_unchecked_iterator@V?$_List_val@U?$_List_simple_types@U?$pair@$$CBHU_DROPPED_MARINE_ITEM@@@std@@@std@@@std@@@std@@@std@@QAE@ABV?$allocator@U?$pair@$$CBHU_DROPPED_MARINE_ITEM@@@std@@@1@@Z
	??$?0U?$pair@$$CBV?$basic_string@DU?$char_traits@D@std@@V?$allocator@D@2@@std@@U_BOT_SKILL@@@std@@@?$allocator@U?$_List_node@U?$pair@$$CBV?$basic_string@DU?$char_traits@D@std@@V?$allocator@D@2@@std@@U_BOT_SKILL@@@std@@PAX@std@@@std@@QAE@ABV?$allocator@U?$pair@$$CBV?$basic_string@DU?$char_traits@D@std@@V?$allocator@D@2@@std@@U_BOT_SKILL@@@std@@@1@@Z
	??$?0U?$pair@$$CBV?$basic_string@DU?$char_traits@D@std@@V?$allocator@D@2@@std@@U_BOT_SKILL@@@std@@@?$allocator@V?$_List_unchecked_iterator@V?$_List_val@U?$_List_simple_types@U?$pair@$$CBV?$basic_string@DU?$char_traits@D@std@@V?$allocator@D@2@@std@@U_BOT_SKILL@@@std@@@std@@@std@@@std@@@std@@QAE@ABV?$allocator@U?$pair@$$CBV?$basic_string@DU?$char_traits@D@std@@V?$allocator@D@2@@std@@U_BOT_SKILL@@@std@@@1@@Z
	??$?0U?$pair@$$CBV?$basic_string@DU?$char_traits@D@std@@V?$allocator@D@2@@std@@U_TEAMSIZEDEFINITIONS@@@std@@@?$allocator@U?$_List_node@U?$pair@$$CBV?$basic_string@DU?$char_traits@D@std@@V?$allocator@D@2@@std@@U_TEAMSIZEDEFINITIONS@@@std@@PAX@std@@@std@@QAE@ABV?$allocator@U?$pair@$$CBV?$basic_string@DU?$char_traits@D@std@@V?$allocator@D@2@@std@@U_TEAMSIZEDEFINITIONS@@@std@@@1@@Z
	??$?0U?$pair@$$CBV?$basic_string@DU?$char_traits@D@std@@V?$allocator@D@2@@std@@U_TEAMSIZEDEFINITIONS@@@std@@@?$allocator@V?$_List_unchecked_iterator@V?$_List_val@U?$_List_simple_types@U?$pair@$$CBV?$basic_string@DU?$char_traits@D@std@@V?$allocator@D@2@@std@@U_TEAMSIZEDEFINITIONS@@@std@@@std@@@std@@@std@@@std@@QAE@ABV?$allocator@U?$pair@$$CBV?$basic_string@DU?$char_traits@D@std@@V?$allocator@D@2@@std@@U_TEAMSIZEDEFINITIONS@@@std@@@1@@Z
	??$?0U_Exact_args_t@std@@$0A@@?$tuple@$$V@std@@QAE@U_Exact_args_t@1@@Z
	??$?0U_Exact_args_t@std@@ABH$$V$0A@@?$tuple@ABH@std@@QAE@U_Exact_args_t@1@ABH@Z
	??$?0U_Exact_args_t@std@@ABV?$basic_string@DU?$char_traits@D@std@@V?$allocator@D@2@@1@$$V$0A@@?$tuple@ABV?$basic_string@DU?$char_traits@D@std@@V?$allocator@D@2@@std@@@std@@QAE@U_Exact_args_t@1@ABV?$basic_string@DU?$char_traits@D@std@@V?$allocator@D@2@@1@@Z
	??$?0U_Exact_args_t@std@@V?$basic_string@DU?$char_traits@D@std@@V?$allocator@D@2@@1@$$V$0A@@?$tuple@$$QAV?$basic_string@DU?$char_traits@D@std@@V?$allocator@D@2@@std@@@std@@QAE@U_Exact_args_t@1@$$QAV?$basic_string@DU?$char_traits@D@std@@V?$allocator@D@2@@1@@Z
	??$?0V?$_List_iterator@V?$_List_val@U?$_List_simple_types@U?$pair@$$CBHU_BUILDABLE_STRUCTURE@@@std@@@std@@@std@@@std@@_N$0A@@?$pair@V?$_List_iterator@V?$_List_val@U?$_List_simple_types@U?$pair@$$CBHU_BUILDABLE_STRUCTURE@@@std@@@std@@@std@@@std@@_N@std@@QAE@$$QAV?$_List_iterator@V?$_List_val@U?$_List_simple_types@U?$pair@$$CBHU_BUILDABLE_STRUCTURE@@@std@@@std@@@std@@@1@$$QA_N@Z
	??$?0V?$_List_iterator@V?$_List_val@U?$_List_simple_types@U?$pair@$$CBHU_DROPPED_MARINE_ITEM@@@std@@@std@@@std@@@std@@_N$0A@@?$pair@V?$_List_iterator@V?$_List_val@U?$_List_simple_types@U?$pair@$$CBHU_DROPPED_MARINE_ITEM@@@std@@@std@@@std@@@std@@_N@std@@QAE@$$QAV?$_List_iterator@V?$_List_val@U?$_List_simple_types@U?$pair@$$CBHU_DROPPED_MARINE_ITEM@@@std@@@std@@@std@@@1@$$QA_N@Z
	??$?0V?$_List_iterator@V?$_List_val@U?$_List_simple_types@U?$pair@$$CBV?$basic_string@DU?$char_traits@D@std@@V?$allocator@D@2@@std@@U_BOT_SKILL@@@std@@@std@@@std@@@std@@_N$0A@@?$pair@V?$_List_iterator@V?$_List_val@U?$_List_simple_types@U?$pair@$$CBV?$basic_string@DU?$char_traits@D@std@@V?$allocator@D@2@@std@@U_BOT_SKILL@@@std@@@std@@@std@@@std@@_N@std@@QAE@$$QAV?$_List_iterator@V?$_List_val@U?$_List_simple_types@U?$pair@$$CBV?$basic_string@DU?$char_traits@D@std@@V?$allocator@D@2@@std@@U_BOT_SKILL@@@std@@@std@@@std@@@1@$$QA_N@Z
	??$?0V?$_List_iterator@V?$_List_val@U?$_List_simple_types@U?$pair@$$CBV?$basic_string@DU?$char_traits@D@std@@V?$allocator@D@2@@std@@U_TEAMSIZEDEFINITIONS@@@std@@@std@@@std@@@std@@_N$0A@@?$pair@V?$_List_iterator@V?$_List_val@U?$_List_simple_types@U?$pair@$$CBV?$basic_string@DU?$char_traits@D@std@@V?$allocator@D@2@@std@@U_TEAMSIZEDEFINITIONS@@@std@@@std@@@std@@@std@@_N@std@@QAE@$$QAV?$_List_iterator@V?$_List_val@U?$_List_simple_types@U?$pair@$$CBV?$basic_string@DU?$char_traits@D@std@@V?$allocator@D@2@@std@@U_TEAMSIZEDEFINITIONS@@@std@@@std@@@std@@@1@$$QA_N@Z
	??$?0V?$_List_unchecked_iterator@V?$_List_val@U?$_List_simple_types@U?$pair@$$CBHU_BUILDABLE_STRUCTURE@@@std@@@std@@@std@@@std@@@?$allocator@U_Container_proxy@std@@@std@@QAE@ABV?$allocator@V?$_List_unchecked_iterator@V?$_List_val@U?$_List_simple_types@U?$pair@$$CBHU_BUILDABLE_STRUCTURE@@@std@@@std@@@std@@@std@@@1@@Z
	??$?0V?$_List_unchecked_iterator@V?$_List_val@U?$_List_simple_types@U?$pair@$$CBHU_DROPPED_MARINE_ITEM@@@std@@@std@@@std@@@std@@@?$allocator@U_Container_proxy@std@@@std@@QAE@ABV?$allocator@V?$_List_unchecked_iterator@V?$_List_val@U?$_List_simple_types@U?$pair@$$CBHU_DROPPED_MARINE_ITEM@@@std@@@std@@@std@@@std@@@1@@Z
	??$?0V?$_List_unchecked_iterator@V?$_List_val@U?$_List_simple_types@U?$pair@$$CBV?$basic_string@DU?$char_traits@D@std@@V?$allocator@D@2@@std@@U_BOT_SKILL@@@std@@@std@@@std@@@std@@@?$allocator@U_Container_proxy@std@@@std@@QAE@ABV?$allocator@V?$_List_unchecked_iterator@V?$_List_val@U?$_List_simple_types@U?$pair@$$CBV?$basic_string@DU?$char_traits@D@std@@V?$allocator@D@2@@std@@U_BOT_SKILL@@@std@@@std@@@std@@@std@@@1@@Z
	??$?0V?$_List_unchecked_iterator@V?$_List_val@U?$_List_simple_types@U?$pair@$$CBV?$basic_string@DU?$char_traits@D@std@@V?$allocator@D@2@@std@@U_TEAMSIZEDEFINITIONS@@@std@@@std@@@std@@@std@@@?$allocator@U_Container_proxy@std@@@std@@QAE@ABV?$allocator@V?$_List_unchecked_iterator@V?$_List_val@U?$_List_simple_types@U?$pair@$$CBV?$basic_string@DU?$char_traits@D@std@@V?$allocator@D@2@@std@@U_TEAMSIZEDEFINITIONS@@@std@@@std@@@std@@@std@@@1@@Z
	??$?0V?$allocator@D@std@@$$V@?$_Compressed_pair@V?$allocator@D@std@@V?$_String_val@U?$_Simple_types@D@std@@@2@$00@std@@QAE@U_One_then_variadic_args_t@1@$$QAV?$allocator@D@1@@Z
	??$?0V?$allocator@D@std@@X@?$_String_alloc@U?$_String_base_types@DV?$allocator@D@std@@@std@@@std@@QAE@$$QAV?$allocator@D@1@@Z
	??$?0V?$basic_string@DU?$char_traits@D@std@@V?$allocator@D@2@@std@@$$V$0A@@?$tuple@$$QAV?$basic_string@DU?$char_traits@D@std@@V?$allocator@D@2@@std@@@std@@QAE@$$QAV?$basic_string@DU?$char_traits@D@std@@V?$allocator@D@2@@1@@Z
	??$?0V?$basic_string@DU?$char_traits@D@std@@V?$allocator@D@2@@std@@@?$_Tuple_val@$$QAV?$basic_string@DU?$char_traits@D@std@@V?$allocator@D@2@@std@@@std@@QAE@$$QAV?$basic_string@DU?$char_traits@D@std@@V?$allocator@D@2@@1@@Z
	??$?0V?$tuple@$$QAV?$basic_string@DU?$char_traits@D@std@@V?$allocator@D@2@@std@@@std@@V?$tuple@$$V@1@$0A@$$Z$S@?$pair@$$CBV?$basic_string@DU?$char_traits@D@std@@V?$allocator@D@2@@std@@U_BOT_SKILL@@@std@@QAE@AAV?$tuple@$$QAV?$basic_string@DU?$char_traits@D@std@@V?$allocator@D@2@@std@@@1@AAV?$tuple@$$V@1@U?$integer_sequence@I$0A@@1@U?$integer_sequence@I$S@1@@Z
	??$?0V?$tuple@$$QAV?$basic_string@DU?$char_traits@D@std@@V?$allocator@D@2@@std@@@std@@V?$tuple@$$V@1@$0A@$$Z$S@?$pair@$$CBV?$basic_string@DU?$char_traits@D@std@@V?$allocator@D@2@@std@@U_TEAMSIZEDEFINITIONS@@@std@@QAE@AAV?$tuple@$$QAV?$basic_string@DU?$char_traits@D@std@@V?$allocator@D@2@@std@@@1@AAV?$tuple@$$V@1@U?$integer_sequence@I$0A@@1@U?$integer_sequence@I$S@1@@Z
	??$?0V?$tuple@ABH@std@@V?$tuple@$$V@1@$0A@$$Z$S@?$pair@$$CBHU_BUILDABLE_STRUCTURE@@@std@@QAE@AAV?$tuple@ABH@1@AAV?$tuple@$$V@1@U?$integer_sequence@I$0A@@1@U?$integer_sequence@I$S@1@@Z
	??$?0V?$tuple@ABH@std@@V?$tuple@$$V@1@$0A@$$Z$S@?$pair@$$CBHU_DROPPED_MARINE_ITEM@@@std@@QAE@AAV?$tuple@ABH@1@AAV?$tuple@$$V@1@U?$integer_sequence@I$0A@@1@U?$integer_sequence@I$S@1@@Z
	??$?0V?$tuple@ABV?$basic_string@DU?$char_traits@D@std@@V?$allocator@D@2@@std@@@std@@V?$tuple@$$V@1@$0A@$$Z$S@?$pair@$$CBV?$basic_string@DU?$char_traits@D@std@@V?$allocator@D@2@@std@@U_TEAMSIZEDEFINITIONS@@@std@@QAE@AAV?$tuple@ABV?$basic_string@DU?$char_traits@D@std@@V?$allocator@D@2@@std@@@1@AAV?$tuple@$$V@1@U?$integer_sequence@I$0A@@1@U?$integer_sequence@I$S@1@@Z
	??$?0W4HiveTechStatus@@@?$allocator@U_Container_proxy@std@@@std@@QAE@ABV?$allocator@W4HiveTechStatus@@@1@@Z
	??$?8DU?$char_traits@D@std@@V?$allocator@D@1@@std@@YA_NABV?$basic_string@DU?$char_traits@D@std@@V?$allocator@D@2@@0@0@Z
	??$_Adl_verify_range1@PADPAD@std@@YAXABQAD0U?$integral_constant@_N$00@0@@Z
	??$_Adl_verify_range1@V?$_String_const_iterator@V?$_String_val@U?$_Simple_types@D@std@@@std@@@std@@V12@@std@@YAXABV?$_String_const_iterator@V?$_String_val@U?$_Simple_types@D@std@@@std@@@0@0U?$integral_constant@_N$00@0@@Z
	??$_Adl_verify_range1@V?$_String_iterator@V?$_String_val@U?$_Simple_types@D@std@@@std@@@std@@V12@@std@@YAXABV?$_String_iterator@V?$_String_val@U?$_Simple_types@D@std@@@std@@@0@0U?$integral_constant@_N$00@0@@Z
	??$_Adl_verify_range1@V?$_Vector_iterator@V?$_Vector_val@U?$_Simple_types@W4HiveTechStatus@@@std@@@std@@@std@@V12@@std@@YAXABV?$_Vector_iterator@V?$_Vector_val@U?$_Simple_types@W4HiveTechStatus@@@std@@@std@@@0@0U?$integral_constant@_N$00@0@@Z
	??$_Adl_verify_range@PADPAD@std@@YAXABQAD0@Z
	??$_Adl_verify_range@V?$_String_const_iterator@V?$_String_val@U?$_Simple_types@D@std@@@std@@@std@@V12@@std@@YAXABV?$_String_const_iterator@V?$_String_val@U?$_Simple_types@D@std@@@std@@@0@0@Z
	??$_Adl_verify_range@V?$_String_iterator@V?$_String_val@U?$_Simple_types@D@std@@@std@@@std@@V12@@std@@YAXABV?$_String_iterator@V?$_String_val@U?$_Simple_types@D@std@@@std@@@0@0@Z
	??$_Adl_verify_range@V?$_Vector_iterator@V?$_Vector_val@U?$_Simple_types@W4HiveTechStatus@@@std@@@std@@@std@@V12@@std@@YAXABV?$_Vector_iterator@V?$_Vector_val@U?$_Simple_types@W4HiveTechStatus@@@std@@@std@@@0@0@Z
	??$_Allocate@$07U_Default_allocate_traits@std@@$0A@@std@@YAPAXI@Z
	??$_Allocate_manually_vector_aligned@U_Default_allocate_traits@std@@@std@@YAPAXI@Z
	??$_Buy_if_not_node@AAU?$pair@$$CBHU_BUILDABLE_STRUCTURE@@@std@@@?$_Hash@V?$_Umap_traits@HU_BUILDABLE_STRUCTURE@@V?$_Uhash_compare@HU?$hash@H@std@@U?$equal_to@H@2@@std@@V?$allocator@U?$pair@$$CBHU_BUILDABLE_STRUCTURE@@@std@@@3@$0A@@std@@@std@@IAE?AV?$_List_unchecked_iterator@V?$_List_val@U?$_List_simple_types@U?$pair@$$CBHU_BUILDABLE_STRUCTURE@@@std@@@std@@@std@@@1@AAU?$pair@$$CBHU_BUILDABLE_STRUCTURE@@@1@V21@@Z
	??$_Buy_if_not_node@AAU?$pair@$$CBHU_DROPPED_MARINE_ITEM@@@std@@@?$_Hash@V?$_Umap_traits@HU_DROPPED_MARINE_ITEM@@V?$_Uhash_compare@HU?$hash@H@std@@U?$equal_to@H@2@@std@@V?$allocator@U?$pair@$$CBHU_DROPPED_MARINE_ITEM@@@std@@@3@$0A@@std@@@std@@IAE?AV?$_List_unchecked_iterator@V?$_List_val@U?$_List_simple_types@U?$pair@$$CBHU_DROPPED_MARINE_ITEM@@@std@@@std@@@std@@@1@AAU?$pair@$$CBHU_DROPPED_MARINE_ITEM@@@1@V21@@Z
	??$_Buy_if_not_node@AAU?$pair@$$CBV?$basic_string@DU?$char_traits@D@std@@V?$allocator@D@2@@std@@U_BOT_SKILL@@@std@@@?$_Hash@V?$_Umap_traits@V?$basic_string@DU?$char_traits@D@std@@V?$allocator@D@2@@std@@U_BOT_SKILL@@V?$_Uhash_compare@V?$basic_string@DU?$char_traits@D@std@@V?$allocator@D@2@@std@@U?$hash@V?$basic_string@DU?$char_traits@D@std@@V?$allocator@D@2@@std@@@2@U?$equal_to@V?$basic_string@DU?$char_traits@D@std@@V?$allocator@D@2@@std@@@2@@2@V?$allocator@U?$pair@$$CBV?$basic_string@DU?$char_traits@D@std@@V?$allocator@D@2@@std@@U_BOT_SKILL@@@std@@@2@$0A@@std@@@std@@IAE?AV?$_List_unchecked_iterator@V?$_List_val@U?$_List_simple_types@U?$pair@$$CBV?$basic_string@DU?$char_traits@D@std@@V?$allocator@D@2@@std@@U_BOT_SKILL@@@std@@@std@@@std@@@1@AAU?$pair@$$CBV?$basic_string@DU?$char_traits@D@std@@V?$allocator@D@2@@std@@U_BOT_SKILL@@@1@V21@@Z
	??$_Buy_if_not_node@AAU?$pair@$$CBV?$basic_string@DU?$char_traits@D@std@@V?$allocator@D@2@@std@@U_TEAMSIZEDEFINITIONS@@@std@@@?$_Hash@V?$_Umap_traits@V?$basic_string@DU?$char_traits@D@std@@V?$allocator@D@2@@std@@U_TEAMSIZEDEFINITIONS@@V?$_Uhash_compare@V?$basic_string@DU?$char_traits@D@std@@V?$allocator@D@2@@std@@U?$hash@V?$basic_string@DU?$char_traits@D@std@@V?$allocator@D@2@@std@@@2@U?$equal_to@V?$basic_string@DU?$char_traits@D@std@@V?$allocator@D@2@@std@@@2@@2@V?$allocator@U?$pair@$$CBV?$basic_string@DU?$char_traits@D@std@@V?$allocator@D@2@@std@@U_TEAMSIZEDEFINITIONS@@@std@@@2@$0A@@std@@@std@@IAE?AV?$_List_unchecked_iterator@V?$_List_val@U?$_List_simple_types@U?$pair@$$CBV?$basic_string@DU?$char_traits@D@std@@V?$allocator@D@2@@std@@U_TEAMSIZEDEFINITIONS@@@std@@@std@@@std@@@1@AAU?$pair@$$CBV?$basic_string@DU?$char_traits@D@std@@V?$allocator@D@2@@std@@U_TEAMSIZEDEFINITIONS@@@1@V21@@Z
	??$_Buynode@ABUpiecewise_construct_t@std@@V?$tuple@$$QAV?$basic_string@DU?$char_traits@D@std@@V?$allocator@D@2@@std@@@2@V?$tuple@$$V@2@@?$_List_buy@U?$pair@$$CBV?$basic_string@DU?$char_traits@D@std@@V?$allocator@D@2@@std@@U_BOT_SKILL@@@std@@V?$allocator@U?$pair@$$CBV?$basic_string@DU?$char_traits@D@std@@V?$allocator@D@2@@std@@U_BOT_SKILL@@@std@@@2@@std@@QAEPAU?$_List_node@U?$pair@$$CBV?$basic_string@DU?$char_traits@D@std@@V?$allocator@D@2@@std@@U_BOT_SKILL@@@std@@PAX@1@PAU21@0ABUpiecewise_construct_t@1@$$QAV?$tuple@$$QAV?$basic_string@DU?$char_traits@D@std@@V?$allocator@D@2@@std@@@1@$$QAV?$tuple@$$V@1@@Z
	??$_Buynode@ABUpiecewise_construct_t@std@@V?$tuple@$$QAV?$basic_string@DU?$char_traits@D@std@@V?$allocator@D@2@@std@@@2@V?$tuple@$$V@2@@?$_List_buy@U?$pair@$$CBV?$basic_string@DU?$char_traits@D@std@@V?$allocator@D@2@@std@@U_TEAMSIZEDEFINITIONS@@@std@@V?$allocator@U?$pair@$$CBV?$basic_string@DU?$char_traits@D@std@@V?$allocator@D@2@@std@@U_TEAMSIZEDEFINITIONS@@@std@@@2@@std@@QAEPAU?$_List_node@U?$pair@$$CBV?$basic_string@DU?$char_traits@D@std@@V?$allocator@D@2@@std@@U_TEAMSIZEDEFINITIONS@@@std@@PAX@1@PAU21@0ABUpiecewise_construct_t@1@$$QAV?$tuple@$$QAV?$basic_string@DU?$char_traits@D@std@@V?$allocator@D@2@@std@@@1@$$QAV?$tuple@$$V@1@@Z
	??$_Buynode@ABUpiecewise_construct_t@std@@V?$tuple@ABH@2@V?$tuple@$$V@2@@?$_List_buy@U?$pair@$$CBHU_BUILDABLE_STRUCTURE@@@std@@V?$allocator@U?$pair@$$CBHU_BUILDABLE_STRUCTURE@@@std@@@2@@std@@QAEPAU?$_List_node@U?$pair@$$CBHU_BUILDABLE_STRUCTURE@@@std@@PAX@1@PAU21@0ABUpiecewise_construct_t@1@$$QAV?$tuple@ABH@1@$$QAV?$tuple@$$V@1@@Z
	??$_Buynode@ABUpiecewise_construct_t@std@@V?$tuple@ABH@2@V?$tuple@$$V@2@@?$_List_buy@U?$pair@$$CBHU_DROPPED_MARINE_ITEM@@@std@@V?$allocator@U?$pair@$$CBHU_DROPPED_MARINE_ITEM@@@std@@@2@@std@@QAEPAU?$_List_node@U?$pair@$$CBHU_DROPPED_MARINE_ITEM@@@std@@PAX@1@PAU21@0ABUpiecewise_construct_t@1@$$QAV?$tuple@ABH@1@$$QAV?$tuple@$$V@1@@Z
	??$_Buynode@ABUpiecewise_construct_t@std@@V?$tuple@ABV?$basic_string@DU?$char_traits@D@std@@V?$allocator@D@2@@std@@@2@V?$tuple@$$V@2@@?$_List_buy@U?$pair@$$CBV?$basic_string@DU?$char_traits@D@std@@V?$allocator@D@2@@std@@U_TEAMSIZEDEFINITIONS@@@std@@V?$allocator@U?$pair@$$CBV?$basic_string@DU?$char_traits@D@std@@V?$allocator@D@2@@std@@U_TEAMSIZEDEFINITIONS@@@std@@@2@@std@@QAEPAU?$_List_node@U?$pair@$$CBV?$basic_string@DU?$char_traits@D@std@@V?$allocator@D@2@@std@@U_TEAMSIZEDEFINITIONS@@@std@@PAX@1@PAU21@0ABUpiecewise_construct_t@1@$$QAV?$tuple@ABV?$basic_string@DU?$char_traits@D@std@@V?$allocator@D@2@@std@@@1@$$QAV?$tuple@$$V@1@@Z
	??$_Const_cast@$$CBD@std@@YAPADPBD@Z
	??$_Const_cast@$$CBW4HiveTechStatus@@@std@@YAPAW4HiveTechStatus@@PBW41@@Z
	??$_Convert_size@I@std@@YAII@Z
	??$_Copy_memmove@PAW4HiveTechStatus@@PAW41@@std@@YAPAW4HiveTechStatus@@PAW41@00@Z
	??$_Copy_memmove@PBW4HiveTechStatus@@PAW41@@std@@YAPAW4HiveTechStatus@@PBW41@0PAW41@@Z
	??$_Deallocate@$07$0A@@std@@YAXPAXI@Z
	??$_Deallocate_plain@V?$allocator@U_Container_proxy@std@@@std@@$0A@@std@@YAXAAV?$allocator@U_Container_proxy@std@@@0@QAU_Container_proxy@0@@Z
	??$_Destroy_range1@V?$allocator@V?$_List_unchecked_iterator@V?$_List_val@U?$_List_simple_types@U?$pair@$$CBHU_BUILDABLE_STRUCTURE@@@std@@@std@@@std@@@std@@@std@@@std@@YAXPAV?$_List_unchecked_iterator@V?$_List_val@U?$_List_simple_types@U?$pair@$$CBHU_BUILDABLE_STRUCTURE@@@std@@@std@@@std@@@0@0AAV?$allocator@V?$_List_unchecked_iterator@V?$_List_val@U?$_List_simple_types@U?$pair@$$CBHU_BUILDABLE_STRUCTURE@@@std@@@std@@@std@@@std@@@0@U?$integral_constant@_N$00@0@@Z
	??$_Destroy_range1@V?$allocator@V?$_List_unchecked_iterator@V?$_List_val@U?$_List_simple_types@U?$pair@$$CBHU_DROPPED_MARINE_ITEM@@@std@@@std@@@std@@@std@@@std@@@std@@YAXPAV?$_List_unchecked_iterator@V?$_List_val@U?$_List_simple_types@U?$pair@$$CBHU_DROPPED_MARINE_ITEM@@@std@@@std@@@std@@@0@0AAV?$allocator@V?$_List_unchecked_iterator@V?$_List_val@U?$_List_simple_types@U?$pair@$$CBHU_DROPPED_MARINE_ITEM@@@std@@@std@@@std@@@std@@@0@U?$integral_constant@_N$00@0@@Z
	??$_Destroy_range1@V?$allocator@V?$_List_unchecked_iterator@V?$_List_val@U?$_List_simple_types@U?$pair@$$CBV?$basic_string@DU?$char_traits@D@std@@V?$allocator@D@2@@std@@U_BOT_SKILL@@@std@@@std@@@std@@@std@@@std@@@std@@YAXPAV?$_List_unchecked_iterator@V?$_List_val@U?$_List_simple_types@U?$pair@$$CBV?$basic_string@DU?$char_traits@D@std@@V?$allocator@D@2@@std@@U_BOT_SKILL@@@std@@@std@@@std@@@0@0AAV?$allocator@V?$_List_unchecked_iterator@V?$_List_val@U?$_List_simple_types@U?$pair@$$CBV?$basic_string@DU?$char_traits@D@std@@V?$allocator@D@2@@std@@U_BOT_SKILL@@@std@@@std@@@std@@@std@@@0@U?$integral_constant@_N$00@0@@Z
	??$_Destroy_range1@V?$allocator@V?$_List_unchecked_iterator@V?$_List_val@U?$_List_simple_types@U?$pair@$$CBV?$basic_string@DU?$char_traits@D@std@@V?$allocator@D@2@@std@@U_TEAMSIZEDEFINITIONS@@@std@@@std@@@std@@@std@@@std@@@std@@YAXPAV?$_List_unchecked_iterator@V?$_List_val@U?$_List_simple_types@U?$pair@$$CBV?$basic_string@DU?$char_traits@D@std@@V?$allocator@D@2@@std@@U_TEAMSIZEDEFINITIONS@@@std@@@std@@@std@@@0@0AAV?$allocator@V?$_List_unchecked_iterator@V?$_List_val@U?$_List_simple_types@U?$pair@$$CBV?$basic_string@DU?$char_traits@D@std@@V?$allocator@D@2@@std@@U_TEAMSIZEDEFINITIONS@@@std@@@std@@@std@@@std@@@0@U?$integral_constant@_N$00@0@@Z
	??$_Destroy_range1@V?$allocator@W4HiveTechStatus@@@std@@@std@@YAXPAW4HiveTechStatus@@0AAV?$allocator@W4HiveTechStatus@@@0@U?$integral_constant@_N$00@0@@Z
	??$_Destroy_range@V?$allocator@V?$_List_unchecked_iterator@V?$_List_val@U?$_List_simple_types@U?$pair@$$CBHU_BUILDABLE_STRUCTURE@@@std@@@std@@@std@@@std@@@std@@@std@@YAXPAV?$_List_unchecked_iterator@V?$_List_val@U?$_List_simple_types@U?$pair@$$CBHU_BUILDABLE_STRUCTURE@@@std@@@std@@@std@@@0@0AAV?$allocator@V?$_List_unchecked_iterator@V?$_List_val@U?$_List_simple_types@U?$pair@$$CBHU_BUILDABLE_STRUCTURE@@@std@@@std@@@std@@@std@@@0@@Z
	??$_Destroy_range@V?$allocator@V?$_List_unchecked_iterator@V?$_List_val@U?$_List_simple_types@U?$pair@$$CBHU_DROPPED_MARINE_ITEM@@@std@@@std@@@std@@@std@@@std@@@std@@YAXPAV?$_List_unchecked_iterator@V?$_List_val@U?$_List_simple_types@U?$pair@$$CBHU_DROPPED_MARINE_ITEM@@@std@@@std@@@std@@@0@0AAV?$allocator@V?$_List_unchecked_iterator@V?$_List_val@U?$_List_simple_types@U?$pair@$$CBHU_DROPPED_MARINE_ITEM@@@std@@@std@@@std@@@std@@@0@@Z
	??$_Destroy_range@V?$allocator@V?$_List_unchecked_iterator@V?$_List_val@U?$_List_simple_types@U?$pair@$$CBV?$basic_string@DU?$char_traits@D@std@@V?$allocator@D@2@@std@@U_BOT_SKILL@@@std@@@std@@@std@@@std@@@std@@@std@@YAXPAV?$_List_unchecked_iterator@V?$_List_val@U?$_List_simple_types@U?$pair@$$CBV?$basic_string@DU?$char_traits@D@std@@V?$allocator@D@2@@std@@U_BOT_SKILL@@@std@@@std@@@std@@@0@0AAV?$allocator@V?$_List_unchecked_iterator@V?$_List_val@U?$_List_simple_types@U?$pair@$$CBV?$basic_string@DU?$char_traits@D@std@@V?$allocator@D@2@@std@@U_BOT_SKILL@@@std@@@std@@@std@@@std@@@0@@Z
	??$_Destroy_range@V?$allocator@V?$_List_unchecked_iterator@V?$_List_val@U?$_List_simple_types@U?$pair@$$CBV?$basic_string@DU?$char_traits@D@std@@V?$allocator@D@2@@std@@U_TEAMSIZEDEFINITIONS@@@std@@@std@@@std@@@std@@@std@@@std@@YAXPAV?$_List_unchecked_iterator@V?$_List_val@U?$_List_simple_types@U?$pair@$$CBV?$basic_string@DU?$char_traits@D@std@@V?$allocator@D@2@@std@@U_TEAMSIZEDEFINITIONS@@@std@@@std@@@std@@@0@0AAV?$allocator@V?$_List_unchecked_iterator@V?$_List_val@U?$_List_simple_types@U?$pair@$$CBV?$basic_string@DU?$char_traits@D@std@@V?$allocator@D@2@@std@@U_TEAMSIZEDEFINITIONS@@@std@@@std@@@std@@@std@@@0@@Z
	??$_Destroy_range@V?$allocator@W4HiveTechStatus@@@std@@@std@@YAXPAW4HiveTechStatus@@0AAV?$allocator@W4HiveTechStatus@@@0@@Z
	??$_Distance1@PBW4HiveTechStatus@@@std@@YAHPBW4HiveTechStatus@@0Urandom_access_iterator_tag@0@@Z
	??$_Emplace_back@ABV?$_List_unchecked_iterator@V?$_List_val@U?$_List_simple_types@U?$pair@$$CBHU_BUILDABLE_STRUCTURE@@@std@@@std@@@std@@@std@@@?$_Uninitialized_backout_al@PAV?$_List_unchecked_iterator@V?$_List_val@U?$_List_simple_types@U?$pair@$$CBHU_BUILDABLE_STRUCTURE@@@std@@@std@@@std@@@std@@V?$allocator@V?$_List_unchecked_iterator@V?$_List_val@U?$_List_simple_types@U?$pair@$$CBHU_BUILDABLE_STRUCTURE@@@std@@@std@@@std@@@std@@@2@@std@@QAEXABV?$_List_unchecked_iterator@V?$_List_val@U?$_List_simple_types@U?$pair@$$CBHU_BUILDABLE_STRUCTURE@@@std@@@std@@@std@@@1@@Z
	??$_Emplace_back@ABV?$_List_unchecked_iterator@V?$_List_val@U?$_List_simple_types@U?$pair@$$CBHU_DROPPED_MARINE_ITEM@@@std@@@std@@@std@@@std@@@?$_Uninitialized_backout_al@PAV?$_List_unchecked_iterator@V?$_List_val@U?$_List_simple_types@U?$pair@$$CBHU_DROPPED_MARINE_ITEM@@@std@@@std@@@std@@@std@@V?$allocator@V?$_List_unchecked_iterator@V?$_List_val@U?$_List_simple_types@U?$pair@$$CBHU_DROPPED_MARINE_ITEM@@@std@@@std@@@std@@@std@@@2@@std@@QAEXABV?$_List_unchecked_iterator@V?$_List_val@U?$_List_simple_types@U?$pair@$$CBHU_DROPPED_MARINE_ITEM@@@std@@@std@@@std@@@1@@Z
	??$_Emplace_back@ABV?$_List_unchecked_iterator@V?$_List_val@U?$_List_simple_types@U?$pair@$$CBV?$basic_string@DU?$char_traits@D@std@@V?$allocator@D@2@@std@@U_BOT_SKILL@@@std@@@std@@@std@@@std@@@?$_Uninitialized_backout_al@PAV?$_List_unchecked_iterator@V?$_List_val@U?$_List_simple_types@U?$pair@$$CBV?$basic_string@DU?$char_traits@D@std@@V?$allocator@D@2@@std@@U_BOT_SKILL@@@std@@@std@@@std@@@std@@V?$allocator@V?$_List_unchecked_iterator@V?$_List_val@U?$_List_simple_types@U?$pair@$$CBV?$basic_string@DU?$char_traits@D@std@@V?$allocator@D@2@@std@@U_BOT_SKILL@@@std@@@std@@@std@@@std@@@2@@std@@QAEXABV?$_List_unchecked_iterator@V?$_List_val@U?$_List_simple_types@U?$pair@$$CBV?$basic_string@DU?$char_traits@D@std@@V?$allocator@D@2@@std@@U_BOT_SKILL@@@std@@@std@@@std@@@1@@Z
	??$_Emplace_back@ABV?$_List_unchecked_iterator@V?$_List_val@U?$_List_simple_types@U?$pair@$$CBV?$basic_string@DU?$char_traits@D@std@@V?$allocator@D@2@@std@@U_TEAMSIZEDEFINITIONS@@@std@@@std@@@std@@@std@@@?$_Uninitialized_backout_al@PAV?$_List_unchecked_iterator@V?$_List_val@U?$_List_simple_types@U?$pair@$$CBV?$basic_string@DU?$char_traits@D@std@@V?$allocator@D@2@@std@@U_TEAMSIZEDEFINITIONS@@@std@@@std@@@std@@@std@@V?$allocator@V?$_List_unchecked_iterator@V?$_List_val@U?$_List_simple_types@U?$pair@$$CBV?$basic_string@DU?$char_traits@D@std@@V?$allocator@D@2@@std@@U_TEAMSIZEDEFINITIONS@@@std@@@std@@@std@@@std@@@2@@std@@QAEXABV?$_List_unchecked_iterator@V?$_List_val@U?$_List_simple_types@U?$pair@$$CBV?$basic_string@DU?$char_traits@D@std@@V?$allocator@D@2@@std@@U_TEAMSIZEDEFINITIONS@@@std@@@std@@@std@@@1@@Z
	??$_Emplace_back@V?$_List_unchecked_iterator@V?$_List_val@U?$_List_simple_types@U?$pair@$$CBHU_BUILDABLE_STRUCTURE@@@std@@@std@@@std@@@std@@@?$_Uninitialized_backout_al@PAV?$_List_unchecked_iterator@V?$_List_val@U?$_List_simple_types@U?$pair@$$CBHU_BUILDABLE_STRUCTURE@@@std@@@std@@@std@@@std@@V?$allocator@V?$_List_unchecked_iterator@V?$_List_val@U?$_List_simple_types@U?$pair@$$CBHU_BUILDABLE_STRUCTURE@@@std@@@std@@@std@@@std@@@2@@std@@QAEX$$QAV?$_List_unchecked_iterator@V?$_List_val@U?$_List_simple_types@U?$pair@$$CBHU_BUILDABLE_STRUCTURE@@@std@@@std@@@std@@@1@@Z
	??$_Emplace_back@V?$_List_unchecked_iterator@V?$_List_val@U?$_List_simple_types@U?$pair@$$CBHU_DROPPED_MARINE_ITEM@@@std@@@std@@@std@@@std@@@?$_Uninitialized_backout_al@PAV?$_List_unchecked_iterator@V?$_List_val@U?$_List_simple_types@U?$pair@$$CBHU_DROPPED_MARINE_ITEM@@@std@@@std@@@std@@@std@@V?$allocator@V?$_List_unchecked_iterator@V?$_List_val@U?$_List_simple_types@U?$pair@$$CBHU_DROPPED_MARINE_ITEM@@@std@@@std@@@std@@@std@@@2@@std@@QAEX$$QAV?$_List_unchecked_iterator@V?$_List_val@U?$_List_simple_types@U?$pair@$$CBHU_DROPPED_MARINE_ITEM@@@std@@@std@@@std@@@1@@Z
	??$_Emplace_back@V?$_List_unchecked_iterator@V?$_List_val@U?$_List_simple_types@U?$pair@$$CBV?$basic_string@DU?$char_traits@D@std@@V?$allocator@D@2@@std@@U_BOT_SKILL@@@std@@@std@@@std@@@std@@@?$_Uninitialized_backout_al@PAV?$_List_unchecked_iterator@V?$_List_val@U?$_List_simple_types@U?$pair@$$CBV?$basic_string@DU?$char_traits@D@std@@V?$allocator@D@2@@std@@U_BOT_SKILL@@@std@@@std@@@std@@@std@@V?$allocator@V?$_List_unchecked_iterator@V?$_List_val@U?$_List_simple_types@U?$pair@$$CBV?$basic_string@DU?$char_traits@D@std@@V?$allocator@D@2@@std@@U_BOT_SKILL@@@std@@@std@@@std@@@std@@@2@@std@@QAEX$$QAV?$_List_unchecked_iterator@V?$_List_val@U?$_List_simple_types@U?$pair@$$CBV?$basic_string@DU?$char_traits@D@std@@V?$allocator@D@2@@std@@U_BOT_SKILL@@@std@@@std@@@std@@@1@@Z
	??$_Emplace_back@V?$_List_unchecked_iterator@V?$_List_val@U?$_List_simple_types@U?$pair@$$CBV?$basic_string@DU?$char_traits@D@std@@V?$allocator@D@2@@std@@U_TEAMSIZEDEFINITIONS@@@std@@@std@@@std@@@std@@@?$_Uninitialized_backout_al@PAV?$_List_unchecked_iterator@V?$_List_val@U?$_List_simple_types@U?$pair@$$CBV?$basic_string@DU?$char_traits@D@std@@V?$allocator@D@2@@std@@U_TEAMSIZEDEFINITIONS@@@std@@@std@@@std@@@std@@V?$allocator@V?$_List_unchecked_iterator@V?$_List_val@U?$_List_simple_types@U?$pair@$$CBV?$basic_string@DU?$char_traits@D@std@@V?$allocator@D@2@@std@@U_TEAMSIZEDEFINITIONS@@@std@@@std@@@std@@@std@@@2@@std@@QAEX$$QAV?$_List_unchecked_iterator@V?$_List_val@U?$_List_simple_types@U?$pair@$$CBV?$basic_string@DU?$char_traits@D@std@@V?$allocator@D@2@@std@@U_TEAMSIZEDEFINITIONS@@@std@@@std@@@std@@@1@@Z
	??$_Fgetc@D@std@@YA_NAADPAU_iobuf@@@Z
	??$_Fill_memset_is_safe@PAV?$_List_unchecked_iterator@V?$_List_val@U?$_List_simple_types@U?$pair@$$CBHU_BUILDABLE_STRUCTURE@@@std@@@std@@@std@@@std@@V12@@std@@YA?AU?$integral_constant@_N$0A@@0@ABQAV?$_List_unchecked_iterator@V?$_List_val@U?$_List_simple_types@U?$pair@$$CBHU_BUILDABLE_STRUCTURE@@@std@@@std@@@std@@@0@ABV20@@Z
	??$_Fill_memset_is_safe@PAV?$_List_unchecked_iterator@V?$_List_val@U?$_List_simple_types@U?$pair@$$CBHU_DROPPED_MARINE_ITEM@@@std@@@std@@@std@@@std@@V12@@std@@YA?AU?$integral_constant@_N$0A@@0@ABQAV?$_List_unchecked_iterator@V?$_List_val@U?$_List_simple_types@U?$pair@$$CBHU_DROPPED_MARINE_ITEM@@@std@@@std@@@std@@@0@ABV20@@Z
	??$_Fill_memset_is_safe@PAV?$_List_unchecked_iterator@V?$_List_val@U?$_List_simple_types@U?$pair@$$CBV?$basic_string@DU?$char_traits@D@std@@V?$allocator@D@2@@std@@U_BOT_SKILL@@@std@@@std@@@std@@@std@@V12@@std@@YA?AU?$integral_constant@_N$0A@@0@ABQAV?$_List_unchecked_iterator@V?$_List_val@U?$_List_simple_types@U?$pair@$$CBV?$basic_string@DU?$char_traits@D@std@@V?$allocator@D@2@@std@@U_BOT_SKILL@@@std@@@std@@@std@@@0@ABV20@@Z
	??$_Fill_memset_is_safe@PAV?$_List_unchecked_iterator@V?$_List_val@U?$_List_simple_types@U?$pair@$$CBV?$basic_string@DU?$char_traits@D@std@@V?$allocator@D@2@@std@@U_TEAMSIZEDEFINITIONS@@@std@@@std@@@std@@@std@@V12@@std@@YA?AU?$integral_constant@_N$0A@@0@ABQAV?$_List_unchecked_iterator@V?$_List_val@U?$_List_simple_types@U?$pair@$$CBV?$basic_string@DU?$char_traits@D@std@@V?$allocator@D@2@@std@@U_TEAMSIZEDEFINITIONS@@@std@@@std@@@std@@@0@ABV20@@Z
	??$_Fill_unchecked1@PAV?$_List_unchecked_iterator@V?$_List_val@U?$_List_simple_types@U?$pair@$$CBHU_BUILDABLE_STRUCTURE@@@std@@@std@@@std@@@std@@V12@@std@@YAXPAV?$_List_unchecked_iterator@V?$_List_val@U?$_List_simple_types@U?$pair@$$CBHU_BUILDABLE_STRUCTURE@@@std@@@std@@@std@@@0@0ABV10@U?$integral_constant@_N$0A@@0@@Z
	??$_Fill_unchecked1@PAV?$_List_unchecked_iterator@V?$_List_val@U?$_List_simple_types@U?$pair@$$CBHU_DROPPED_MARINE_ITEM@@@std@@@std@@@std@@@std@@V12@@std@@YAXPAV?$_List_unchecked_iterator@V?$_List_val@U?$_List_simple_types@U?$pair@$$CBHU_DROPPED_MARINE_ITEM@@@std@@@std@@@std@@@0@0ABV10@U?$integral_constant@_N$0A@@0@@Z
	??$_Fill_unchecked1@PAV?$_List_unchecked_iterator@V?$_List_val@U?$_List_simple_types@U?$pair@$$CBV?$basic_string@DU?$char_traits@D@std@@V?$allocator@D@2@@std@@U_BOT_SKILL@@@std@@@std@@@std@@@std@@V12@@std@@YAXPAV?$_List_unchecked_iterator@V?$_List_val@U?$_List_simple_types@U?$pair@$$CBV?$basic_string@DU?$char_traits@D@std@@V?$allocator@D@2@@std@@U_BOT_SKILL@@@std@@@std@@@std@@@0@0ABV10@U?$integral_constant@_N$0A@@0@@Z
	??$_Fill_unchecked1@PAV?$_List_unchecked_iterator@V?$_List_val@U?$_List_simple_types@U?$pair@$$CBV?$basic_string@DU?$char_traits@D@std@@V?$allocator@D@2@@std@@U_TEAMSIZEDEFINITIONS@@@std@@@std@@@std@@@std@@V12@@std@@YAXPAV?$_List_unchecked_iterator@V?$_List_val@U?$_List_simple_types@U?$pair@$$CBV?$basic_string@DU?$char_traits@D@std@@V?$allocator@D@2@@std@@U_TEAMSIZEDEFINITIONS@@@std@@@std@@@std@@@0@0ABV10@U?$integral_constant@_N$0A@@0@@Z
	??$_Fill_unchecked@PAV?$_List_unchecked_iterator@V?$_List_val@U?$_List_simple_types@U?$pair@$$CBHU_BUILDABLE_STRUCTURE@@@std@@@std@@@std@@@std@@V12@@std@@YAXPAV?$_List_unchecked_iterator@V?$_List_val@U?$_List_simple_types@U?$pair@$$CBHU_BUILDABLE_STRUCTURE@@@std@@@std@@@std@@@0@0ABV10@@Z
	??$_Fill_unchecked@PAV?$_List_unchecked_iterator@V?$_List_val@U?$_List_simple_types@U?$pair@$$CBHU_DROPPED_MARINE_ITEM@@@std@@@std@@@std@@@std@@V12@@std@@YAXPAV?$_List_unchecked_iterator@V?$_List_val@U?$_List_simple_types@U?$pair@$$CBHU_DROPPED_MARINE_ITEM@@@std@@@std@@@std@@@0@0ABV10@@Z
	??$_Fill_unchecked@PAV?$_List_unchecked_iterator@V?$_List_val@U?$_List_simple_types@U?$pair@$$CBV?$basic_string@DU?$char_traits@D@std@@V?$allocator@D@2@@std@@U_BOT_SKILL@@@std@@@std@@@std@@@std@@V12@@std@@YAXPAV?$_List_unchecked_iterator@V?$_List_val@U?$_List_simple_types@U?$pair@$$CBV?$basic_string@DU?$char_traits@D@std@@V?$allocator@D@2@@std@@U_BOT_SKILL@@@std@@@std@@@std@@@0@0ABV10@@Z
	??$_Fill_unchecked@PAV?$_List_unchecked_iterator@V?$_List_val@U?$_List_simple_types@U?$pair@$$CBV?$basic_string@DU?$char_traits@D@std@@V?$allocator@D@2@@std@@U_TEAMSIZEDEFINITIONS@@@std@@@std@@@std@@@std@@V12@@std@@YAXPAV?$_List_unchecked_iterator@V?$_List_val@U?$_List_simple_types@U?$pair@$$CBV?$basic_string@DU?$char_traits@D@std@@V?$allocator@D@2@@std@@U_TEAMSIZEDEFINITIONS@@@std@@@std@@@std@@@0@0ABV10@@Z
	??$_Find_unchecked1@PAW4HiveTechStatus@@W41@@std@@YAPAW4HiveTechStatus@@PAW41@QAW41@ABW41@U?$integral_constant@_N$0A@@0@@Z
	??$_Find_unchecked@PAW4HiveTechStatus@@W41@@std@@YAPAW4HiveTechStatus@@QAW41@0ABW41@@Z
	??$_Fnv1a_append_value@H@std@@YAIIABH@Z
	??$_Fputc@D@std@@YA_NDPAU_iobuf@@@Z
	??$_Freenode0@V?$allocator@U?$_List_node@U?$pair@$$CBHU_BUILDABLE_STRUCTURE@@@std@@PAX@std@@@std@@@?$_List_node@U?$pair@$$CBHU_BUILDABLE_STRUCTURE@@@std@@PAX@std@@SAXAAV?$allocator@U?$_List_node@U?$pair@$$CBHU_BUILDABLE_STRUCTURE@@@std@@PAX@std@@@1@PAU01@@Z
	??$_Freenode0@V?$allocator@U?$_List_node@U?$pair@$$CBHU_DROPPED_MARINE_ITEM@@@std@@PAX@std@@@std@@@?$_List_node@U?$pair@$$CBHU_DROPPED_MARINE_ITEM@@@std@@PAX@std@@SAXAAV?$allocator@U?$_List_node@U?$pair@$$CBHU_DROPPED_MARINE_ITEM@@@std@@PAX@std@@@1@PAU01@@Z
	??$_Freenode0@V?$allocator@U?$_List_node@U?$pair@$$CBV?$basic_string@DU?$char_traits@D@std@@V?$allocator@D@2@@std@@U_BOT_SKILL@@@std@@PAX@std@@@std@@@?$_List_node@U?$pair@$$CBV?$basic_string@DU?$char_traits@D@std@@V?$allocator@D@2@@std@@U_BOT_SKILL@@@std@@PAX@std@@SAXAAV?$allocator@U?$_List_node@U?$pair@$$CBV?$basic_string@DU?$char_traits@D@std@@V?$allocator@D@2@@std@@U_BOT_SKILL@@@std@@PAX@std@@@1@PAU01@@Z
	??$_Freenode0@V?$allocator@U?$_List_node@U?$pair@$$CBV?$basic_string@DU?$char_traits@D@std@@V?$allocator@D@2@@std@@U_TEAMSIZEDEFINITIONS@@@std@@PAX@std@@@std@@@?$_List_node@U?$pair@$$CBV?$basic_string@DU?$char_traits@D@std@@V?$allocator@D@2@@std@@U_TEAMSIZEDEFINITIONS@@@std@@PAX@std@@SAXAAV?$allocator@U?$_List_node@U?$pair@$$CBV?$basic_string@DU?$char_traits@D@std@@V?$allocator@D@2@@std@@U_TEAMSIZEDEFINITIONS@@@std@@PAX@std@@@1@PAU01@@Z
	??$_Get_size_of_n@$00@std@@YAII@Z
	??$_Get_size_of_n@$03@std@@YAII@Z
	??$_Get_size_of_n@$07@std@@YAII@Z
	??$_Get_size_of_n@$0CI@@std@@YAII@Z
	??$_Get_size_of_n@$0CM@@std@@YAII@Z
	??$_Get_size_of_n@$0EE@@std@@YAII@Z
	??$_Get_size_of_n@$0HE@@std@@YAII@Z
	??$_Get_unwrapped@$$CBW4HiveTechStatus@@@std@@YAPBW4HiveTechStatus@@QBW41@@Z
	??$_Get_unwrapped@D@std@@YAPADQAD@Z
	??$_Get_unwrapped@V?$_List_unchecked_iterator@V?$_List_val@U?$_List_simple_types@U?$pair@$$CBHU_BUILDABLE_STRUCTURE@@@std@@@std@@@std@@@std@@@std@@YAPAV?$_List_unchecked_iterator@V?$_List_val@U?$_List_simple_types@U?$pair@$$CBHU_BUILDABLE_STRUCTURE@@@std@@@std@@@std@@@0@QAV10@@Z
	??$_Get_unwrapped@V?$_List_unchecked_iterator@V?$_List_val@U?$_List_simple_types@U?$pair@$$CBHU_DROPPED_MARINE_ITEM@@@std@@@std@@@std@@@std@@@std@@YAPAV?$_List_unchecked_iterator@V?$_List_val@U?$_List_simple_types@U?$pair@$$CBHU_DROPPED_MARINE_ITEM@@@std@@@std@@@std@@@0@QAV10@@Z
	??$_Get_unwrapped@V?$_List_unchecked_iterator@V?$_List_val@U?$_List_simple_types@U?$pair@$$CBV?$basic_string@DU?$char_traits@D@std@@V?$allocator@D@2@@std@@U_BOT_SKILL@@@std@@@std@@@std@@@std@@@std@@YAPAV?$_List_unchecked_iterator@V?$_List_val@U?$_List_simple_types@U?$pair@$$CBV?$basic_string@DU?$char_traits@D@std@@V?$allocator@D@2@@std@@U_BOT_SKILL@@@std@@@std@@@std@@@0@QAV10@@Z
	??$_Get_unwrapped@V?$_List_unchecked_iterator@V?$_List_val@U?$_List_simple_types@U?$pair@$$CBV?$basic_string@DU?$char_traits@D@std@@V?$allocator@D@2@@std@@U_TEAMSIZEDEFINITIONS@@@std@@@std@@@std@@@std@@@std@@YAPAV?$_List_unchecked_iterator@V?$_List_val@U?$_List_simple_types@U?$pair@$$CBV?$basic_string@DU?$char_traits@D@std@@V?$allocator@D@2@@std@@U_TEAMSIZEDEFINITIONS@@@std@@@std@@@std@@@0@QAV10@@Z
	??$_Get_unwrapped@V?$_String_iterator@V?$_String_val@U?$_Simple_types@D@std@@@std@@@std@@$0A@@std@@YAPADABV?$_String_iterator@V?$_String_val@U?$_Simple_types@D@std@@@std@@@0@@Z
	??$_Get_unwrapped@V?$_Vector_iterator@V?$_Vector_val@U?$_Simple_types@W4HiveTechStatus@@@std@@@std@@@std@@$0A@@std@@YAPAW4HiveTechStatus@@ABV?$_Vector_iterator@V?$_Vector_val@U?$_Simple_types@W4HiveTechStatus@@@std@@@std@@@0@@Z
	??$_Get_unwrapped_n@V?$_List_unchecked_iterator@V?$_List_val@U?$_List_simple_types@U?$pair@$$CBHU_BUILDABLE_STRUCTURE@@@std@@@std@@@std@@@std@@H$0A@@std@@YAPAV?$_List_unchecked_iterator@V?$_List_val@U?$_List_simple_types@U?$pair@$$CBHU_BUILDABLE_STRUCTURE@@@std@@@std@@@std@@@0@QAV10@H@Z
	??$_Get_unwrapped_n@V?$_List_unchecked_iterator@V?$_List_val@U?$_List_simple_types@U?$pair@$$CBHU_DROPPED_MARINE_ITEM@@@std@@@std@@@std@@@std@@H$0A@@std@@YAPAV?$_List_unchecked_iterator@V?$_List_val@U?$_List_simple_types@U?$pair@$$CBHU_DROPPED_MARINE_ITEM@@@std@@@std@@@std@@@0@QAV10@H@Z
	??$_Get_unwrapped_n@V?$_List_unchecked_iterator@V?$_List_val@U?$_List_simple_types@U?$pair@$$CBV?$basic_string@DU?$char_traits@D@std@@V?$allocator@D@2@@std@@U_BOT_SKILL@@@std@@@std@@@std@@@std@@H$0A@@std@@YAPAV?$_List_unchecked_iterator@V?$_List_val@U?$_List_simple_types@U?$pair@$$CBV?$basic_string@DU?$char_traits@D@std@@V?$allocator@D@2@@std@@U_BOT_SKILL@@@std@@@std@@@std@@@0@QAV10@H@Z
	??$_Get_unwrapped_n@V?$_List_unchecked_iterator@V?$_List_val@U?$_List_simple_types@U?$pair@$$CBV?$basic_string@DU?$char_traits@D@std@@V?$allocator@D@2@@std@@U_TEAMSIZEDEFINITIONS@@@std@@@std@@@std@@@std@@H$0A@@std@@YAPAV?$_List_unchecked_iterator@V?$_List_val@U?$_List_simple_types@U?$pair@$$CBV?$basic_string@DU?$char_traits@D@std@@V?$allocator@D@2@@std@@U_TEAMSIZEDEFINITIONS@@@std@@@std@@@std@@@0@QAV10@H@Z
	??$_Get_unwrapped_n@W4HiveTechStatus@@H$0A@@std@@YAPAW4HiveTechStatus@@QAW41@H@Z
	??$_Hash_array_representation@D@std@@YAIQBDI@Z
	??$_Hash_representation@H@std@@YAIABH@Z
	??$_Idl_distance1@PAV?$_List_unchecked_iterator@V?$_List_val@U?$_List_simple_types@U?$pair@$$CBHU_BUILDABLE_STRUCTURE@@@std@@@std@@@std@@@std@@PAV12@@std@@YAHABQAV?$_List_unchecked_iterator@V?$_List_val@U?$_List_simple_types@U?$pair@$$CBHU_BUILDABLE_STRUCTURE@@@std@@@std@@@std@@@0@0Urandom_access_iterator_tag@0@@Z
	??$_Idl_distance1@PAV?$_List_unchecked_iterator@V?$_List_val@U?$_List_simple_types@U?$pair@$$CBHU_DROPPED_MARINE_ITEM@@@std@@@std@@@std@@@std@@PAV12@@std@@YAHABQAV?$_List_unchecked_iterator@V?$_List_val@U?$_List_simple_types@U?$pair@$$CBHU_DROPPED_MARINE_ITEM@@@std@@@std@@@std@@@0@0Urandom_access_iterator_tag@0@@Z
	??$_Idl_distance1@PAV?$_List_unchecked_iterator@V?$_List_val@U?$_List_simple_types@U?$pair@$$CBV?$basic_string@DU?$char_traits@D@std@@V?$allocator@D@2@@std@@U_BOT_SKILL@@@std@@@std@@@std@@@std@@PAV12@@std@@YAHABQAV?$_List_unchecked_iterator@V?$_List_val@U?$_List_simple_types@U?$pair@$$CBV?$basic_string@DU?$char_traits@D@std@@V?$allocator@D@2@@std@@U_BOT_SKILL@@@std@@@std@@@std@@@0@0Urandom_access_iterator_tag@0@@Z
	??$_Idl_distance1@PAV?$_List_unchecked_iterator@V?$_List_val@U?$_List_simple_types@U?$pair@$$CBV?$basic_string@DU?$char_traits@D@std@@V?$allocator@D@2@@std@@U_TEAMSIZEDEFINITIONS@@@std@@@std@@@std@@@std@@PAV12@@std@@YAHABQAV?$_List_unchecked_iterator@V?$_List_val@U?$_List_simple_types@U?$pair@$$CBV?$basic_string@DU?$char_traits@D@std@@V?$allocator@D@2@@std@@U_TEAMSIZEDEFINITIONS@@@std@@@std@@@std@@@0@0Urandom_access_iterator_tag@0@@Z
	??$_Idl_distance1@PBW4HiveTechStatus@@PBW41@@std@@YAHABQBW4HiveTechStatus@@0Urandom_access_iterator_tag@0@@Z
	??$_Idl_distance@PAV?$_List_unchecked_iterator@V?$_List_val@U?$_List_simple_types@U?$pair@$$CBHU_BUILDABLE_STRUCTURE@@@std@@@std@@@std@@@std@@PAV12@@std@@YAHABQAV?$_List_unchecked_iterator@V?$_List_val@U?$_List_simple_types@U?$pair@$$CBHU_BUILDABLE_STRUCTURE@@@std@@@std@@@std@@@0@0@Z
	??$_Idl_distance@PAV?$_List_unchecked_iterator@V?$_List_val@U?$_List_simple_types@U?$pair@$$CBHU_DROPPED_MARINE_ITEM@@@std@@@std@@@std@@@std@@PAV12@@std@@YAHABQAV?$_List_unchecked_iterator@V?$_List_val@U?$_List_simple_types@U?$pair@$$CBHU_DROPPED_MARINE_ITEM@@@std@@@std@@@std@@@0@0@Z
	??$_Idl_distance@PAV?$_List_unchecked_iterator@V?$_List_val@U?$_List_simple_types@U?$pair@$$CBV?$basic_string@DU?$char_traits@D@std@@V?$allocator@D@2@@std@@U_BOT_SKILL@@@std@@@std@@@std@@@std@@PAV12@@std@@YAHABQAV?$_List_unchecked_iterator@V?$_List_val@U?$_List_simple_types@U?$pair@$$CBV?$basic_string@DU?$char_traits@D@std@@V?$allocator@D@2@@std@@U_BOT_SKILL@@@std@@@std@@@std@@@0@0@Z
	??$_Idl_distance@PAV?$_List_unchecked_iterator@V?$_List_val@U?$_List_simple_types@U?$pair@$$CBV?$basic_string@DU?$char_traits@D@std@@V?$allocator@D@2@@std@@U_TEAMSIZEDEFINITIONS@@@std@@@std@@@std@@@std@@PAV12@@std@@YAHABQAV?$_List_unchecked_iterator@V?$_List_val@U?$_List_simple_types@U?$pair@$$CBV?$basic_string@DU?$char_traits@D@std@@V?$allocator@D@2@@std@@U_TEAMSIZEDEFINITIONS@@@std@@@std@@@std@@@0@0@Z
	??$_Idl_distance@PBW4HiveTechStatus@@PBW41@@std@@YAHABQBW4HiveTechStatus@@0@Z
	??$_Insert@AAU?$pair@$$CBHU_BUILDABLE_STRUCTURE@@@std@@V?$_List_unchecked_iterator@V?$_List_val@U?$_List_simple_types@U?$pair@$$CBHU_BUILDABLE_STRUCTURE@@@std@@@std@@@std@@@2@@?$_Hash@V?$_Umap_traits@HU_BUILDABLE_STRUCTURE@@V?$_Uhash_compare@HU?$hash@H@std@@U?$equal_to@H@2@@std@@V?$allocator@U?$pair@$$CBHU_BUILDABLE_STRUCTURE@@@std@@@3@$0A@@std@@@std@@IAE?AU?$pair@V?$_List_iterator@V?$_List_val@U?$_List_simple_types@U?$pair@$$CBHU_BUILDABLE_STRUCTURE@@@std@@@std@@@std@@@std@@_N@1@AAU?$pair@$$CBHU_BUILDABLE_STRUCTURE@@@1@V?$_List_unchecked_iterator@V?$_List_val@U?$_List_simple_types@U?$pair@$$CBHU_BUILDABLE_STRUCTURE@@@std@@@std@@@std@@@1@@Z
	??$_Insert@AAU?$pair@$$CBHU_DROPPED_MARINE_ITEM@@@std@@V?$_List_unchecked_iterator@V?$_List_val@U?$_List_simple_types@U?$pair@$$CBHU_DROPPED_MARINE_ITEM@@@std@@@std@@@std@@@2@@?$_Hash@V?$_Umap_traits@HU_DROPPED_MARINE_ITEM@@V?$_Uhash_compare@HU?$hash@H@std@@U?$equal_to@H@2@@std@@V?$allocator@U?$pair@$$CBHU_DROPPED_MARINE_ITEM@@@std@@@3@$0A@@std@@@std@@IAE?AU?$pair@V?$_List_iterator@V?$_List_val@U?$_List_simple_types@U?$pair@$$CBHU_DROPPED_MARINE_ITEM@@@std@@@std@@@std@@@std@@_N@1@AAU?$pair@$$CBHU_DROPPED_MARINE_ITEM@@@1@V?$_List_unchecked_iterator@V?$_List_val@U?$_List_simple_types@U?$pair@$$CBHU_DROPPED_MARINE_ITEM@@@std@@@std@@@std@@@1@@Z
	??$_Insert@AAU?$pair@$$CBV?$basic_string@DU?$char_traits@D@std@@V?$allocator@D@2@@std@@U_BOT_SKILL@@@std@@V?$_List_unchecked_iterator@V?$_List_val@U?$_List_simple_types@U?$pair@$$CBV?$basic_string@DU?$char_traits@D@std@@V?$allocator@D@2@@std@@U_BOT_SKILL@@@std@@@std@@@std@@@2@@?$_Hash@V?$_Umap_traits@V?$basic_string@DU?$char_traits@D@std@@V?$allocator@D@2@@std@@U_BOT_SKILL@@V?$_Uhash_compare@V?$basic_string@DU?$char_traits@D@std@@V?$allocator@D@2@@std@@U?$hash@V?$basic_string@DU?$char_traits@D@std@@V?$allocator@D@2@@std@@@2@U?$equal_to@V?$basic_string@DU?$char_traits@D@std@@V?$allocator@D@2@@std@@@2@@2@V?$allocator@U?$pair@$$CBV?$basic_string@DU?$char_traits@D@std@@V?$allocator@D@2@@std@@U_BOT_SKILL@@@std@@@2@$0A@@std@@@std@@IAE?AU?$pair@V?$_List_iterator@V?$_List_val@U?$_List_simple_types@U?$pair@$$CBV?$basic_string@DU?$char_traits@D@std@@V?$allocator@D@2@@std@@U_BOT_SKILL@@@std@@@std@@@std@@@std@@_N@1@AAU?$pair@$$CBV?$basic_string@DU?$char_traits@D@std@@V?$allocator@D@2@@std@@U_BOT_SKILL@@@1@V?$_List_unchecked_iterator@V?$_List_val@U?$_List_simple_types@U?$pair@$$CBV?$basic_string@DU?$char_traits@D@std@@V?$allocator@D@2@@std@@U_BOT_SKILL@@@std@@@std@@@std@@@1@@Z
	??$_Insert@AAU?$pair@$$CBV?$basic_string@DU?$char_traits@D@std@@V?$allocator@D@2@@std@@U_TEAMSIZEDEFINITIONS@@@std@@V?$_List_unchecked_iterator@V?$_List_val@U?$_List_simple_types@U?$pair@$$CBV?$basic_string@DU?$char_traits@D@std@@V?$allocator@D@2@@std@@U_TEAMSIZEDEFINITIONS@@@std@@@std@@@std@@@2@@?$_Hash@V?$_Umap_traits@V?$basic_string@DU?$char_traits@D@std@@V?$allocator@D@2@@std@@U_TEAMSIZEDEFINITIONS@@V?$_Uhash_compare@V?$basic_string@DU?$char_traits@D@std@@V?$allocator@D@2@@std@@U?$hash@V?$basic_string@DU?$char_traits@D@std@@V?$allocator@D@2@@std@@@2@U?$equal_to@V?$basic_string@DU?$char_traits@D@std@@V?$allocator@D@2@@std@@@2@@2@V?$allocator@U?$pair@$$CBV?$basic_string@DU?$char_traits@D@std@@V?$allocator@D@2@@std@@U_TEAMSIZEDEFINITIONS@@@std@@@2@$0A@@std@@@std@@IAE?AU?$pair@V?$_List_iterator@V?$_List_val@U?$_List_simple_types@U?$pair@$$CBV?$basic_string@DU?$char_traits@D@std@@V?$allocator@D@2@@std@@U_TEAMSIZEDEFINITIONS@@@std@@@std@@@std@@@std@@_N@1@AAU?$pair@$$CBV?$basic_string@DU?$char_traits@D@std@@V?$allocator@D@2@@std@@U_TEAMSIZEDEFINITIONS@@@1@V?$_List_unchecked_iterator@V?$_List_val@U?$_List_simple_types@U?$pair@$$CBV?$basic_string@DU?$char_traits@D@std@@V?$allocator@D@2@@std@@U_TEAMSIZEDEFINITIONS@@@std@@@std@@@std@@@1@@Z
	??$_Insert@ABUpiecewise_construct_t@std@@V?$tuple@$$QAV?$basic_string@DU?$char_traits@D@std@@V?$allocator@D@2@@std@@@2@V?$tuple@$$V@2@@?$list@U?$pair@$$CBV?$basic_string@DU?$char_traits@D@std@@V?$allocator@D@2@@std@@U_BOT_SKILL@@@std@@V?$allocator@U?$pair@$$CBV?$basic_string@DU?$char_traits@D@std@@V?$allocator@D@2@@std@@U_BOT_SKILL@@@std@@@2@@std@@QAEXV?$_List_unchecked_const_iterator@V?$_List_val@U?$_List_simple_types@U?$pair@$$CBV?$basic_string@DU?$char_traits@D@std@@V?$allocator@D@2@@std@@U_BOT_SKILL@@@std@@@std@@@std@@U_Iterator_base0@2@@1@ABUpiecewise_construct_t@1@$$QAV?$tuple@$$QAV?$basic_string@DU?$char_traits@D@std@@V?$allocator@D@2@@std@@@1@$$QAV?$tuple@$$V@1@@Z
	??$_Insert@ABUpiecewise_construct_t@std@@V?$tuple@$$QAV?$basic_string@DU?$char_traits@D@std@@V?$allocator@D@2@@std@@@2@V?$tuple@$$V@2@@?$list@U?$pair@$$CBV?$basic_string@DU?$char_traits@D@std@@V?$allocator@D@2@@std@@U_TEAMSIZEDEFINITIONS@@@std@@V?$allocator@U?$pair@$$CBV?$basic_string@DU?$char_traits@D@std@@V?$allocator@D@2@@std@@U_TEAMSIZEDEFINITIONS@@@std@@@2@@std@@QAEXV?$_List_unchecked_const_iterator@V?$_List_val@U?$_List_simple_types@U?$pair@$$CBV?$basic_string@DU?$char_traits@D@std@@V?$allocator@D@2@@std@@U_TEAMSIZEDEFINITIONS@@@std@@@std@@@std@@U_Iterator_base0@2@@1@ABUpiecewise_construct_t@1@$$QAV?$tuple@$$QAV?$basic_string@DU?$char_traits@D@std@@V?$allocator@D@2@@std@@@1@$$QAV?$tuple@$$V@1@@Z
	??$_Insert@ABUpiecewise_construct_t@std@@V?$tuple@ABH@2@V?$tuple@$$V@2@@?$list@U?$pair@$$CBHU_BUILDABLE_STRUCTURE@@@std@@V?$allocator@U?$pair@$$CBHU_BUILDABLE_STRUCTURE@@@std@@@2@@std@@QAEXV?$_List_unchecked_const_iterator@V?$_List_val@U?$_List_simple_types@U?$pair@$$CBHU_BUILDABLE_STRUCTURE@@@std@@@std@@@std@@U_Iterator_base0@2@@1@ABUpiecewise_construct_t@1@$$QAV?$tuple@ABH@1@$$QAV?$tuple@$$V@1@@Z
	??$_Insert@ABUpiecewise_construct_t@std@@V?$tuple@ABH@2@V?$tuple@$$V@2@@?$list@U?$pair@$$CBHU_DROPPED_MARINE_ITEM@@@std@@V?$allocator@U?$pair@$$CBHU_DROPPED_MARINE_ITEM@@@std@@@2@@std@@QAEXV?$_List_unchecked_const_iterator@V?$_List_val@U?$_List_simple_types@U?$pair@$$CBHU_DROPPED_MARINE_ITEM@@@std@@@std@@@std@@U_Iterator_base0@2@@1@ABUpiecewise_construct_t@1@$$QAV?$tuple@ABH@1@$$QAV?$tuple@$$V@1@@Z
	??$_Insert@ABUpiecewise_construct_t@std@@V?$tuple@ABV?$basic_string@DU?$char_traits@D@std@@V?$allocator@D@2@@std@@@2@V?$tuple@$$V@2@@?$list@U?$pair@$$CBV?$basic_string@DU?$char_traits@D@std@@V?$allocator@D@2@@std@@U_TEAMSIZEDEFINITIONS@@@std@@V?$allocator@U?$pair@$$CBV?$basic_string@DU?$char_traits@D@std@@V?$allocator@D@2@@std@@U_TEAMSIZEDEFINITIONS@@@std@@@2@@std@@QAEXV?$_List_unchecked_const_iterator@V?$_List_val@U?$_List_simple_types@U?$pair@$$CBV?$basic_string@DU?$char_traits@D@std@@V?$allocator@D@2@@std@@U_TEAMSIZEDEFINITIONS@@@std@@@std@@@std@@U_Iterator_base0@2@@1@ABUpiecewise_construct_t@1@$$QAV?$tuple@ABV?$basic_string@DU?$char_traits@D@std@@V?$allocator@D@2@@std@@@1@$$QAV?$tuple@$$V@1@@Z
	??$_Kfn@$$CBHU_BUILDABLE_STRUCTURE@@@?$_Umap_traits@HU_BUILDABLE_STRUCTURE@@V?$_Uhash_compare@HU?$hash@H@std@@U?$equal_to@H@2@@std@@V?$allocator@U?$pair@$$CBHU_BUILDABLE_STRUCTURE@@@std@@@3@$0A@@std@@SAABHABU?$pair@$$CBHU_BUILDABLE_STRUCTURE@@@1@@Z
	??$_Kfn@$$CBHU_DROPPED_MARINE_ITEM@@@?$_Umap_traits@HU_DROPPED_MARINE_ITEM@@V?$_Uhash_compare@HU?$hash@H@std@@U?$equal_to@H@2@@std@@V?$allocator@U?$pair@$$CBHU_DROPPED_MARINE_ITEM@@@std@@@3@$0A@@std@@SAABHABU?$pair@$$CBHU_DROPPED_MARINE_ITEM@@@1@@Z
	??$_Kfn@$$CBV?$basic_string@DU?$char_traits@D@std@@V?$allocator@D@2@@std@@U_BOT_SKILL@@@?$_Umap_traits@V?$basic_string@DU?$char_traits@D@std@@V?$allocator@D@2@@std@@U_BOT_SKILL@@V?$_Uhash_compare@V?$basic_string@DU?$char_traits@D@std@@V?$allocator@D@2@@std@@U?$hash@V?$basic_string@DU?$char_traits@D@std@@V?$allocator@D@2@@std@@@2@U?$equal_to@V?$basic_string@DU?$char_traits@D@std@@V?$allocator@D@2@@std@@@2@@2@V?$allocator@U?$pair@$$CBV?$basic_string@DU?$char_traits@D@std@@V?$allocator@D@2@@std@@U_BOT_SKILL@@@std@@@2@$0A@@std@@SAABV?$basic_string@DU?$char_traits@D@std@@V?$allocator@D@2@@1@ABU?$pair@$$CBV?$basic_string@DU?$char_traits@D@std@@V?$allocator@D@2@@std@@U_BOT_SKILL@@@1@@Z
	??$_Kfn@$$CBV?$basic_string@DU?$char_traits@D@std@@V?$allocator@D@2@@std@@U_TEAMSIZEDEFINITIONS@@@?$_Umap_traits@V?$basic_string@DU?$char_traits@D@std@@V?$allocator@D@2@@std@@U_TEAMSIZEDEFINITIONS@@V?$_Uhash_compare@V?$basic_string@DU?$char_traits@D@std@@V?$allocator@D@2@@std@@U?$hash@V?$basic_string@DU?$char_traits@D@std@@V?$allocator@D@2@@std@@@2@U?$equal_to@V?$basic_string@DU?$char_traits@D@std@@V?$allocator@D@2@@std@@@2@@2@V?$allocator@U?$pair@$$CBV?$basic_string@DU?$char_traits@D@std@@V?$allocator@D@2@@std@@U_TEAMSIZEDEFINITIONS@@@std@@@2@$0A@@std@@SAABV?$basic_string@DU?$char_traits@D@std@@V?$allocator@D@2@@1@ABU?$pair@$$CBV?$basic_string@DU?$char_traits@D@std@@V?$allocator@D@2@@std@@U_TEAMSIZEDEFINITIONS@@@1@@Z
	??$_Max_value@I@std@@YAABIABI0@Z
	??$_Max_value@PAD@std@@YAABQADABQAD0@Z
	??$_Min_value@I@std@@YAABIABI0@Z
	??$_Move_unchecked1@PAW4HiveTechStatus@@PAW41@@std@@YAPAW4HiveTechStatus@@PAW41@00U_Trivially_copyable_ptr_iterator_tag@0@@Z
	??$_Move_unchecked@PAW4HiveTechStatus@@PAW41@@std@@YAPAW4HiveTechStatus@@PAW41@00@Z
	??$_Pass_fn@P6AHH@Z$0A@@std@@YAP6AHH@ZP6AHH@Z@Z
	??$_Pocca@V?$allocator@D@std@@@std@@YAXAAV?$allocator@D@0@ABV10@@Z
	??$_Pocca@V?$allocator@D@std@@@std@@YAXAAV?$allocator@D@0@ABV10@U?$integral_constant@_N$0A@@0@@Z
	??$_Ptr_copy_cat@$$CBW4HiveTechStatus@@W41@@std@@YA?AU_Really_trivial_ptr_iterator_tag@0@ABQBW4HiveTechStatus@@ABQAW42@@Z
	??$_Ptr_move_cat@V?$_List_unchecked_iterator@V?$_List_val@U?$_List_simple_types@U?$pair@$$CBHU_BUILDABLE_STRUCTURE@@@std@@@std@@@std@@@std@@V12@@std@@YA?AU_Trivially_copyable_ptr_iterator_tag@0@ABQAV?$_List_unchecked_iterator@V?$_List_val@U?$_List_simple_types@U?$pair@$$CBHU_BUILDABLE_STRUCTURE@@@std@@@std@@@std@@@0@0@Z
	??$_Ptr_move_cat@V?$_List_unchecked_iterator@V?$_List_val@U?$_List_simple_types@U?$pair@$$CBHU_DROPPED_MARINE_ITEM@@@std@@@std@@@std@@@std@@V12@@std@@YA?AU_Trivially_copyable_ptr_iterator_tag@0@ABQAV?$_List_unchecked_iterator@V?$_List_val@U?$_List_simple_types@U?$pair@$$CBHU_DROPPED_MARINE_ITEM@@@std@@@std@@@std@@@0@0@Z
	??$_Ptr_move_cat@V?$_List_unchecked_iterator@V?$_List_val@U?$_List_simple_types@U?$pair@$$CBV?$basic_string@DU?$char_traits@D@std@@V?$allocator@D@2@@std@@U_BOT_SKILL@@@std@@@std@@@std@@@std@@V12@@std@@YA?AU_Trivially_copyable_ptr_iterator_tag@0@ABQAV?$_List_unchecked_iterator@V?$_List_val@U?$_List_simple_types@U?$pair@$$CBV?$basic_string@DU?$char_traits@D@std@@V?$allocator@D@2@@std@@U_BOT_SKILL@@@std@@@std@@@std@@@0@0@Z
	??$_Ptr_move_cat@V?$_List_unchecked_iterator@V?$_List_val@U?$_List_simple_types@U?$pair@$$CBV?$basic_string@DU?$char_traits@D@std@@V?$allocator@D@2@@std@@U_TEAMSIZEDEFINITIONS@@@std@@@std@@@std@@@std@@V12@@std@@YA?AU_Trivially_copyable_ptr_iterator_tag@0@ABQAV?$_List_unchecked_iterator@V?$_List_val@U?$_List_simple_types@U?$pair@$$CBV?$basic_string@DU?$char_traits@D@std@@V?$allocator@D@2@@std@@U_TEAMSIZEDEFINITIONS@@@std@@@std@@@std@@@0@0@Z
	??$_Ptr_move_cat@W4HiveTechStatus@@W41@@std@@YA?AU_Really_trivial_ptr_iterator_tag@0@ABQAW4HiveTechStatus@@0@Z
	??$_Range_construct_or_tidy@PBW4HiveTechStatus@@@?$vector@W4HiveTechStatus@@V?$allocator@W4HiveTechStatus@@@std@@@std@@AAEXPBW4HiveTechStatus@@0Uforward_iterator_tag@1@@Z
	??$_Reallocate_for@V<lambda_9366063389c5f42a00a5088cf24e69de>@@PBD@?$basic_string@DU?$char_traits@D@std@@V?$allocator@D@2@@std@@QAEAAV01@IV<lambda_9366063389c5f42a00a5088cf24e69de>@@PBD@Z
	??$_Reallocate_grow_by@V<lambda_15711c68e099a15a58f4d77303cb286d>@@D@?$basic_string@DU?$char_traits@D@std@@V?$allocator@D@2@@std@@QAEAAV01@IV<lambda_15711c68e099a15a58f4d77303cb286d>@@D@Z
	??$_Refancy@PAD$0A@@std@@YAPADPAD@Z
	??$_Seek_wrapped@D@std@@YAXAAPADQAD@Z
	??$_Seek_wrapped@V?$_List_unchecked_iterator@V?$_List_val@U?$_List_simple_types@U?$pair@$$CBHU_BUILDABLE_STRUCTURE@@@std@@@std@@@std@@@std@@@std@@YAXAAPAV?$_List_unchecked_iterator@V?$_List_val@U?$_List_simple_types@U?$pair@$$CBHU_BUILDABLE_STRUCTURE@@@std@@@std@@@std@@@0@QAV10@@Z
	??$_Seek_wrapped@V?$_List_unchecked_iterator@V?$_List_val@U?$_List_simple_types@U?$pair@$$CBHU_DROPPED_MARINE_ITEM@@@std@@@std@@@std@@@std@@@std@@YAXAAPAV?$_List_unchecked_iterator@V?$_List_val@U?$_List_simple_types@U?$pair@$$CBHU_DROPPED_MARINE_ITEM@@@std@@@std@@@std@@@0@QAV10@@Z
	??$_Seek_wrapped@V?$_List_unchecked_iterator@V?$_List_val@U?$_List_simple_types@U?$pair@$$CBV?$basic_string@DU?$char_traits@D@std@@V?$allocator@D@2@@std@@U_BOT_SKILL@@@std@@@std@@@std@@@std@@@std@@YAXAAPAV?$_List_unchecked_iterator@V?$_List_val@U?$_List_simple_types@U?$pair@$$CBV?$basic_string@DU?$char_traits@D@std@@V?$allocator@D@2@@std@@U_BOT_SKILL@@@std@@@std@@@std@@@0@QAV10@@Z
	??$_Seek_wrapped@V?$_List_unchecked_iterator@V?$_List_val@U?$_List_simple_types@U?$pair@$$CBV?$basic_string@DU?$char_traits@D@std@@V?$allocator@D@2@@std@@U_TEAMSIZEDEFINITIONS@@@std@@@std@@@std@@@std@@@std@@YAXAAPAV?$_List_unchecked_iterator@V?$_List_val@U?$_List_simple_types@U?$pair@$$CBV?$basic_string@DU?$char_traits@D@std@@V?$allocator@D@2@@std@@U_TEAMSIZEDEFINITIONS@@@std@@@std@@@std@@@0@QAV10@@Z
	??$_Seek_wrapped@V?$_String_iterator@V?$_String_val@U?$_Simple_types@D@std@@@std@@@std@@PAD$0A@@std@@YAXAAV?$_String_iterator@V?$_String_val@U?$_Simple_types@D@std@@@std@@@0@ABQAD@Z
	??$_Seek_wrapped@V?$_Vector_iterator@V?$_Vector_val@U?$_Simple_types@W4HiveTechStatus@@@std@@@std@@@std@@PAW4HiveTechStatus@@$0A@@std@@YAXAAV?$_Vector_iterator@V?$_Vector_val@U?$_Simple_types@W4HiveTechStatus@@@std@@@std@@@0@ABQAW4HiveTechStatus@@@Z
	??$_Seek_wrapped@W4HiveTechStatus@@@std@@YAXAAPAW4HiveTechStatus@@QAW41@@Z
	??$_Traits_compare@U?$char_traits@D@std@@@std@@YAHQBDI0I@Z
	??$_Traits_equal@U?$char_traits@D@std@@@std@@YA_NQBDI0I@Z
	??$_Traits_find@U?$char_traits@D@std@@@std@@YAIQBDII0I@Z
	??$_Traits_find_first_not_of@U?$char_traits@D@std@@@std@@YAIQBDII0IU?$integral_constant@_N$00@0@@Z
	??$_Traits_find_first_not_of@U?$char_traits@D@std@@@std@@YAIQBDII0IU?$integral_constant@_N$0A@@0@@Z
	??$_Try_emplace@ABH$$V@?$unordered_map@HU_BUILDABLE_STRUCTURE@@U?$hash@H@std@@U?$equal_to@H@3@V?$allocator@U?$pair@$$CBHU_BUILDABLE_STRUCTURE@@@std@@@3@@std@@QAE?AU?$pair@V?$_List_iterator@V?$_List_val@U?$_List_simple_types@U?$pair@$$CBHU_BUILDABLE_STRUCTURE@@@std@@@std@@@std@@@std@@_N@1@ABH@Z
	??$_Try_emplace@ABH$$V@?$unordered_map@HU_DROPPED_MARINE_ITEM@@U?$hash@H@std@@U?$equal_to@H@3@V?$allocator@U?$pair@$$CBHU_DROPPED_MARINE_ITEM@@@std@@@3@@std@@QAE?AU?$pair@V?$_List_iterator@V?$_List_val@U?$_List_simple_types@U?$pair@$$CBHU_DROPPED_MARINE_ITEM@@@std@@@std@@@std@@@std@@_N@1@ABH@Z
	??$_Try_emplace@ABV?$basic_string@DU?$char_traits@D@std@@V?$allocator@D@2@@std@@$$V@?$unordered_map@V?$basic_string@DU?$char_traits@D@std@@V?$allocator@D@2@@std@@U_TEAMSIZEDEFINITIONS@@U?$hash@V?$basic_string@DU?$char_traits@D@std@@V?$allocator@D@2@@std@@@2@U?$equal_to@V?$basic_string@DU?$char_traits@D@std@@V?$allocator@D@2@@std@@@2@V?$allocator@U?$pair@$$CBV?$basic_string@DU?$char_traits@D@std@@V?$allocator@D@2@@std@@U_TEAMSIZEDEFINITIONS@@@std@@@2@@std@@QAE?AU?$pair@V?$_List_iterator@V?$_List_val@U?$_List_simple_types@U?$pair@$$CBV?$basic_string@DU?$char_traits@D@std@@V?$allocator@D@2@@std@@U_TEAMSIZEDEFINITIONS@@@std@@@std@@@std@@@std@@_N@1@ABV?$basic_string@DU?$char_traits@D@std@@V?$allocator@D@2@@1@@Z
	??$_Try_emplace@V?$basic_string@DU?$char_traits@D@std@@V?$allocator@D@2@@std@@$$V@?$unordered_map@V?$basic_string@DU?$char_traits@D@std@@V?$allocator@D@2@@std@@U_BOT_SKILL@@U?$hash@V?$basic_string@DU?$char_traits@D@std@@V?$allocator@D@2@@std@@@2@U?$equal_to@V?$basic_string@DU?$char_traits@D@std@@V?$allocator@D@2@@std@@@2@V?$allocator@U?$pair@$$CBV?$basic_string@DU?$char_traits@D@std@@V?$allocator@D@2@@std@@U_BOT_SKILL@@@std@@@2@@std@@QAE?AU?$pair@V?$_List_iterator@V?$_List_val@U?$_List_simple_types@U?$pair@$$CBV?$basic_string@DU?$char_traits@D@std@@V?$allocator@D@2@@std@@U_BOT_SKILL@@@std@@@std@@@std@@@std@@_N@1@$$QAV?$basic_string@DU?$char_traits@D@std@@V?$allocator@D@2@@1@@Z
	??$_Try_emplace@V?$basic_string@DU?$char_traits@D@std@@V?$allocator@D@2@@std@@$$V@?$unordered_map@V?$basic_string@DU?$char_traits@D@std@@V?$allocator@D@2@@std@@U_TEAMSIZEDEFINITIONS@@U?$hash@V?$basic_string@DU?$char_traits@D@std@@V?$allocator@D@2@@std@@@2@U?$equal_to@V?$basic_string@DU?$char_traits@D@std@@V?$allocator@D@2@@std@@@2@V?$allocator@U?$pair@$$CBV?$basic_string@DU?$char_traits@D@std@@V?$allocator@D@2@@std@@U_TEAMSIZEDEFINITIONS@@@std@@@2@@std@@QAE?AU?$pair@V?$_List_iterator@V?$_List_val@U?$_List_simple_types@U?$pair@$$CBV?$basic_string@DU?$char_traits@D@std@@V?$allocator@D@2@@std@@U_TEAMSIZEDEFINITIONS@@@std@@@std@@@std@@@std@@_N@1@$$QAV?$basic_string@DU?$char_traits@D@std@@V?$allocator@D@2@@1@@Z
	??$_Ucopy@PBW4HiveTechStatus@@@?$vector@W4HiveTechStatus@@V?$allocator@W4HiveTechStatus@@@std@@@std@@AAEPAW4HiveTechStatus@@PBW42@0PAW42@@Z
	??$_Unfancy@$$CBD@std@@YAPBDPBD@Z
	??$_Unfancy@D@std@@YAPADPAD@Z
	??$_Unfancy@U_Container_proxy@std@@@std@@YAPAU_Container_proxy@0@PAU10@@Z
	??$_Unfancy@V?$_List_unchecked_iterator@V?$_List_val@U?$_List_simple_types@U?$pair@$$CBHU_BUILDABLE_STRUCTURE@@@std@@@std@@@std@@@std@@@std@@YAPAV?$_List_unchecked_iterator@V?$_List_val@U?$_List_simple_types@U?$pair@$$CBHU_BUILDABLE_STRUCTURE@@@std@@@std@@@std@@@0@PAV10@@Z
	??$_Unfancy@V?$_List_unchecked_iterator@V?$_List_val@U?$_List_simple_types@U?$pair@$$CBHU_DROPPED_MARINE_ITEM@@@std@@@std@@@std@@@std@@@std@@YAPAV?$_List_unchecked_iterator@V?$_List_val@U?$_List_simple_types@U?$pair@$$CBHU_DROPPED_MARINE_ITEM@@@std@@@std@@@std@@@0@PAV10@@Z
	??$_Unfancy@V?$_List_unchecked_iterator@V?$_List_val@U?$_List_simple_types@U?$pair@$$CBV?$basic_string@DU?$char_traits@D@std@@V?$allocator@D@2@@std@@U_BOT_SKILL@@@std@@@std@@@std@@@std@@@std@@YAPAV?$_List_unchecked_iterator@V?$_List_val@U?$_List_simple_types@U?$pair@$$CBV?$basic_string@DU?$char_traits@D@std@@V?$allocator@D@2@@std@@U_BOT_SKILL@@@std@@@std@@@std@@@0@PAV10@@Z
	??$_Unfancy@V?$_List_unchecked_iterator@V?$_List_val@U?$_List_simple_types@U?$pair@$$CBV?$basic_string@DU?$char_traits@D@std@@V?$allocator@D@2@@std@@U_TEAMSIZEDEFINITIONS@@@std@@@std@@@std@@@std@@@std@@YAPAV?$_List_unchecked_iterator@V?$_List_val@U?$_List_simple_types@U?$pair@$$CBV?$basic_string@DU?$char_traits@D@std@@V?$allocator@D@2@@std@@U_TEAMSIZEDEFINITIONS@@@std@@@std@@@std@@@0@PAV10@@Z
	??$_Ungetc@D@std@@YA_NABDPAU_iobuf@@@Z
	??$_Uninit_alloc_fill_n1@PAV?$_List_unchecked_iterator@V?$_List_val@U?$_List_simple_types@U?$pair@$$CBHU_BUILDABLE_STRUCTURE@@@std@@@std@@@std@@@std@@IV?$allocator@V?$_List_unchecked_iterator@V?$_List_val@U?$_List_simple_types@U?$pair@$$CBHU_BUILDABLE_STRUCTURE@@@std@@@std@@@std@@@std@@@2@@std@@YAPAV?$_List_unchecked_iterator@V?$_List_val@U?$_List_simple_types@U?$pair@$$CBHU_BUILDABLE_STRUCTURE@@@std@@@std@@@std@@@0@QAV10@IABV10@AAV?$allocator@V?$_List_unchecked_iterator@V?$_List_val@U?$_List_simple_types@U?$pair@$$CBHU_BUILDABLE_STRUCTURE@@@std@@@std@@@std@@@std@@@0@U?$integral_constant@_N$0A@@0@@Z
	??$_Uninit_alloc_fill_n1@PAV?$_List_unchecked_iterator@V?$_List_val@U?$_List_simple_types@U?$pair@$$CBHU_DROPPED_MARINE_ITEM@@@std@@@std@@@std@@@std@@IV?$allocator@V?$_List_unchecked_iterator@V?$_List_val@U?$_List_simple_types@U?$pair@$$CBHU_DROPPED_MARINE_ITEM@@@std@@@std@@@std@@@std@@@2@@std@@YAPAV?$_List_unchecked_iterator@V?$_List_val@U?$_List_simple_types@U?$pair@$$CBHU_DROPPED_MARINE_ITEM@@@std@@@std@@@std@@@0@QAV10@IABV10@AAV?$allocator@V?$_List_unchecked_iterator@V?$_List_val@U?$_List_simple_types@U?$pair@$$CBHU_DROPPED_MARINE_ITEM@@@std@@@std@@@std@@@std@@@0@U?$integral_constant@_N$0A@@0@@Z
	??$_Uninit_alloc_fill_n1@PAV?$_List_unchecked_iterator@V?$_List_val@U?$_List_simple_types@U?$pair@$$CBV?$basic_string@DU?$char_traits@D@std@@V?$allocator@D@2@@std@@U_BOT_SKILL@@@std@@@std@@@std@@@std@@IV?$allocator@V?$_List_unchecked_iterator@V?$_List_val@U?$_List_simple_types@U?$pair@$$CBV?$basic_string@DU?$char_traits@D@std@@V?$allocator@D@2@@std@@U_BOT_SKILL@@@std@@@std@@@std@@@std@@@2@@std@@YAPAV?$_List_unchecked_iterator@V?$_List_val@U?$_List_simple_types@U?$pair@$$CBV?$basic_string@DU?$char_traits@D@std@@V?$allocator@D@2@@std@@U_BOT_SKILL@@@std@@@std@@@std@@@0@QAV10@IABV10@AAV?$allocator@V?$_List_unchecked_iterator@V?$_List_val@U?$_List_simple_types@U?$pair@$$CBV?$basic_string@DU?$char_traits@D@std@@V?$allocator@D@2@@std@@U_BOT_SKILL@@@std@@@std@@@std@@@std@@@0@U?$integral_constant@_N$0A@@0@@Z
	??$_Uninit_alloc_fill_n1@PAV?$_List_unchecked_iterator@V?$_List_val@U?$_List_simple_types@U?$pair@$$CBV?$basic_string@DU?$char_traits@D@std@@V?$allocator@D@2@@std@@U_TEAMSIZEDEFINITIONS@@@std@@@std@@@std@@@std@@IV?$allocator@V?$_List_unchecked_iterator@V?$_List_val@U?$_List_simple_types@U?$pair@$$CBV?$basic_string@DU?$char_traits@D@std@@V?$allocator@D@2@@std@@U_TEAMSIZEDEFINITIONS@@@std@@@std@@@std@@@std@@@2@@std@@YAPAV?$_List_unchecked_iterator@V?$_List_val@U?$_List_simple_types@U?$pair@$$CBV?$basic_string@DU?$char_traits@D@std@@V?$allocator@D@2@@std@@U_TEAMSIZEDEFINITIONS@@@std@@@std@@@std@@@0@QAV10@IABV10@AAV?$allocator@V?$_List_unchecked_iterator@V?$_List_val@U?$_List_simple_types@U?$pair@$$CBV?$basic_string@DU?$char_traits@D@std@@V?$allocator@D@2@@std@@U_TEAMSIZEDEFINITIONS@@@std@@@std@@@std@@@std@@@0@U?$integral_constant@_N$0A@@0@@Z
	??$_Uninitialized_copy@PBW4HiveTechStatus@@PAW41@V?$allocator@W4HiveTechStatus@@@std@@@std@@YAPAW4HiveTechStatus@@QBW41@0PAW41@AAV?$allocator@W4HiveTechStatus@@@0@@Z
	??$_Uninitialized_copy_al_unchecked@$$CBW4HiveTechStatus@@W41@V?$allocator@W4HiveTechStatus@@@std@@@std@@YAPAW4HiveTechStatus@@QBW41@0QAW41@AAV?$allocator@W4HiveTechStatus@@@0@U_Really_trivial_ptr_iterator_tag@0@U?$integral_constant@_N$00@0@@Z
	??$_Uninitialized_fill_n@PAV?$_List_unchecked_iterator@V?$_List_val@U?$_List_simple_types@U?$pair@$$CBHU_BUILDABLE_STRUCTURE@@@std@@@std@@@std@@@std@@IV?$allocator@V?$_List_unchecked_iterator@V?$_List_val@U?$_List_simple_types@U?$pair@$$CBHU_BUILDABLE_STRUCTURE@@@std@@@std@@@std@@@std@@@2@@std@@YAPAV?$_List_unchecked_iterator@V?$_List_val@U?$_List_simple_types@U?$pair@$$CBHU_BUILDABLE_STRUCTURE@@@std@@@std@@@std@@@0@QAV10@IABV10@AAV?$allocator@V?$_List_unchecked_iterator@V?$_List_val@U?$_List_simple_types@U?$pair@$$CBHU_BUILDABLE_STRUCTURE@@@std@@@std@@@std@@@std@@@0@@Z
	??$_Uninitialized_fill_n@PAV?$_List_unchecked_iterator@V?$_List_val@U?$_List_simple_types@U?$pair@$$CBHU_DROPPED_MARINE_ITEM@@@std@@@std@@@std@@@std@@IV?$allocator@V?$_List_unchecked_iterator@V?$_List_val@U?$_List_simple_types@U?$pair@$$CBHU_DROPPED_MARINE_ITEM@@@std@@@std@@@std@@@std@@@2@@std@@YAPAV?$_List_unchecked_iterator@V?$_List_val@U?$_List_simple_types@U?$pair@$$CBHU_DROPPED_MARINE_ITEM@@@std@@@std@@@std@@@0@QAV10@IABV10@AAV?$allocator@V?$_List_unchecked_iterator@V?$_List_val@U?$_List_simple_types@U?$pair@$$CBHU_DROPPED_MARINE_ITEM@@@std@@@std@@@std@@@std@@@0@@Z
	??$_Uninitialized_fill_n@PAV?$_List_unchecked_iterator@V?$_List_val@U?$_List_simple_types@U?$pair@$$CBV?$basic_string@DU?$char_traits@D@std@@V?$allocator@D@2@@std@@U_BOT_SKILL@@@std@@@std@@@std@@@std@@IV?$allocator@V?$_List_unchecked_iterator@V?$_List_val@U?$_List_simple_types@U?$pair@$$CBV?$basic_string@DU?$char_traits@D@std@@V?$allocator@D@2@@std@@U_BOT_SKILL@@@std@@@std@@@std@@@std@@@2@@std@@YAPAV?$_List_unchecked_iterator@V?$_List_val@U?$_List_simple_types@U?$pair@$$CBV?$basic_string@DU?$char_traits@D@std@@V?$allocator@D@2@@std@@U_BOT_SKILL@@@std@@@std@@@std@@@0@QAV10@IABV10@AAV?$allocator@V?$_List_unchecked_iterator@V?$_List_val@U?$_List_simple_types@U?$pair@$$CBV?$basic_string@DU?$char_traits@D@std@@V?$allocator@D@2@@std@@U_BOT_SKILL@@@std@@@std@@@std@@@std@@@0@@Z
	??$_Uninitialized_fill_n@PAV?$_List_unchecked_iterator@V?$_List_val@U?$_List_simple_types@U?$pair@$$CBV?$basic_string@DU?$char_traits@D@std@@V?$allocator@D@2@@std@@U_TEAMSIZEDEFINITIONS@@@std@@@std@@@std@@@std@@IV?$allocator@V?$_List_unchecked_iterator@V?$_List_val@U?$_List_simple_types@U?$pair@$$CBV?$basic_string@DU?$char_traits@D@std@@V?$allocator@D@2@@std@@U_TEAMSIZEDEFINITIONS@@@std@@@std@@@std@@@std@@@2@@std@@YAPAV?$_List_unchecked_iterator@V?$_List_val@U?$_List_simple_types@U?$pair@$$CBV?$basic_string@DU?$char_traits@D@std@@V?$allocator@D@2@@std@@U_TEAMSIZEDEFINITIONS@@@std@@@std@@@std@@@0@QAV10@IABV10@AAV?$allocator@V?$_List_unchecked_iterator@V?$_List_val@U?$_List_simple_types@U?$pair@$$CBV?$basic_string@DU?$char_traits@D@std@@V?$allocator@D@2@@std@@U_TEAMSIZEDEFINITIONS@@@std@@@std@@@std@@@std@@@0@@Z
	??$_Uninitialized_move@PAV?$_List_unchecked_iterator@V?$_List_val@U?$_List_simple_types@U?$pair@$$CBHU_BUILDABLE_STRUCTURE@@@std@@@std@@@std@@@std@@PAV12@V?$allocator@V?$_List_unchecked_iterator@V?$_List_val@U?$_List_simple_types@U?$pair@$$CBHU_BUILDABLE_STRUCTURE@@@std@@@std@@@std@@@std@@@2@@std@@YAPAV?$_List_unchecked_iterator@V?$_List_val@U?$_List_simple_types@U?$pair@$$CBHU_BUILDABLE_STRUCTURE@@@std@@@std@@@std@@@0@QAV10@0PAV10@AAV?$allocator@V?$_List_unchecked_iterator@V?$_List_val@U?$_List_simple_types@U?$pair@$$CBHU_BUILDABLE_STRUCTURE@@@std@@@std@@@std@@@std@@@0@@Z
	??$_Uninitialized_move@PAV?$_List_unchecked_iterator@V?$_List_val@U?$_List_simple_types@U?$pair@$$CBHU_DROPPED_MARINE_ITEM@@@std@@@std@@@std@@@std@@PAV12@V?$allocator@V?$_List_unchecked_iterator@V?$_List_val@U?$_List_simple_types@U?$pair@$$CBHU_DROPPED_MARINE_ITEM@@@std@@@std@@@std@@@std@@@2@@std@@YAPAV?$_List_unchecked_iterator@V?$_List_val@U?$_List_simple_types@U?$pair@$$CBHU_DROPPED_MARINE_ITEM@@@std@@@std@@@std@@@0@QAV10@0PAV10@AAV?$allocator@V?$_List_unchecked_iterator@V?$_List_val@U?$_List_simple_types@U?$pair@$$CBHU_DROPPED_MARINE_ITEM@@@std@@@std@@@std@@@std@@@0@@Z
	??$_Uninitialized_move@PAV?$_List_unchecked_iterator@V?$_List_val@U?$_List_simple_types@U?$pair@$$CBV?$basic_string@DU?$char_traits@D@std@@V?$allocator@D@2@@std@@U_BOT_SKILL@@@std@@@std@@@std@@@std@@PAV12@V?$allocator@V?$_List_unchecked_iterator@V?$_List_val@U?$_List_simple_types@U?$pair@$$CBV?$basic_string@DU?$char_traits@D@std@@V?$allocator@D@2@@std@@U_BOT_SKILL@@@std@@@std@@@std@@@std@@@2@@std@@YAPAV?$_List_unchecked_iterator@V?$_List_val@U?$_List_simple_types@U?$pair@$$CBV?$basic_string@DU?$char_traits@D@std@@V?$allocator@D@2@@std@@U_BOT_SKILL@@@std@@@std@@@std@@@0@QAV10@0PAV10@AAV?$allocator@V?$_List_unchecked_iterator@V?$_List_val@U?$_List_simple_types@U?$pair@$$CBV?$basic_string@DU?$char_traits@D@std@@V?$allocator@D@2@@std@@U_BOT_SKILL@@@std@@@std@@@std@@@std@@@0@@Z
	??$_Uninitialized_move@PAV?$_List_unchecked_iterator@V?$_List_val@U?$_List_simple_types@U?$pair@$$CBV?$basic_string@DU?$char_traits@D@std@@V?$allocator@D@2@@std@@U_TEAMSIZEDEFINITIONS@@@std@@@std@@@std@@@std@@PAV12@V?$allocator@V?$_List_unchecked_iterator@V?$_List_val@U?$_List_simple_types@U?$pair@$$CBV?$basic_string@DU?$char_traits@D@std@@V?$allocator@D@2@@std@@U_TEAMSIZEDEFINITIONS@@@std@@@std@@@std@@@std@@@2@@std@@YAPAV?$_List_unchecked_iterator@V?$_List_val@U?$_List_simple_types@U?$pair@$$CBV?$basic_string@DU?$char_traits@D@std@@V?$allocator@D@2@@std@@U_TEAMSIZEDEFINITIONS@@@std@@@std@@@std@@@0@QAV10@0PAV10@AAV?$allocator@V?$_List_unchecked_iterator@V?$_List_val@U?$_List_simple_types@U?$pair@$$CBV?$basic_string@DU?$char_traits@D@std@@V?$allocator@D@2@@std@@U_TEAMSIZEDEFINITIONS@@@std@@@std@@@std@@@std@@@0@@Z
	??$_Uninitialized_move_al_unchecked@PAV?$_List_unchecked_iterator@V?$_List_val@U?$_List_simple_types@U?$pair@$$CBHU_BUILDABLE_STRUCTURE@@@std@@@std@@@std@@@std@@PAV12@V?$allocator@V?$_List_unchecked_iterator@V?$_List_val@U?$_List_simple_types@U?$pair@$$CBHU_BUILDABLE_STRUCTURE@@@std@@@std@@@std@@@std@@@2@@std@@YAPAV?$_List_unchecked_iterator@V?$_List_val@U?$_List_simple_types@U?$pair@$$CBHU_BUILDABLE_STRUCTURE@@@std@@@std@@@std@@@0@PAV10@QAV10@1AAV?$allocator@V?$_List_unchecked_iterator@V?$_List_val@U?$_List_simple_types@U?$pair@$$CBHU_BUILDABLE_STRUCTURE@@@std@@@std@@@std@@@std@@@0@U_General_ptr_iterator_tag@0@U_Unused_parameter@0@@Z
	??$_Uninitialized_move_al_unchecked@PAV?$_List_unchecked_iterator@V?$_List_val@U?$_List_simple_types@U?$pair@$$CBHU_DROPPED_MARINE_ITEM@@@std@@@std@@@std@@@std@@PAV12@V?$allocator@V?$_List_unchecked_iterator@V?$_List_val@U?$_List_simple_types@U?$pair@$$CBHU_DROPPED_MARINE_ITEM@@@std@@@std@@@std@@@std@@@2@@std@@YAPAV?$_List_unchecked_iterator@V?$_List_val@U?$_List_simple_types@U?$pair@$$CBHU_DROPPED_MARINE_ITEM@@@std@@@std@@@std@@@0@PAV10@QAV10@1AAV?$allocator@V?$_List_unchecked_iterator@V?$_List_val@U?$_List_simple_types@U?$pair@$$CBHU_DROPPED_MARINE_ITEM@@@std@@@std@@@std@@@std@@@0@U_General_ptr_iterator_tag@0@U_Unused_parameter@0@@Z
	??$_Uninitialized_move_al_unchecked@PAV?$_List_unchecked_iterator@V?$_List_val@U?$_List_simple_types@U?$pair@$$CBV?$basic_string@DU?$char_traits@D@std@@V?$allocator@D@2@@std@@U_BOT_SKILL@@@std@@@std@@@std@@@std@@PAV12@V?$allocator@V?$_List_unchecked_iterator@V?$_List_val@U?$_List_simple_types@U?$pair@$$CBV?$basic_string@DU?$char_traits@D@std@@V?$allocator@D@2@@std@@U_BOT_SKILL@@@std@@@std@@@std@@@std@@@2@@std@@YAPAV?$_List_unchecked_iterator@V?$_List_val@U?$_List_simple_types@U?$pair@$$CBV?$basic_string@DU?$char_traits@D@std@@V?$allocator@D@2@@std@@U_BOT_SKILL@@@std@@@std@@@std@@@0@PAV10@QAV10@1AAV?$allocator@V?$_List_unchecked_iterator@V?$_List_val@U?$_List_simple_types@U?$pair@$$CBV?$basic_string@DU?$char_traits@D@std@@V?$allocator@D@2@@std@@U_BOT_SKILL@@@std@@@std@@@std@@@std@@@0@U_General_ptr_iterator_tag@0@U_Unused_parameter@0@@Z
	??$_Uninitialized_move_al_unchecked@PAV?$_List_unchecked_iterator@V?$_List_val@U?$_List_simple_types@U?$pair@$$CBV?$basic_string@DU?$char_traits@D@std@@V?$allocator@D@2@@std@@U_TEAMSIZEDEFINITIONS@@@std@@@std@@@std@@@std@@PAV12@V?$allocator@V?$_List_unchecked_iterator@V?$_List_val@U?$_List_simple_types@U?$pair@$$CBV?$basic_string@DU?$char_traits@D@std@@V?$allocator@D@2@@std@@U_TEAMSIZEDEFINITIONS@@@std@@@std@@@std@@@std@@@2@@std@@YAPAV?$_List_unchecked_iterator@V?$_List_val@U?$_List_simple_types@U?$pair@$$CBV?$basic_string@DU?$char_traits@D@std@@V?$allocator@D@2@@std@@U_TEAMSIZEDEFINITIONS@@@std@@@std@@@std@@@0@PAV10@QAV10@1AAV?$allocator@V?$_List_unchecked_iterator@V?$_List_val@U?$_List_simple_types@U?$pair@$$CBV?$basic_string@DU?$char_traits@D@std@@V?$allocator@D@2@@std@@U_TEAMSIZEDEFINITIONS@@@std@@@std@@@std@@@std@@@0@U_General_ptr_iterator_tag@0@U_Unused_parameter@0@@Z
	??$_Verify_range@D@std@@YAXQBD0@Z
	??$addressof@$$CBU?$pair@$$CBV?$basic_string@DU?$char_traits@D@std@@V?$allocator@D@2@@std@@U_BOT_SKILL@@@std@@@std@@YAPBU?$pair@$$CBV?$basic_string@DU?$char_traits@D@std@@V?$allocator@D@2@@std@@U_BOT_SKILL@@@0@ABU10@@Z
	??$addressof@$$CBU?$pair@$$CBV?$basic_string@DU?$char_traits@D@std@@V?$allocator@D@2@@std@@U_TEAMSIZEDEFINITIONS@@@std@@@std@@YAPBU?$pair@$$CBV?$basic_string@DU?$char_traits@D@std@@V?$allocator@D@2@@std@@U_TEAMSIZEDEFINITIONS@@@0@ABU10@@Z
	??$addressof@$$CBV?$_List_val@U?$_List_simple_types@U?$pair@$$CBHU_BUILDABLE_STRUCTURE@@@std@@@std@@@std@@@std@@YAPBV?$_List_val@U?$_List_simple_types@U?$pair@$$CBHU_BUILDABLE_STRUCTURE@@@std@@@std@@@0@ABV10@@Z
	??$addressof@$$CBV?$_List_val@U?$_List_simple_types@U?$pair@$$CBHU_DROPPED_MARINE_ITEM@@@std@@@std@@@std@@@std@@YAPBV?$_List_val@U?$_List_simple_types@U?$pair@$$CBHU_DROPPED_MARINE_ITEM@@@std@@@std@@@0@ABV10@@Z
	??$addressof@$$CBV?$_List_val@U?$_List_simple_types@U?$pair@$$CBV?$basic_string@DU?$char_traits@D@std@@V?$allocator@D@2@@std@@U_BOT_SKILL@@@std@@@std@@@std@@@std@@YAPBV?$_List_val@U?$_List_simple_types@U?$pair@$$CBV?$basic_string@DU?$char_traits@D@std@@V?$allocator@D@2@@std@@U_BOT_SKILL@@@std@@@std@@@0@ABV10@@Z
	??$addressof@$$CBV?$_List_val@U?$_List_simple_types@U?$pair@$$CBV?$basic_string@DU?$char_traits@D@std@@V?$allocator@D@2@@std@@U_TEAMSIZEDEFINITIONS@@@std@@@std@@@std@@@std@@YAPBV?$_List_val@U?$_List_simple_types@U?$pair@$$CBV?$basic_string@DU?$char_traits@D@std@@V?$allocator@D@2@@std@@U_TEAMSIZEDEFINITIONS@@@std@@@std@@@0@ABV10@@Z
	??$addressof@$$CBV?$basic_string@DU?$char_traits@D@std@@V?$allocator@D@2@@std@@@std@@YAPBV?$basic_string@DU?$char_traits@D@std@@V?$allocator@D@2@@0@ABV10@@Z
	??$addressof@$$CBV?$codecvt@DDU_Mbstatet@@@std@@@std@@YAPBV?$codecvt@DDU_Mbstatet@@@0@ABV10@@Z
	??$addressof@D@std@@YAPADAAD@Z
	??$addressof@PAD@std@@YAPAPADAAPAD@Z
	??$addressof@PAU?$_List_node@U?$pair@$$CBHU_BUILDABLE_STRUCTURE@@@std@@PAX@std@@@std@@YAPAPAU?$_List_node@U?$pair@$$CBHU_BUILDABLE_STRUCTURE@@@std@@PAX@0@AAPAU10@@Z
	??$addressof@PAU?$_List_node@U?$pair@$$CBHU_DROPPED_MARINE_ITEM@@@std@@PAX@std@@@std@@YAPAPAU?$_List_node@U?$pair@$$CBHU_DROPPED_MARINE_ITEM@@@std@@PAX@0@AAPAU10@@Z
	??$addressof@PAU?$_List_node@U?$pair@$$CBV?$basic_string@DU?$char_traits@D@std@@V?$allocator@D@2@@std@@U_BOT_SKILL@@@std@@PAX@std@@@std@@YAPAPAU?$_List_node@U?$pair@$$CBV?$basic_string@DU?$char_traits@D@std@@V?$allocator@D@2@@std@@U_BOT_SKILL@@@std@@PAX@0@AAPAU10@@Z
	??$addressof@PAU?$_List_node@U?$pair@$$CBV?$basic_string@DU?$char_traits@D@std@@V?$allocator@D@2@@std@@U_TEAMSIZEDEFINITIONS@@@std@@PAX@std@@@std@@YAPAPAU?$_List_node@U?$pair@$$CBV?$basic_string@DU?$char_traits@D@std@@V?$allocator@D@2@@std@@U_TEAMSIZEDEFINITIONS@@@std@@PAX@0@AAPAU10@@Z
	??$addressof@U?$pair@$$CBHU_BUILDABLE_STRUCTURE@@@std@@@std@@YAPAU?$pair@$$CBHU_BUILDABLE_STRUCTURE@@@0@AAU10@@Z
	??$addressof@U?$pair@$$CBHU_DROPPED_MARINE_ITEM@@@std@@@std@@YAPAU?$pair@$$CBHU_DROPPED_MARINE_ITEM@@@0@AAU10@@Z
	??$addressof@U?$pair@$$CBV?$basic_string@DU?$char_traits@D@std@@V?$allocator@D@2@@std@@U_BOT_SKILL@@@std@@@std@@YAPAU?$pair@$$CBV?$basic_string@DU?$char_traits@D@std@@V?$allocator@D@2@@std@@U_BOT_SKILL@@@0@AAU10@@Z
	??$addressof@U?$pair@$$CBV?$basic_string@DU?$char_traits@D@std@@V?$allocator@D@2@@std@@U_TEAMSIZEDEFINITIONS@@@std@@@std@@YAPAU?$pair@$$CBV?$basic_string@DU?$char_traits@D@std@@V?$allocator@D@2@@std@@U_TEAMSIZEDEFINITIONS@@@0@AAU10@@Z
	??$addressof@V?$_List_val@U?$_List_simple_types@U?$pair@$$CBHU_BUILDABLE_STRUCTURE@@@std@@@std@@@std@@@std@@YAPAV?$_List_val@U?$_List_simple_types@U?$pair@$$CBHU_BUILDABLE_STRUCTURE@@@std@@@std@@@0@AAV10@@Z
	??$addressof@V?$_List_val@U?$_List_simple_types@U?$pair@$$CBHU_DROPPED_MARINE_ITEM@@@std@@@std@@@std@@@std@@YAPAV?$_List_val@U?$_List_simple_types@U?$pair@$$CBHU_DROPPED_MARINE_ITEM@@@std@@@std@@@0@AAV10@@Z
	??$addressof@V?$_List_val@U?$_List_simple_types@U?$pair@$$CBV?$basic_string@DU?$char_traits@D@std@@V?$allocator@D@2@@std@@U_BOT_SKILL@@@std@@@std@@@std@@@std@@YAPAV?$_List_val@U?$_List_simple_types@U?$pair@$$CBV?$basic_string@DU?$char_traits@D@std@@V?$allocator@D@2@@std@@U_BOT_SKILL@@@std@@@std@@@0@AAV10@@Z
	??$addressof@V?$_List_val@U?$_List_simple_types@U?$pair@$$CBV?$basic_string@DU?$char_traits@D@std@@V?$allocator@D@2@@std@@U_TEAMSIZEDEFINITIONS@@@std@@@std@@@std@@@std@@YAPAV?$_List_val@U?$_List_simple_types@U?$pair@$$CBV?$basic_string@DU?$char_traits@D@std@@V?$allocator@D@2@@std@@U_TEAMSIZEDEFINITIONS@@@std@@@std@@@0@AAV10@@Z
	??$addressof@V?$_String_val@U?$_Simple_types@D@std@@@std@@@std@@YAPAV?$_String_val@U?$_Simple_types@D@std@@@0@AAV10@@Z
	??$addressof@V?$_Vector_val@U?$_Simple_types@V?$_List_unchecked_iterator@V?$_List_val@U?$_List_simple_types@U?$pair@$$CBHU_BUILDABLE_STRUCTURE@@@std@@@std@@@std@@@std@@@std@@@std@@@std@@YAPAV?$_Vector_val@U?$_Simple_types@V?$_List_unchecked_iterator@V?$_List_val@U?$_List_simple_types@U?$pair@$$CBHU_BUILDABLE_STRUCTURE@@@std@@@std@@@std@@@std@@@std@@@0@AAV10@@Z
	??$addressof@V?$_Vector_val@U?$_Simple_types@V?$_List_unchecked_iterator@V?$_List_val@U?$_List_simple_types@U?$pair@$$CBHU_DROPPED_MARINE_ITEM@@@std@@@std@@@std@@@std@@@std@@@std@@@std@@YAPAV?$_Vector_val@U?$_Simple_types@V?$_List_unchecked_iterator@V?$_List_val@U?$_List_simple_types@U?$pair@$$CBHU_DROPPED_MARINE_ITEM@@@std@@@std@@@std@@@std@@@std@@@0@AAV10@@Z
	??$addressof@V?$_Vector_val@U?$_Simple_types@V?$_List_unchecked_iterator@V?$_List_val@U?$_List_simple_types@U?$pair@$$CBV?$basic_string@DU?$char_traits@D@std@@V?$allocator@D@2@@std@@U_BOT_SKILL@@@std@@@std@@@std@@@std@@@std@@@std@@@std@@YAPAV?$_Vector_val@U?$_Simple_types@V?$_List_unchecked_iterator@V?$_List_val@U?$_List_simple_types@U?$pair@$$CBV?$basic_string@DU?$char_traits@D@std@@V?$allocator@D@2@@std@@U_BOT_SKILL@@@std@@@std@@@std@@@std@@@std@@@0@AAV10@@Z
	??$addressof@V?$_Vector_val@U?$_Simple_types@V?$_List_unchecked_iterator@V?$_List_val@U?$_List_simple_types@U?$pair@$$CBV?$basic_string@DU?$char_traits@D@std@@V?$allocator@D@2@@std@@U_TEAMSIZEDEFINITIONS@@@std@@@std@@@std@@@std@@@std@@@std@@@std@@YAPAV?$_Vector_val@U?$_Simple_types@V?$_List_unchecked_iterator@V?$_List_val@U?$_List_simple_types@U?$pair@$$CBV?$basic_string@DU?$char_traits@D@std@@V?$allocator@D@2@@std@@U_TEAMSIZEDEFINITIONS@@@std@@@std@@@std@@@std@@@std@@@0@AAV10@@Z
	??$addressof@V?$_Vector_val@U?$_Simple_types@W4HiveTechStatus@@@std@@@std@@@std@@YAPAV?$_Vector_val@U?$_Simple_types@W4HiveTechStatus@@@std@@@0@AAV10@@Z
	??$construct@PADABQAD@?$_Default_allocator_traits@V?$allocator@D@std@@@std@@SAXAAV?$allocator@D@1@QAPADABQAD@Z
	??$construct@PAU?$_List_node@U?$pair@$$CBHU_BUILDABLE_STRUCTURE@@@std@@PAX@std@@AAPAU12@@?$_Default_allocator_traits@V?$allocator@U?$_List_node@U?$pair@$$CBHU_BUILDABLE_STRUCTURE@@@std@@PAX@std@@@std@@@std@@SAXAAV?$allocator@U?$_List_node@U?$pair@$$CBHU_BUILDABLE_STRUCTURE@@@std@@PAX@std@@@1@QAPAU?$_List_node@U?$pair@$$CBHU_BUILDABLE_STRUCTURE@@@std@@PAX@1@AAPAU31@@Z
	??$construct@PAU?$_List_node@U?$pair@$$CBHU_DROPPED_MARINE_ITEM@@@std@@PAX@std@@AAPAU12@@?$_Default_allocator_traits@V?$allocator@U?$_List_node@U?$pair@$$CBHU_DROPPED_MARINE_ITEM@@@std@@PAX@std@@@std@@@std@@SAXAAV?$allocator@U?$_List_node@U?$pair@$$CBHU_DROPPED_MARINE_ITEM@@@std@@PAX@std@@@1@QAPAU?$_List_node@U?$pair@$$CBHU_DROPPED_MARINE_ITEM@@@std@@PAX@1@AAPAU31@@Z
	??$construct@PAU?$_List_node@U?$pair@$$CBV?$basic_string@DU?$char_traits@D@std@@V?$allocator@D@2@@std@@U_BOT_SKILL@@@std@@PAX@std@@AAPAU12@@?$_Default_allocator_traits@V?$allocator@U?$_List_node@U?$pair@$$CBV?$basic_string@DU?$char_traits@D@std@@V?$allocator@D@2@@std@@U_BOT_SKILL@@@std@@PAX@std@@@std@@@std@@SAXAAV?$allocator@U?$_List_node@U?$pair@$$CBV?$basic_string@DU?$char_traits@D@std@@V?$allocator@D@2@@std@@U_BOT_SKILL@@@std@@PAX@std@@@1@QAPAU?$_List_node@U?$pair@$$CBV?$basic_string@DU?$char_traits@D@std@@V?$allocator@D@2@@std@@U_BOT_SKILL@@@std@@PAX@1@AAPAU31@@Z
	??$construct@PAU?$_List_node@U?$pair@$$CBV?$basic_string@DU?$char_traits@D@std@@V?$allocator@D@2@@std@@U_TEAMSIZEDEFINITIONS@@@std@@PAX@std@@AAPAU12@@?$_Default_allocator_traits@V?$allocator@U?$_List_node@U?$pair@$$CBV?$basic_string@DU?$char_traits@D@std@@V?$allocator@D@2@@std@@U_TEAMSIZEDEFINITIONS@@@std@@PAX@std@@@std@@@std@@SAXAAV?$allocator@U?$_List_node@U?$pair@$$CBV?$basic_string@DU?$char_traits@D@std@@V?$allocator@D@2@@std@@U_TEAMSIZEDEFINITIONS@@@std@@PAX@std@@@1@QAPAU?$_List_node@U?$pair@$$CBV?$basic_string@DU?$char_traits@D@std@@V?$allocator@D@2@@std@@U_TEAMSIZEDEFINITIONS@@@std@@PAX@1@AAPAU31@@Z
	??$construct@U?$pair@$$CBHU_BUILDABLE_STRUCTURE@@@std@@ABUpiecewise_construct_t@2@V?$tuple@ABH@2@V?$tuple@$$V@2@@?$_Default_allocator_traits@V?$allocator@U?$_List_node@U?$pair@$$CBHU_BUILDABLE_STRUCTURE@@@std@@PAX@std@@@std@@@std@@SAXAAV?$allocator@U?$_List_node@U?$pair@$$CBHU_BUILDABLE_STRUCTURE@@@std@@PAX@std@@@1@QAU?$pair@$$CBHU_BUILDABLE_STRUCTURE@@@1@ABUpiecewise_construct_t@1@$$QAV?$tuple@ABH@1@$$QAV?$tuple@$$V@1@@Z
	??$construct@U?$pair@$$CBHU_DROPPED_MARINE_ITEM@@@std@@ABUpiecewise_construct_t@2@V?$tuple@ABH@2@V?$tuple@$$V@2@@?$_Default_allocator_traits@V?$allocator@U?$_List_node@U?$pair@$$CBHU_DROPPED_MARINE_ITEM@@@std@@PAX@std@@@std@@@std@@SAXAAV?$allocator@U?$_List_node@U?$pair@$$CBHU_DROPPED_MARINE_ITEM@@@std@@PAX@std@@@1@QAU?$pair@$$CBHU_DROPPED_MARINE_ITEM@@@1@ABUpiecewise_construct_t@1@$$QAV?$tuple@ABH@1@$$QAV?$tuple@$$V@1@@Z
	??$construct@U?$pair@$$CBV?$basic_string@DU?$char_traits@D@std@@V?$allocator@D@2@@std@@U_BOT_SKILL@@@std@@ABUpiecewise_construct_t@2@V?$tuple@$$QAV?$basic_string@DU?$char_traits@D@std@@V?$allocator@D@2@@std@@@2@V?$tuple@$$V@2@@?$_Default_allocator_traits@V?$allocator@U?$_List_node@U?$pair@$$CBV?$basic_string@DU?$char_traits@D@std@@V?$allocator@D@2@@std@@U_BOT_SKILL@@@std@@PAX@std@@@std@@@std@@SAXAAV?$allocator@U?$_List_node@U?$pair@$$CBV?$basic_string@DU?$char_traits@D@std@@V?$allocator@D@2@@std@@U_BOT_SKILL@@@std@@PAX@std@@@1@QAU?$pair@$$CBV?$basic_string@DU?$char_traits@D@std@@V?$allocator@D@2@@std@@U_BOT_SKILL@@@1@ABUpiecewise_construct_t@1@$$QAV?$tuple@$$QAV?$basic_string@DU?$char_traits@D@std@@V?$allocator@D@2@@std@@@1@$$QAV?$tuple@$$V@1@@Z
	??$construct@U?$pair@$$CBV?$basic_string@DU?$char_traits@D@std@@V?$allocator@D@2@@std@@U_TEAMSIZEDEFINITIONS@@@std@@ABUpiecewise_construct_t@2@V?$tuple@$$QAV?$basic_string@DU?$char_traits@D@std@@V?$allocator@D@2@@std@@@2@V?$tuple@$$V@2@@?$_Default_allocator_traits@V?$allocator@U?$_List_node@U?$pair@$$CBV?$basic_string@DU?$char_traits@D@std@@V?$allocator@D@2@@std@@U_TEAMSIZEDEFINITIONS@@@std@@PAX@std@@@std@@@std@@SAXAAV?$allocator@U?$_List_node@U?$pair@$$CBV?$basic_string@DU?$char_traits@D@std@@V?$allocator@D@2@@std@@U_TEAMSIZEDEFINITIONS@@@std@@PAX@std@@@1@QAU?$pair@$$CBV?$basic_string@DU?$char_traits@D@std@@V?$allocator@D@2@@std@@U_TEAMSIZEDEFINITIONS@@@1@ABUpiecewise_construct_t@1@$$QAV?$tuple@$$QAV?$basic_string@DU?$char_traits@D@std@@V?$allocator@D@2@@std@@@1@$$QAV?$tuple@$$V@1@@Z
	??$construct@U?$pair@$$CBV?$basic_string@DU?$char_traits@D@std@@V?$allocator@D@2@@std@@U_TEAMSIZEDEFINITIONS@@@std@@ABUpiecewise_construct_t@2@V?$tuple@ABV?$basic_string@DU?$char_traits@D@std@@V?$allocator@D@2@@std@@@2@V?$tuple@$$V@2@@?$_Default_allocator_traits@V?$allocator@U?$_List_node@U?$pair@$$CBV?$basic_string@DU?$char_traits@D@std@@V?$allocator@D@2@@std@@U_TEAMSIZEDEFINITIONS@@@std@@PAX@std@@@std@@@std@@SAXAAV?$allocator@U?$_List_node@U?$pair@$$CBV?$basic_string@DU?$char_traits@D@std@@V?$allocator@D@2@@std@@U_TEAMSIZEDEFINITIONS@@@std@@PAX@std@@@1@QAU?$pair@$$CBV?$basic_string@DU?$char_traits@D@std@@V?$allocator@D@2@@std@@U_TEAMSIZEDEFINITIONS@@@1@ABUpiecewise_construct_t@1@$$QAV?$tuple@ABV?$basic_string@DU?$char_traits@D@std@@V?$allocator@D@2@@std@@@1@$$QAV?$tuple@$$V@1@@Z
	??$construct@U_Container_proxy@std@@U12@@?$_Default_allocator_traits@V?$allocator@U_Container_proxy@std@@@std@@@std@@SAXAAV?$allocator@U_Container_proxy@std@@@1@QAU_Container_proxy@1@$$QAU31@@Z
	??$construct@V?$_List_unchecked_iterator@V?$_List_val@U?$_List_simple_types@U?$pair@$$CBHU_BUILDABLE_STRUCTURE@@@std@@@std@@@std@@@std@@ABV12@@?$_Default_allocator_traits@V?$allocator@V?$_List_unchecked_iterator@V?$_List_val@U?$_List_simple_types@U?$pair@$$CBHU_BUILDABLE_STRUCTURE@@@std@@@std@@@std@@@std@@@std@@@std@@SAXAAV?$allocator@V?$_List_unchecked_iterator@V?$_List_val@U?$_List_simple_types@U?$pair@$$CBHU_BUILDABLE_STRUCTURE@@@std@@@std@@@std@@@std@@@1@QAV?$_List_unchecked_iterator@V?$_List_val@U?$_List_simple_types@U?$pair@$$CBHU_BUILDABLE_STRUCTURE@@@std@@@std@@@std@@@1@ABV31@@Z
	??$construct@V?$_List_unchecked_iterator@V?$_List_val@U?$_List_simple_types@U?$pair@$$CBHU_BUILDABLE_STRUCTURE@@@std@@@std@@@std@@@std@@V12@@?$_Default_allocator_traits@V?$allocator@V?$_List_unchecked_iterator@V?$_List_val@U?$_List_simple_types@U?$pair@$$CBHU_BUILDABLE_STRUCTURE@@@std@@@std@@@std@@@std@@@std@@@std@@SAXAAV?$allocator@V?$_List_unchecked_iterator@V?$_List_val@U?$_List_simple_types@U?$pair@$$CBHU_BUILDABLE_STRUCTURE@@@std@@@std@@@std@@@std@@@1@QAV?$_List_unchecked_iterator@V?$_List_val@U?$_List_simple_types@U?$pair@$$CBHU_BUILDABLE_STRUCTURE@@@std@@@std@@@std@@@1@$$QAV31@@Z
	??$construct@V?$_List_unchecked_iterator@V?$_List_val@U?$_List_simple_types@U?$pair@$$CBHU_DROPPED_MARINE_ITEM@@@std@@@std@@@std@@@std@@ABV12@@?$_Default_allocator_traits@V?$allocator@V?$_List_unchecked_iterator@V?$_List_val@U?$_List_simple_types@U?$pair@$$CBHU_DROPPED_MARINE_ITEM@@@std@@@std@@@std@@@std@@@std@@@std@@SAXAAV?$allocator@V?$_List_unchecked_iterator@V?$_List_val@U?$_List_simple_types@U?$pair@$$CBHU_DROPPED_MARINE_ITEM@@@std@@@std@@@std@@@std@@@1@QAV?$_List_unchecked_iterator@V?$_List_val@U?$_List_simple_types@U?$pair@$$CBHU_DROPPED_MARINE_ITEM@@@std@@@std@@@std@@@1@ABV31@@Z
	??$construct@V?$_List_unchecked_iterator@V?$_List_val@U?$_List_simple_types@U?$pair@$$CBHU_DROPPED_MARINE_ITEM@@@std@@@std@@@std@@@std@@V12@@?$_Default_allocator_traits@V?$allocator@V?$_List_unchecked_iterator@V?$_List_val@U?$_List_simple_types@U?$pair@$$CBHU_DROPPED_MARINE_ITEM@@@std@@@std@@@std@@@std@@@std@@@std@@SAXAAV?$allocator@V?$_List_unchecked_iterator@V?$_List_val@U?$_List_simple_types@U?$pair@$$CBHU_DROPPED_MARINE_ITEM@@@std@@@std@@@std@@@std@@@1@QAV?$_List_unchecked_iterator@V?$_List_val@U?$_List_simple_types@U?$pair@$$CBHU_DROPPED_MARINE_ITEM@@@std@@@std@@@std@@@1@$$QAV31@@Z
	??$construct@V?$_List_unchecked_iterator@V?$_List_val@U?$_List_simple_types@U?$pair@$$CBV?$basic_string@DU?$char_traits@D@std@@V?$allocator@D@2@@std@@U_BOT_SKILL@@@std@@@std@@@std@@@std@@ABV12@@?$_Default_allocator_traits@V?$allocator@V?$_List_unchecked_iterator@V?$_List_val@U?$_List_simple_types@U?$pair@$$CBV?$basic_string@DU?$char_traits@D@std@@V?$allocator@D@2@@std@@U_BOT_SKILL@@@std@@@std@@@std@@@std@@@std@@@std@@SAXAAV?$allocator@V?$_List_unchecked_iterator@V?$_List_val@U?$_List_simple_types@U?$pair@$$CBV?$basic_string@DU?$char_traits@D@std@@V?$allocator@D@2@@std@@U_BOT_SKILL@@@std@@@std@@@std@@@std@@@1@QAV?$_List_unchecked_iterator@V?$_List_val@U?$_List_simple_types@U?$pair@$$CBV?$basic_string@DU?$char_traits@D@std@@V?$allocator@D@2@@std@@U_BOT_SKILL@@@std@@@std@@@std@@@1@ABV31@@Z
	??$construct@V?$_List_unchecked_iterator@V?$_List_val@U?$_List_simple_types@U?$pair@$$CBV?$basic_string@DU?$char_traits@D@std@@V?$allocator@D@2@@std@@U_BOT_SKILL@@@std@@@std@@@std@@@std@@V12@@?$_Default_allocator_traits@V?$allocator@V?$_List_unchecked_iterator@V?$_List_val@U?$_List_simple_types@U?$pair@$$CBV?$basic_string@DU?$char_traits@D@std@@V?$allocator@D@2@@std@@U_BOT_SKILL@@@std@@@std@@@std@@@std@@@std@@@std@@SAXAAV?$allocator@V?$_List_unchecked_iterator@V?$_List_val@U?$_List_simple_types@U?$pair@$$CBV?$basic_string@DU?$char_traits@D@std@@V?$allocator@D@2@@std@@U_BOT_SKILL@@@std@@@std@@@std@@@std@@@1@QAV?$_List_unchecked_iterator@V?$_List_val@U?$_List_simple_types@U?$pair@$$CBV?$basic_string@DU?$char_traits@D@std@@V?$allocator@D@2@@std@@U_BOT_SKILL@@@std@@@std@@@std@@@1@$$QAV31@@Z
	??$construct@V?$_List_unchecked_iterator@V?$_List_val@U?$_List_simple_types@U?$pair@$$CBV?$basic_string@DU?$char_traits@D@std@@V?$allocator@D@2@@std@@U_TEAMSIZEDEFINITIONS@@@std@@@std@@@std@@@std@@ABV12@@?$_Default_allocator_traits@V?$allocator@V?$_List_unchecked_iterator@V?$_List_val@U?$_List_simple_types@U?$pair@$$CBV?$basic_string@DU?$char_traits@D@std@@V?$allocator@D@2@@std@@U_TEAMSIZEDEFINITIONS@@@std@@@std@@@std@@@std@@@std@@@std@@SAXAAV?$allocator@V?$_List_unchecked_iterator@V?$_List_val@U?$_List_simple_types@U?$pair@$$CBV?$basic_string@DU?$char_traits@D@std@@V?$allocator@D@2@@std@@U_TEAMSIZEDEFINITIONS@@@std@@@std@@@std@@@std@@@1@QAV?$_List_unchecked_iterator@V?$_List_val@U?$_List_simple_types@U?$pair@$$CBV?$basic_string@DU?$char_traits@D@std@@V?$allocator@D@2@@std@@U_TEAMSIZEDEFINITIONS@@@std@@@std@@@std@@@1@ABV31@@Z
	??$construct@V?$_List_unchecked_iterator@V?$_List_val@U?$_List_simple_types@U?$pair@$$CBV?$basic_string@DU?$char_traits@D@std@@V?$allocator@D@2@@std@@U_TEAMSIZEDEFINITIONS@@@std@@@std@@@std@@@std@@V12@@?$_Default_allocator_traits@V?$allocator@V?$_List_unchecked_iterator@V?$_List_val@U?$_List_simple_types@U?$pair@$$CBV?$basic_string@DU?$char_traits@D@std@@V?$allocator@D@2@@std@@U_TEAMSIZEDEFINITIONS@@@std@@@std@@@std@@@std@@@std@@@std@@SAXAAV?$allocator@V?$_List_unchecked_iterator@V?$_List_val@U?$_List_simple_types@U?$pair@$$CBV?$basic_string@DU?$char_traits@D@std@@V?$allocator@D@2@@std@@U_TEAMSIZEDEFINITIONS@@@std@@@std@@@std@@@std@@@1@QAV?$_List_unchecked_iterator@V?$_List_val@U?$_List_simple_types@U?$pair@$$CBV?$basic_string@DU?$char_traits@D@std@@V?$allocator@D@2@@std@@U_TEAMSIZEDEFINITIONS@@@std@@@std@@@std@@@1@$$QAV31@@Z
	??$destroy@PAD@?$_Default_allocator_traits@V?$allocator@D@std@@@std@@SAXAAV?$allocator@D@1@QAPAD@Z
	??$destroy@PAU?$_List_node@U?$pair@$$CBHU_BUILDABLE_STRUCTURE@@@std@@PAX@std@@@?$_Default_allocator_traits@V?$allocator@U?$_List_node@U?$pair@$$CBHU_BUILDABLE_STRUCTURE@@@std@@PAX@std@@@std@@@std@@SAXAAV?$allocator@U?$_List_node@U?$pair@$$CBHU_BUILDABLE_STRUCTURE@@@std@@PAX@std@@@1@QAPAU?$_List_node@U?$pair@$$CBHU_BUILDABLE_STRUCTURE@@@std@@PAX@1@@Z
	??$destroy@PAU?$_List_node@U?$pair@$$CBHU_DROPPED_MARINE_ITEM@@@std@@PAX@std@@@?$_Default_allocator_traits@V?$allocator@U?$_List_node@U?$pair@$$CBHU_DROPPED_MARINE_ITEM@@@std@@PAX@std@@@std@@@std@@SAXAAV?$allocator@U?$_List_node@U?$pair@$$CBHU_DROPPED_MARINE_ITEM@@@std@@PAX@std@@@1@QAPAU?$_List_node@U?$pair@$$CBHU_DROPPED_MARINE_ITEM@@@std@@PAX@1@@Z
	??$destroy@PAU?$_List_node@U?$pair@$$CBV?$basic_string@DU?$char_traits@D@std@@V?$allocator@D@2@@std@@U_BOT_SKILL@@@std@@PAX@std@@@?$_Default_allocator_traits@V?$allocator@U?$_List_node@U?$pair@$$CBV?$basic_string@DU?$char_traits@D@std@@V?$allocator@D@2@@std@@U_BOT_SKILL@@@std@@PAX@std@@@std@@@std@@SAXAAV?$allocator@U?$_List_node@U?$pair@$$CBV?$basic_string@DU?$char_traits@D@std@@V?$allocator@D@2@@std@@U_BOT_SKILL@@@std@@PAX@std@@@1@QAPAU?$_List_node@U?$pair@$$CBV?$basic_string@DU?$char_traits@D@std@@V?$allocator@D@2@@std@@U_BOT_SKILL@@@std@@PAX@1@@Z
	??$destroy@PAU?$_List_node@U?$pair@$$CBV?$basic_string@DU?$char_traits@D@std@@V?$allocator@D@2@@std@@U_TEAMSIZEDEFINITIONS@@@std@@PAX@std@@@?$_Default_allocator_traits@V?$allocator@U?$_List_node@U?$pair@$$CBV?$basic_string@DU?$char_traits@D@std@@V?$allocator@D@2@@std@@U_TEAMSIZEDEFINITIONS@@@std@@PAX@std@@@std@@@std@@SAXAAV?$allocator@U?$_List_node@U?$pair@$$CBV?$basic_string@DU?$char_traits@D@std@@V?$allocator@D@2@@std@@U_TEAMSIZEDEFINITIONS@@@std@@PAX@std@@@1@QAPAU?$_List_node@U?$pair@$$CBV?$basic_string@DU?$char_traits@D@std@@V?$allocator@D@2@@std@@U_TEAMSIZEDEFINITIONS@@@std@@PAX@1@@Z
	??$destroy@U?$pair@$$CBHU_BUILDABLE_STRUCTURE@@@std@@@?$_Default_allocator_traits@V?$allocator@U?$_List_node@U?$pair@$$CBHU_BUILDABLE_STRUCTURE@@@std@@PAX@std@@@std@@@std@@SAXAAV?$allocator@U?$_List_node@U?$pair@$$CBHU_BUILDABLE_STRUCTURE@@@std@@PAX@std@@@1@QAU?$pair@$$CBHU_BUILDABLE_STRUCTURE@@@1@@Z
	??$destroy@U?$pair@$$CBHU_DROPPED_MARINE_ITEM@@@std@@@?$_Default_allocator_traits@V?$allocator@U?$_List_node@U?$pair@$$CBHU_DROPPED_MARINE_ITEM@@@std@@PAX@std@@@std@@@std@@SAXAAV?$allocator@U?$_List_node@U?$pair@$$CBHU_DROPPED_MARINE_ITEM@@@std@@PAX@std@@@1@QAU?$pair@$$CBHU_DROPPED_MARINE_ITEM@@@1@@Z
	??$destroy@U?$pair@$$CBV?$basic_string@DU?$char_traits@D@std@@V?$allocator@D@2@@std@@U_BOT_SKILL@@@std@@@?$_Default_allocator_traits@V?$allocator@U?$_List_node@U?$pair@$$CBV?$basic_string@DU?$char_traits@D@std@@V?$allocator@D@2@@std@@U_BOT_SKILL@@@std@@PAX@std@@@std@@@std@@SAXAAV?$allocator@U?$_List_node@U?$pair@$$CBV?$basic_string@DU?$char_traits@D@std@@V?$allocator@D@2@@std@@U_BOT_SKILL@@@std@@PAX@std@@@1@QAU?$pair@$$CBV?$basic_string@DU?$char_traits@D@std@@V?$allocator@D@2@@std@@U_BOT_SKILL@@@1@@Z
	??$destroy@U?$pair@$$CBV?$basic_string@DU?$char_traits@D@std@@V?$allocator@D@2@@std@@U_TEAMSIZEDEFINITIONS@@@std@@@?$_Default_allocator_traits@V?$allocator@U?$_List_node@U?$pair@$$CBV?$basic_string@DU?$char_traits@D@std@@V?$allocator@D@2@@std@@U_TEAMSIZEDEFINITIONS@@@std@@PAX@std@@@std@@@std@@SAXAAV?$allocator@U?$_List_node@U?$pair@$$CBV?$basic_string@DU?$char_traits@D@std@@V?$allocator@D@2@@std@@U_TEAMSIZEDEFINITIONS@@@std@@PAX@std@@@1@QAU?$pair@$$CBV?$basic_string@DU?$char_traits@D@std@@V?$allocator@D@2@@std@@U_TEAMSIZEDEFINITIONS@@@1@@Z
	??$destroy@U_Container_proxy@std@@@?$_Default_allocator_traits@V?$allocator@U_Container_proxy@std@@@std@@@std@@SAXAAV?$allocator@U_Container_proxy@std@@@1@QAU_Container_proxy@1@@Z
	??$distance@PBW4HiveTechStatus@@@std@@YAHPBW4HiveTechStatus@@0@Z
	??$dtMax@I@@YAIII@Z
	??$emplace@ABUpiecewise_construct_t@std@@V?$tuple@$$QAV?$basic_string@DU?$char_traits@D@std@@V?$allocator@D@2@@std@@@2@V?$tuple@$$V@2@@?$_Hash@V?$_Umap_traits@V?$basic_string@DU?$char_traits@D@std@@V?$allocator@D@2@@std@@U_BOT_SKILL@@V?$_Uhash_compare@V?$basic_string@DU?$char_traits@D@std@@V?$allocator@D@2@@std@@U?$hash@V?$basic_string@DU?$char_traits@D@std@@V?$allocator@D@2@@std@@@2@U?$equal_to@V?$basic_string@DU?$char_traits@D@std@@V?$allocator@D@2@@std@@@2@@2@V?$allocator@U?$pair@$$CBV?$basic_string@DU?$char_traits@D@std@@V?$allocator@D@2@@std@@U_BOT_SKILL@@@std@@@2@$0A@@std@@@std@@QAE?AU?$pair@V?$_List_iterator@V?$_List_val@U?$_List_simple_types@U?$pair@$$CBV?$basic_string@DU?$char_traits@D@std@@V?$allocator@D@2@@std@@U_BOT_SKILL@@@std@@@std@@@std@@@std@@_N@1@ABUpiecewise_construct_t@1@$$QAV?$tuple@$$QAV?$basic_string@DU?$char_traits@D@std@@V?$allocator@D@2@@std@@@1@$$QAV?$tuple@$$V@1@@Z
	??$emplace@ABUpiecewise_construct_t@std@@V?$tuple@$$QAV?$basic_string@DU?$char_traits@D@std@@V?$allocator@D@2@@std@@@2@V?$tuple@$$V@2@@?$_Hash@V?$_Umap_traits@V?$basic_string@DU?$char_traits@D@std@@V?$allocator@D@2@@std@@U_TEAMSIZEDEFINITIONS@@V?$_Uhash_compare@V?$basic_string@DU?$char_traits@D@std@@V?$allocator@D@2@@std@@U?$hash@V?$basic_string@DU?$char_traits@D@std@@V?$allocator@D@2@@std@@@2@U?$equal_to@V?$basic_string@DU?$char_traits@D@std@@V?$allocator@D@2@@std@@@2@@2@V?$allocator@U?$pair@$$CBV?$basic_string@DU?$char_traits@D@std@@V?$allocator@D@2@@std@@U_TEAMSIZEDEFINITIONS@@@std@@@2@$0A@@std@@@std@@QAE?AU?$pair@V?$_List_iterator@V?$_List_val@U?$_List_simple_types@U?$pair@$$CBV?$basic_string@DU?$char_traits@D@std@@V?$allocator@D@2@@std@@U_TEAMSIZEDEFINITIONS@@@std@@@std@@@std@@@std@@_N@1@ABUpiecewise_construct_t@1@$$QAV?$tuple@$$QAV?$basic_string@DU?$char_traits@D@std@@V?$allocator@D@2@@std@@@1@$$QAV?$tuple@$$V@1@@Z
	??$emplace@ABUpiecewise_construct_t@std@@V?$tuple@ABH@2@V?$tuple@$$V@2@@?$_Hash@V?$_Umap_traits@HU_BUILDABLE_STRUCTURE@@V?$_Uhash_compare@HU?$hash@H@std@@U?$equal_to@H@2@@std@@V?$allocator@U?$pair@$$CBHU_BUILDABLE_STRUCTURE@@@std@@@3@$0A@@std@@@std@@QAE?AU?$pair@V?$_List_iterator@V?$_List_val@U?$_List_simple_types@U?$pair@$$CBHU_BUILDABLE_STRUCTURE@@@std@@@std@@@std@@@std@@_N@1@ABUpiecewise_construct_t@1@$$QAV?$tuple@ABH@1@$$QAV?$tuple@$$V@1@@Z
	??$emplace@ABUpiecewise_construct_t@std@@V?$tuple@ABH@2@V?$tuple@$$V@2@@?$_Hash@V?$_Umap_traits@HU_DROPPED_MARINE_ITEM@@V?$_Uhash_compare@HU?$hash@H@std@@U?$equal_to@H@2@@std@@V?$allocator@U?$pair@$$CBHU_DROPPED_MARINE_ITEM@@@std@@@3@$0A@@std@@@std@@QAE?AU?$pair@V?$_List_iterator@V?$_List_val@U?$_List_simple_types@U?$pair@$$CBHU_DROPPED_MARINE_ITEM@@@std@@@std@@@std@@@std@@_N@1@ABUpiecewise_construct_t@1@$$QAV?$tuple@ABH@1@$$QAV?$tuple@$$V@1@@Z
	??$emplace@ABUpiecewise_construct_t@std@@V?$tuple@ABV?$basic_string@DU?$char_traits@D@std@@V?$allocator@D@2@@std@@@2@V?$tuple@$$V@2@@?$_Hash@V?$_Umap_traits@V?$basic_string@DU?$char_traits@D@std@@V?$allocator@D@2@@std@@U_TEAMSIZEDEFINITIONS@@V?$_Uhash_compare@V?$basic_string@DU?$char_traits@D@std@@V?$allocator@D@2@@std@@U?$hash@V?$basic_string@DU?$char_traits@D@std@@V?$allocator@D@2@@std@@@2@U?$equal_to@V?$basic_string@DU?$char_traits@D@std@@V?$allocator@D@2@@std@@@2@@2@V?$allocator@U?$pair@$$CBV?$basic_string@DU?$char_traits@D@std@@V?$allocator@D@2@@std@@U_TEAMSIZEDEFINITIONS@@@std@@@2@$0A@@std@@@std@@QAE?AU?$pair@V?$_List_iterator@V?$_List_val@U?$_List_simple_types@U?$pair@$$CBV?$basic_string@DU?$char_traits@D@std@@V?$allocator@D@2@@std@@U_TEAMSIZEDEFINITIONS@@@std@@@std@@@std@@@std@@_N@1@ABUpiecewise_construct_t@1@$$QAV?$tuple@ABV?$basic_string@DU?$char_traits@D@std@@V?$allocator@D@2@@std@@@1@$$QAV?$tuple@$$V@1@@Z
	??$emplace_front@ABUpiecewise_construct_t@std@@V?$tuple@$$QAV?$basic_string@DU?$char_traits@D@std@@V?$allocator@D@2@@std@@@2@V?$tuple@$$V@2@@?$list@U?$pair@$$CBV?$basic_string@DU?$char_traits@D@std@@V?$allocator@D@2@@std@@U_BOT_SKILL@@@std@@V?$allocator@U?$pair@$$CBV?$basic_string@DU?$char_traits@D@std@@V?$allocator@D@2@@std@@U_BOT_SKILL@@@std@@@2@@std@@QAEXABUpiecewise_construct_t@1@$$QAV?$tuple@$$QAV?$basic_string@DU?$char_traits@D@std@@V?$allocator@D@2@@std@@@1@$$QAV?$tuple@$$V@1@@Z
	??$emplace_front@ABUpiecewise_construct_t@std@@V?$tuple@$$QAV?$basic_string@DU?$char_traits@D@std@@V?$allocator@D@2@@std@@@2@V?$tuple@$$V@2@@?$list@U?$pair@$$CBV?$basic_string@DU?$char_traits@D@std@@V?$allocator@D@2@@std@@U_TEAMSIZEDEFINITIONS@@@std@@V?$allocator@U?$pair@$$CBV?$basic_string@DU?$char_traits@D@std@@V?$allocator@D@2@@std@@U_TEAMSIZEDEFINITIONS@@@std@@@2@@std@@QAEXABUpiecewise_construct_t@1@$$QAV?$tuple@$$QAV?$basic_string@DU?$char_traits@D@std@@V?$allocator@D@2@@std@@@1@$$QAV?$tuple@$$V@1@@Z
	??$emplace_front@ABUpiecewise_construct_t@std@@V?$tuple@ABH@2@V?$tuple@$$V@2@@?$list@U?$pair@$$CBHU_BUILDABLE_STRUCTURE@@@std@@V?$allocator@U?$pair@$$CBHU_BUILDABLE_STRUCTURE@@@std@@@2@@std@@QAEXABUpiecewise_construct_t@1@$$QAV?$tuple@ABH@1@$$QAV?$tuple@$$V@1@@Z
	??$emplace_front@ABUpiecewise_construct_t@std@@V?$tuple@ABH@2@V?$tuple@$$V@2@@?$list@U?$pair@$$CBHU_DROPPED_MARINE_ITEM@@@std@@V?$allocator@U?$pair@$$CBHU_DROPPED_MARINE_ITEM@@@std@@@2@@std@@QAEXABUpiecewise_construct_t@1@$$QAV?$tuple@ABH@1@$$QAV?$tuple@$$V@1@@Z
	??$emplace_front@ABUpiecewise_construct_t@std@@V?$tuple@ABV?$basic_string@DU?$char_traits@D@std@@V?$allocator@D@2@@std@@@2@V?$tuple@$$V@2@@?$list@U?$pair@$$CBV?$basic_string@DU?$char_traits@D@std@@V?$allocator@D@2@@std@@U_TEAMSIZEDEFINITIONS@@@std@@V?$allocator@U?$pair@$$CBV?$basic_string@DU?$char_traits@D@std@@V?$allocator@D@2@@std@@U_TEAMSIZEDEFINITIONS@@@std@@@2@@std@@QAEXABUpiecewise_construct_t@1@$$QAV?$tuple@ABV?$basic_string@DU?$char_traits@D@std@@V?$allocator@D@2@@std@@@1@$$QAV?$tuple@$$V@1@@Z
	??$erase@V?$_List_iterator@V?$_List_val@U?$_List_simple_types@U?$pair@$$CBHU_BUILDABLE_STRUCTURE@@@std@@@std@@@std@@@std@@X@?$_Hash@V?$_Umap_traits@HU_BUILDABLE_STRUCTURE@@V?$_Uhash_compare@HU?$hash@H@std@@U?$equal_to@H@2@@std@@V?$allocator@U?$pair@$$CBHU_BUILDABLE_STRUCTURE@@@std@@@3@$0A@@std@@@std@@QAE?AV?$_List_iterator@V?$_List_val@U?$_List_simple_types@U?$pair@$$CBHU_BUILDABLE_STRUCTURE@@@std@@@std@@@std@@@1@V21@@Z
	??$erase@V?$_List_iterator@V?$_List_val@U?$_List_simple_types@U?$pair@$$CBHU_DROPPED_MARINE_ITEM@@@std@@@std@@@std@@@std@@X@?$_Hash@V?$_Umap_traits@HU_DROPPED_MARINE_ITEM@@V?$_Uhash_compare@HU?$hash@H@std@@U?$equal_to@H@2@@std@@V?$allocator@U?$pair@$$CBHU_DROPPED_MARINE_ITEM@@@std@@@3@$0A@@std@@@std@@QAE?AV?$_List_iterator@V?$_List_val@U?$_List_simple_types@U?$pair@$$CBHU_DROPPED_MARINE_ITEM@@@std@@@std@@@std@@@1@V21@@Z
	??$erase@V?$_List_iterator@V?$_List_val@U?$_List_simple_types@U?$pair@$$CBV?$basic_string@DU?$char_traits@D@std@@V?$allocator@D@2@@std@@U_BOT_SKILL@@@std@@@std@@@std@@@std@@X@?$_Hash@V?$_Umap_traits@V?$basic_string@DU?$char_traits@D@std@@V?$allocator@D@2@@std@@U_BOT_SKILL@@V?$_Uhash_compare@V?$basic_string@DU?$char_traits@D@std@@V?$allocator@D@2@@std@@U?$hash@V?$basic_string@DU?$char_traits@D@std@@V?$allocator@D@2@@std@@@2@U?$equal_to@V?$basic_string@DU?$char_traits@D@std@@V?$allocator@D@2@@std@@@2@@2@V?$allocator@U?$pair@$$CBV?$basic_string@DU?$char_traits@D@std@@V?$allocator@D@2@@std@@U_BOT_SKILL@@@std@@@2@$0A@@std@@@std@@QAE?AV?$_List_iterator@V?$_List_val@U?$_List_simple_types@U?$pair@$$CBV?$basic_string@DU?$char_traits@D@std@@V?$allocator@D@2@@std@@U_BOT_SKILL@@@std@@@std@@@std@@@1@V21@@Z
	??$erase@V?$_List_iterator@V?$_List_val@U?$_List_simple_types@U?$pair@$$CBV?$basic_string@DU?$char_traits@D@std@@V?$allocator@D@2@@std@@U_TEAMSIZEDEFINITIONS@@@std@@@std@@@std@@@std@@X@?$_Hash@V?$_Umap_traits@V?$basic_string@DU?$char_traits@D@std@@V?$allocator@D@2@@std@@U_TEAMSIZEDEFINITIONS@@V?$_Uhash_compare@V?$basic_string@DU?$char_traits@D@std@@V?$allocator@D@2@@std@@U?$hash@V?$basic_string@DU?$char_traits@D@std@@V?$allocator@D@2@@std@@@2@U?$equal_to@V?$basic_string@DU?$char_traits@D@std@@V?$allocator@D@2@@std@@@2@@2@V?$allocator@U?$pair@$$CBV?$basic_string@DU?$char_traits@D@std@@V?$allocator@D@2@@std@@U_TEAMSIZEDEFINITIONS@@@std@@@2@$0A@@std@@@std@@QAE?AV?$_List_iterator@V?$_List_val@U?$_List_simple_types@U?$pair@$$CBV?$basic_string@DU?$char_traits@D@std@@V?$allocator@D@2@@std@@U_TEAMSIZEDEFINITIONS@@@std@@@std@@@std@@@1@V21@@Z
	??$find@V?$_Vector_iterator@V?$_Vector_val@U?$_Simple_types@W4HiveTechStatus@@@std@@@std@@@std@@W4HiveTechStatus@@@std@@YA?AV?$_Vector_iterator@V?$_Vector_val@U?$_Simple_types@W4HiveTechStatus@@@std@@@std@@@0@V10@V10@ABW4HiveTechStatus@@@Z
	??$find_if@PADP6AHH@Z@std@@YAPADPADQADP6AHH@Z@Z
	??$forward@$$QAV?$basic_string@DU?$char_traits@D@std@@V?$allocator@D@2@@std@@@std@@YA$$QAV?$basic_string@DU?$char_traits@D@std@@V?$allocator@D@2@@0@AAV10@@Z
	??$forward@AAPAU?$_List_node@U?$pair@$$CBHU_BUILDABLE_STRUCTURE@@@std@@PAX@std@@@std@@YAAAPAU?$_List_node@U?$pair@$$CBHU_BUILDABLE_STRUCTURE@@@std@@PAX@0@AAPAU10@@Z
	??$forward@AAPAU?$_List_node@U?$pair@$$CBHU_DROPPED_MARINE_ITEM@@@std@@PAX@std@@@std@@YAAAPAU?$_List_node@U?$pair@$$CBHU_DROPPED_MARINE_ITEM@@@std@@PAX@0@AAPAU10@@Z
	??$forward@AAPAU?$_List_node@U?$pair@$$CBV?$basic_string@DU?$char_traits@D@std@@V?$allocator@D@2@@std@@U_BOT_SKILL@@@std@@PAX@std@@@std@@YAAAPAU?$_List_node@U?$pair@$$CBV?$basic_string@DU?$char_traits@D@std@@V?$allocator@D@2@@std@@U_BOT_SKILL@@@std@@PAX@0@AAPAU10@@Z
	??$forward@AAPAU?$_List_node@U?$pair@$$CBV?$basic_string@DU?$char_traits@D@std@@V?$allocator@D@2@@std@@U_TEAMSIZEDEFINITIONS@@@std@@PAX@std@@@std@@YAAAPAU?$_List_node@U?$pair@$$CBV?$basic_string@DU?$char_traits@D@std@@V?$allocator@D@2@@std@@U_TEAMSIZEDEFINITIONS@@@std@@PAX@0@AAPAU10@@Z
	??$forward@AAPAV_Facet_base@std@@@std@@YAAAPAV_Facet_base@0@AAPAV10@@Z
	??$forward@AAU?$equal_to@H@std@@@std@@YAAAU?$equal_to@H@0@AAU10@@Z
	??$forward@AAU?$equal_to@V?$basic_string@DU?$char_traits@D@std@@V?$allocator@D@2@@std@@@std@@@std@@YAAAU?$equal_to@V?$basic_string@DU?$char_traits@D@std@@V?$allocator@D@2@@std@@@0@AAU10@@Z
	??$forward@AAU?$hash@H@std@@@std@@YAAAU?$hash@H@0@AAU10@@Z
	??$forward@AAU?$hash@V?$basic_string@DU?$char_traits@D@std@@V?$allocator@D@2@@std@@@std@@@std@@YAAAU?$hash@V?$basic_string@DU?$char_traits@D@std@@V?$allocator@D@2@@std@@@0@AAU10@@Z
	??$forward@AAU?$pair@$$CBHU_BUILDABLE_STRUCTURE@@@std@@@std@@YAAAU?$pair@$$CBHU_BUILDABLE_STRUCTURE@@@0@AAU10@@Z
	??$forward@AAU?$pair@$$CBHU_DROPPED_MARINE_ITEM@@@std@@@std@@YAAAU?$pair@$$CBHU_DROPPED_MARINE_ITEM@@@0@AAU10@@Z
	??$forward@AAU?$pair@$$CBV?$basic_string@DU?$char_traits@D@std@@V?$allocator@D@2@@std@@U_BOT_SKILL@@@std@@@std@@YAAAU?$pair@$$CBV?$basic_string@DU?$char_traits@D@std@@V?$allocator@D@2@@std@@U_BOT_SKILL@@@0@AAU10@@Z
	??$forward@AAU?$pair@$$CBV?$basic_string@DU?$char_traits@D@std@@V?$allocator@D@2@@std@@U_TEAMSIZEDEFINITIONS@@@std@@@std@@YAAAU?$pair@$$CBV?$basic_string@DU?$char_traits@D@std@@V?$allocator@D@2@@std@@U_TEAMSIZEDEFINITIONS@@@0@AAU10@@Z
	??$forward@AAV?$_List_iterator@V?$_List_val@U?$_List_simple_types@U?$pair@$$CBHU_BUILDABLE_STRUCTURE@@@std@@@std@@@std@@@std@@@std@@YAAAV?$_List_iterator@V?$_List_val@U?$_List_simple_types@U?$pair@$$CBHU_BUILDABLE_STRUCTURE@@@std@@@std@@@std@@@0@AAV10@@Z
	??$forward@AAV?$_List_iterator@V?$_List_val@U?$_List_simple_types@U?$pair@$$CBHU_DROPPED_MARINE_ITEM@@@std@@@std@@@std@@@std@@@std@@YAAAV?$_List_iterator@V?$_List_val@U?$_List_simple_types@U?$pair@$$CBHU_DROPPED_MARINE_ITEM@@@std@@@std@@@std@@@0@AAV10@@Z
	??$forward@AAV?$_List_iterator@V?$_List_val@U?$_List_simple_types@U?$pair@$$CBV?$basic_string@DU?$char_traits@D@std@@V?$allocator@D@2@@std@@U_BOT_SKILL@@@std@@@std@@@std@@@std@@@std@@YAAAV?$_List_iterator@V?$_List_val@U?$_List_simple_types@U?$pair@$$CBV?$basic_string@DU?$char_traits@D@std@@V?$allocator@D@2@@std@@U_BOT_SKILL@@@std@@@std@@@std@@@0@AAV10@@Z
	??$forward@AAV?$_List_iterator@V?$_List_val@U?$_List_simple_types@U?$pair@$$CBV?$basic_string@DU?$char_traits@D@std@@V?$allocator@D@2@@std@@U_TEAMSIZEDEFINITIONS@@@std@@@std@@@std@@@std@@@std@@YAAAV?$_List_iterator@V?$_List_val@U?$_List_simple_types@U?$pair@$$CBV?$basic_string@DU?$char_traits@D@std@@V?$allocator@D@2@@std@@U_TEAMSIZEDEFINITIONS@@@std@@@std@@@std@@@0@AAV10@@Z
	??$forward@ABH@std@@YAABHABH@Z
	??$forward@ABQAD@std@@YAABQADABQAD@Z
	??$forward@ABUpiecewise_construct_t@std@@@std@@YAABUpiecewise_construct_t@0@ABU10@@Z
	??$forward@ABV?$_List_unchecked_iterator@V?$_List_val@U?$_List_simple_types@U?$pair@$$CBHU_BUILDABLE_STRUCTURE@@@std@@@std@@@std@@@std@@@std@@YAABV?$_List_unchecked_iterator@V?$_List_val@U?$_List_simple_types@U?$pair@$$CBHU_BUILDABLE_STRUCTURE@@@std@@@std@@@std@@@0@ABV10@@Z
	??$forward@ABV?$_List_unchecked_iterator@V?$_List_val@U?$_List_simple_types@U?$pair@$$CBHU_DROPPED_MARINE_ITEM@@@std@@@std@@@std@@@std@@@std@@YAABV?$_List_unchecked_iterator@V?$_List_val@U?$_List_simple_types@U?$pair@$$CBHU_DROPPED_MARINE_ITEM@@@std@@@std@@@std@@@0@ABV10@@Z
	??$forward@ABV?$_List_unchecked_iterator@V?$_List_val@U?$_List_simple_types@U?$pair@$$CBV?$basic_string@DU?$char_traits@D@std@@V?$allocator@D@2@@std@@U_BOT_SKILL@@@std@@@std@@@std@@@std@@@std@@YAABV?$_List_unchecked_iterator@V?$_List_val@U?$_List_simple_types@U?$pair@$$CBV?$basic_string@DU?$char_traits@D@std@@V?$allocator@D@2@@std@@U_BOT_SKILL@@@std@@@std@@@std@@@0@ABV10@@Z
	??$forward@ABV?$_List_unchecked_iterator@V?$_List_val@U?$_List_simple_types@U?$pair@$$CBV?$basic_string@DU?$char_traits@D@std@@V?$allocator@D@2@@std@@U_TEAMSIZEDEFINITIONS@@@std@@@std@@@std@@@std@@@std@@YAABV?$_List_unchecked_iterator@V?$_List_val@U?$_List_simple_types@U?$pair@$$CBV?$basic_string@DU?$char_traits@D@std@@V?$allocator@D@2@@std@@U_TEAMSIZEDEFINITIONS@@@std@@@std@@@std@@@0@ABV10@@Z
	??$forward@ABV?$allocator@D@std@@@std@@YAABV?$allocator@D@0@ABV10@@Z
	??$forward@ABV?$allocator@U?$pair@$$CBHU_BUILDABLE_STRUCTURE@@@std@@@std@@@std@@YAABV?$allocator@U?$pair@$$CBHU_BUILDABLE_STRUCTURE@@@std@@@0@ABV10@@Z
	??$forward@ABV?$allocator@U?$pair@$$CBHU_DROPPED_MARINE_ITEM@@@std@@@std@@@std@@YAABV?$allocator@U?$pair@$$CBHU_DROPPED_MARINE_ITEM@@@std@@@0@ABV10@@Z
	??$forward@ABV?$allocator@U?$pair@$$CBV?$basic_string@DU?$char_traits@D@std@@V?$allocator@D@2@@std@@U_BOT_SKILL@@@std@@@std@@@std@@YAABV?$allocator@U?$pair@$$CBV?$basic_string@DU?$char_traits@D@std@@V?$allocator@D@2@@std@@U_BOT_SKILL@@@std@@@0@ABV10@@Z
	??$forward@ABV?$allocator@U?$pair@$$CBV?$basic_string@DU?$char_traits@D@std@@V?$allocator@D@2@@std@@U_TEAMSIZEDEFINITIONS@@@std@@@std@@@std@@YAABV?$allocator@U?$pair@$$CBV?$basic_string@DU?$char_traits@D@std@@V?$allocator@D@2@@std@@U_TEAMSIZEDEFINITIONS@@@std@@@0@ABV10@@Z
	??$forward@ABV?$allocator@V?$_List_unchecked_iterator@V?$_List_val@U?$_List_simple_types@U?$pair@$$CBHU_BUILDABLE_STRUCTURE@@@std@@@std@@@std@@@std@@@std@@@std@@YAABV?$allocator@V?$_List_unchecked_iterator@V?$_List_val@U?$_List_simple_types@U?$pair@$$CBHU_BUILDABLE_STRUCTURE@@@std@@@std@@@std@@@std@@@0@ABV10@@Z
	??$forward@ABV?$allocator@V?$_List_unchecked_iterator@V?$_List_val@U?$_List_simple_types@U?$pair@$$CBHU_DROPPED_MARINE_ITEM@@@std@@@std@@@std@@@std@@@std@@@std@@YAABV?$allocator@V?$_List_unchecked_iterator@V?$_List_val@U?$_List_simple_types@U?$pair@$$CBHU_DROPPED_MARINE_ITEM@@@std@@@std@@@std@@@std@@@0@ABV10@@Z
	??$forward@ABV?$allocator@V?$_List_unchecked_iterator@V?$_List_val@U?$_List_simple_types@U?$pair@$$CBV?$basic_string@DU?$char_traits@D@std@@V?$allocator@D@2@@std@@U_BOT_SKILL@@@std@@@std@@@std@@@std@@@std@@@std@@YAABV?$allocator@V?$_List_unchecked_iterator@V?$_List_val@U?$_List_simple_types@U?$pair@$$CBV?$basic_string@DU?$char_traits@D@std@@V?$allocator@D@2@@std@@U_BOT_SKILL@@@std@@@std@@@std@@@std@@@0@ABV10@@Z
	??$forward@ABV?$allocator@V?$_List_unchecked_iterator@V?$_List_val@U?$_List_simple_types@U?$pair@$$CBV?$basic_string@DU?$char_traits@D@std@@V?$allocator@D@2@@std@@U_TEAMSIZEDEFINITIONS@@@std@@@std@@@std@@@std@@@std@@@std@@YAABV?$allocator@V?$_List_unchecked_iterator@V?$_List_val@U?$_List_simple_types@U?$pair@$$CBV?$basic_string@DU?$char_traits@D@std@@V?$allocator@D@2@@std@@U_TEAMSIZEDEFINITIONS@@@std@@@std@@@std@@@std@@@0@ABV10@@Z
	??$forward@ABV?$allocator@W4HiveTechStatus@@@std@@@std@@YAABV?$allocator@W4HiveTechStatus@@@0@ABV10@@Z
	??$forward@ABV?$basic_string@DU?$char_traits@D@std@@V?$allocator@D@2@@std@@@std@@YAABV?$basic_string@DU?$char_traits@D@std@@V?$allocator@D@2@@0@ABV10@@Z
	??$forward@M@std@@YA$$QAMAAM@Z
	??$forward@U_Container_proxy@std@@@std@@YA$$QAU_Container_proxy@0@AAU10@@Z
	??$forward@U_One_then_variadic_args_t@std@@@std@@YA$$QAU_One_then_variadic_args_t@0@AAU10@@Z
	??$forward@V?$_List_iterator@V?$_List_val@U?$_List_simple_types@U?$pair@$$CBHU_BUILDABLE_STRUCTURE@@@std@@@std@@@std@@@std@@@std@@YA$$QAV?$_List_iterator@V?$_List_val@U?$_List_simple_types@U?$pair@$$CBHU_BUILDABLE_STRUCTURE@@@std@@@std@@@std@@@0@AAV10@@Z
	??$forward@V?$_List_iterator@V?$_List_val@U?$_List_simple_types@U?$pair@$$CBHU_DROPPED_MARINE_ITEM@@@std@@@std@@@std@@@std@@@std@@YA$$QAV?$_List_iterator@V?$_List_val@U?$_List_simple_types@U?$pair@$$CBHU_DROPPED_MARINE_ITEM@@@std@@@std@@@std@@@0@AAV10@@Z
	??$forward@V?$_List_iterator@V?$_List_val@U?$_List_simple_types@U?$pair@$$CBV?$basic_string@DU?$char_traits@D@std@@V?$allocator@D@2@@std@@U_BOT_SKILL@@@std@@@std@@@std@@@std@@@std@@YA$$QAV?$_List_iterator@V?$_List_val@U?$_List_simple_types@U?$pair@$$CBV?$basic_string@DU?$char_traits@D@std@@V?$allocator@D@2@@std@@U_BOT_SKILL@@@std@@@std@@@std@@@0@AAV10@@Z
	??$forward@V?$_List_iterator@V?$_List_val@U?$_List_simple_types@U?$pair@$$CBV?$basic_string@DU?$char_traits@D@std@@V?$allocator@D@2@@std@@U_TEAMSIZEDEFINITIONS@@@std@@@std@@@std@@@std@@@std@@YA$$QAV?$_List_iterator@V?$_List_val@U?$_List_simple_types@U?$pair@$$CBV?$basic_string@DU?$char_traits@D@std@@V?$allocator@D@2@@std@@U_TEAMSIZEDEFINITIONS@@@std@@@std@@@std@@@0@AAV10@@Z
	??$forward@V?$_List_unchecked_iterator@V?$_List_val@U?$_List_simple_types@U?$pair@$$CBHU_BUILDABLE_STRUCTURE@@@std@@@std@@@std@@@std@@@std@@YA$$QAV?$_List_unchecked_iterator@V?$_List_val@U?$_List_simple_types@U?$pair@$$CBHU_BUILDABLE_STRUCTURE@@@std@@@std@@@std@@@0@AAV10@@Z
	??$forward@V?$_List_unchecked_iterator@V?$_List_val@U?$_List_simple_types@U?$pair@$$CBHU_DROPPED_MARINE_ITEM@@@std@@@std@@@std@@@std@@@std@@YA$$QAV?$_List_unchecked_iterator@V?$_List_val@U?$_List_simple_types@U?$pair@$$CBHU_DROPPED_MARINE_ITEM@@@std@@@std@@@std@@@0@AAV10@@Z
	??$forward@V?$_List_unchecked_iterator@V?$_List_val@U?$_List_simple_types@U?$pair@$$CBV?$basic_string@DU?$char_traits@D@std@@V?$allocator@D@2@@std@@U_BOT_SKILL@@@std@@@std@@@std@@@std@@@std@@YA$$QAV?$_List_unchecked_iterator@V?$_List_val@U?$_List_simple_types@U?$pair@$$CBV?$basic_string@DU?$char_traits@D@std@@V?$allocator@D@2@@std@@U_BOT_SKILL@@@std@@@std@@@std@@@0@AAV10@@Z
	??$forward@V?$_List_unchecked_iterator@V?$_List_val@U?$_List_simple_types@U?$pair@$$CBV?$basic_string@DU?$char_traits@D@std@@V?$allocator@D@2@@std@@U_TEAMSIZEDEFINITIONS@@@std@@@std@@@std@@@std@@@std@@YA$$QAV?$_List_unchecked_iterator@V?$_List_val@U?$_List_simple_types@U?$pair@$$CBV?$basic_string@DU?$char_traits@D@std@@V?$allocator@D@2@@std@@U_TEAMSIZEDEFINITIONS@@@std@@@std@@@std@@@0@AAV10@@Z
	??$forward@V?$allocator@D@std@@@std@@YA$$QAV?$allocator@D@0@AAV10@@Z
	??$forward@V?$basic_string@DU?$char_traits@D@std@@V?$allocator@D@2@@std@@@std@@YA$$QAV?$basic_string@DU?$char_traits@D@std@@V?$allocator@D@2@@0@AAV10@@Z
	??$forward@V?$tuple@$$QAV?$basic_string@DU?$char_traits@D@std@@V?$allocator@D@2@@std@@@std@@@std@@YA$$QAV?$tuple@$$QAV?$basic_string@DU?$char_traits@D@std@@V?$allocator@D@2@@std@@@0@AAV10@@Z
	??$forward@V?$tuple@$$V@std@@@std@@YA$$QAV?$tuple@$$V@0@AAV10@@Z
	??$forward@V?$tuple@ABH@std@@@std@@YA$$QAV?$tuple@ABH@0@AAV10@@Z
	??$forward@V?$tuple@ABV?$basic_string@DU?$char_traits@D@std@@V?$allocator@D@2@@std@@@std@@@std@@YA$$QAV?$tuple@ABV?$basic_string@DU?$char_traits@D@std@@V?$allocator@D@2@@std@@@0@AAV10@@Z
	??$forward@_N@std@@YA$$QA_NAA_N@Z
	??$forward_as_tuple@$$V@std@@YA?AV?$tuple@$$V@0@XZ
	??$forward_as_tuple@ABH@std@@YA?AV?$tuple@ABH@0@ABH@Z
	??$forward_as_tuple@ABV?$basic_string@DU?$char_traits@D@std@@V?$allocator@D@2@@std@@@std@@YA?AV?$tuple@ABV?$basic_string@DU?$char_traits@D@std@@V?$allocator@D@2@@std@@@0@ABV?$basic_string@DU?$char_traits@D@std@@V?$allocator@D@2@@0@@Z
	??$forward_as_tuple@V?$basic_string@DU?$char_traits@D@std@@V?$allocator@D@2@@std@@@std@@YA?AV?$tuple@$$QAV?$basic_string@DU?$char_traits@D@std@@V?$allocator@D@2@@std@@@0@$$QAV?$basic_string@DU?$char_traits@D@std@@V?$allocator@D@2@@0@@Z
	??$get@$0A@$$QAV?$basic_string@DU?$char_traits@D@std@@V?$allocator@D@2@@std@@@std@@YA$$QAV?$basic_string@DU?$char_traits@D@std@@V?$allocator@D@2@@0@$$QAV?$tuple@$$QAV?$basic_string@DU?$char_traits@D@std@@V?$allocator@D@2@@std@@@0@@Z
	??$get@$0A@ABH@std@@YAABH$$QAV?$tuple@ABH@0@@Z
	??$get@$0A@ABV?$basic_string@DU?$char_traits@D@std@@V?$allocator@D@2@@std@@@std@@YAABV?$basic_string@DU?$char_traits@D@std@@V?$allocator@D@2@@0@$$QAV?$tuple@ABV?$basic_string@DU?$char_traits@D@std@@V?$allocator@D@2@@std@@@0@@Z
	??$getline@DU?$char_traits@D@std@@V?$allocator@D@2@@std@@YAAAV?$basic_istream@DU?$char_traits@D@std@@@0@$$QAV10@AAV?$basic_string@DU?$char_traits@D@std@@V?$allocator@D@2@@0@D@Z
	??$getline@DU?$char_traits@D@std@@V?$allocator@D@2@@std@@YAAAV?$basic_istream@DU?$char_traits@D@std@@@0@AAV10@AAV?$basic_string@DU?$char_traits@D@std@@V?$allocator@D@2@@0@@Z
	??$isnan@M@@YA_NM@Z
	??$move@AAD@std@@YA$$QADAAD@Z
	??$move@AAV?$_List_unchecked_iterator@V?$_List_val@U?$_List_simple_types@U?$pair@$$CBHU_BUILDABLE_STRUCTURE@@@std@@@std@@@std@@@std@@@std@@YA$$QAV?$_List_unchecked_iterator@V?$_List_val@U?$_List_simple_types@U?$pair@$$CBHU_BUILDABLE_STRUCTURE@@@std@@@std@@@std@@@0@AAV10@@Z
	??$move@AAV?$_List_unchecked_iterator@V?$_List_val@U?$_List_simple_types@U?$pair@$$CBHU_DROPPED_MARINE_ITEM@@@std@@@std@@@std@@@std@@@std@@YA$$QAV?$_List_unchecked_iterator@V?$_List_val@U?$_List_simple_types@U?$pair@$$CBHU_DROPPED_MARINE_ITEM@@@std@@@std@@@std@@@0@AAV10@@Z
	??$move@AAV?$_List_unchecked_iterator@V?$_List_val@U?$_List_simple_types@U?$pair@$$CBV?$basic_string@DU?$char_traits@D@std@@V?$allocator@D@2@@std@@U_BOT_SKILL@@@std@@@std@@@std@@@std@@@std@@YA$$QAV?$_List_unchecked_iterator@V?$_List_val@U?$_List_simple_types@U?$pair@$$CBV?$basic_string@DU?$char_traits@D@std@@V?$allocator@D@2@@std@@U_BOT_SKILL@@@std@@@std@@@std@@@0@AAV10@@Z
	??$move@AAV?$_List_unchecked_iterator@V?$_List_val@U?$_List_simple_types@U?$pair@$$CBV?$basic_string@DU?$char_traits@D@std@@V?$allocator@D@2@@std@@U_TEAMSIZEDEFINITIONS@@@std@@@std@@@std@@@std@@@std@@YA$$QAV?$_List_unchecked_iterator@V?$_List_val@U?$_List_simple_types@U?$pair@$$CBV?$basic_string@DU?$char_traits@D@std@@V?$allocator@D@2@@std@@U_TEAMSIZEDEFINITIONS@@@std@@@std@@@std@@@0@AAV10@@Z
	??$move@AAV?$allocator@D@std@@@std@@YA$$QAV?$allocator@D@0@AAV10@@Z
	??$move@AAV?$basic_istream@DU?$char_traits@D@std@@@std@@@std@@YA$$QAV?$basic_istream@DU?$char_traits@D@std@@@0@AAV10@@Z
	??$move@AAV?$basic_string@DU?$char_traits@D@std@@V?$allocator@D@2@@std@@@std@@YA$$QAV?$basic_string@DU?$char_traits@D@std@@V?$allocator@D@2@@0@AAV10@@Z
	??$move@AAV?$tuple@$$QAV?$basic_string@DU?$char_traits@D@std@@V?$allocator@D@2@@std@@@std@@@std@@YA$$QAV?$tuple@$$QAV?$basic_string@DU?$char_traits@D@std@@V?$allocator@D@2@@std@@@0@AAV10@@Z
	??$move@AAV?$tuple@ABH@std@@@std@@YA$$QAV?$tuple@ABH@0@AAV10@@Z
	??$move@AAV?$tuple@ABV?$basic_string@DU?$char_traits@D@std@@V?$allocator@D@2@@std@@@std@@@std@@YA$$QAV?$tuple@ABV?$basic_string@DU?$char_traits@D@std@@V?$allocator@D@2@@std@@@0@AAV10@@Z
	??$move@AAW4HiveTechStatus@@@std@@YA$$QAW4HiveTechStatus@@AAW41@@Z
	??$remove@V?$_Vector_iterator@V?$_Vector_val@U?$_Simple_types@W4HiveTechStatus@@@std@@@std@@@std@@W4HiveTechStatus@@@std@@YA?AV?$_Vector_iterator@V?$_Vector_val@U?$_Simple_types@W4HiveTechStatus@@@std@@@std@@@0@V10@V10@ABW4HiveTechStatus@@@Z
	??$remove_if@V?$_String_iterator@V?$_String_val@U?$_Simple_types@D@std@@@std@@@std@@P6AHH@Z@std@@YA?AV?$_String_iterator@V?$_String_val@U?$_Simple_types@D@std@@@std@@@0@V10@V10@P6AHH@Z@Z
	??$try_emplace@$$V@?$unordered_map@HU_BUILDABLE_STRUCTURE@@U?$hash@H@std@@U?$equal_to@H@3@V?$allocator@U?$pair@$$CBHU_BUILDABLE_STRUCTURE@@@std@@@3@@std@@QAE?AU?$pair@V?$_List_iterator@V?$_List_val@U?$_List_simple_types@U?$pair@$$CBHU_BUILDABLE_STRUCTURE@@@std@@@std@@@std@@@std@@_N@1@ABH@Z
	??$try_emplace@$$V@?$unordered_map@HU_DROPPED_MARINE_ITEM@@U?$hash@H@std@@U?$equal_to@H@3@V?$allocator@U?$pair@$$CBHU_DROPPED_MARINE_ITEM@@@std@@@3@@std@@QAE?AU?$pair@V?$_List_iterator@V?$_List_val@U?$_List_simple_types@U?$pair@$$CBHU_DROPPED_MARINE_ITEM@@@std@@@std@@@std@@@std@@_N@1@ABH@Z
	??$try_emplace@$$V@?$unordered_map@V?$basic_string@DU?$char_traits@D@std@@V?$allocator@D@2@@std@@U_BOT_SKILL@@U?$hash@V?$basic_string@DU?$char_traits@D@std@@V?$allocator@D@2@@std@@@2@U?$equal_to@V?$basic_string@DU?$char_traits@D@std@@V?$allocator@D@2@@std@@@2@V?$allocator@U?$pair@$$CBV?$basic_string@DU?$char_traits@D@std@@V?$allocator@D@2@@std@@U_BOT_SKILL@@@std@@@2@@std@@QAE?AU?$pair@V?$_List_iterator@V?$_List_val@U?$_List_simple_types@U?$pair@$$CBV?$basic_string@DU?$char_traits@D@std@@V?$allocator@D@2@@std@@U_BOT_SKILL@@@std@@@std@@@std@@@std@@_N@1@$$QAV?$basic_string@DU?$char_traits@D@std@@V?$allocator@D@2@@1@@Z
	??$try_emplace@$$V@?$unordered_map@V?$basic_string@DU?$char_traits@D@std@@V?$allocator@D@2@@std@@U_TEAMSIZEDEFINITIONS@@U?$hash@V?$basic_string@DU?$char_traits@D@std@@V?$allocator@D@2@@std@@@2@U?$equal_to@V?$basic_string@DU?$char_traits@D@std@@V?$allocator@D@2@@std@@@2@V?$allocator@U?$pair@$$CBV?$basic_string@DU?$char_traits@D@std@@V?$allocator@D@2@@std@@U_TEAMSIZEDEFINITIONS@@@std@@@2@@std@@QAE?AU?$pair@V?$_List_iterator@V?$_List_val@U?$_List_simple_types@U?$pair@$$CBV?$basic_string@DU?$char_traits@D@std@@V?$allocator@D@2@@std@@U_TEAMSIZEDEFINITIONS@@@std@@@std@@@std@@@std@@_N@1@$$QAV?$basic_string@DU?$char_traits@D@std@@V?$allocator@D@2@@1@@Z
	??$try_emplace@$$V@?$unordered_map@V?$basic_string@DU?$char_traits@D@std@@V?$allocator@D@2@@std@@U_TEAMSIZEDEFINITIONS@@U?$hash@V?$basic_string@DU?$char_traits@D@std@@V?$allocator@D@2@@std@@@2@U?$equal_to@V?$basic_string@DU?$char_traits@D@std@@V?$allocator@D@2@@std@@@2@V?$allocator@U?$pair@$$CBV?$basic_string@DU?$char_traits@D@std@@V?$allocator@D@2@@std@@U_TEAMSIZEDEFINITIONS@@@std@@@2@@std@@QAE?AU?$pair@V?$_List_iterator@V?$_List_val@U?$_List_simple_types@U?$pair@$$CBV?$basic_string@DU?$char_traits@D@std@@V?$allocator@D@2@@std@@U_TEAMSIZEDEFINITIONS@@@std@@@std@@@std@@@std@@_N@1@ABV?$basic_string@DU?$char_traits@D@std@@V?$allocator@D@2@@1@@Z
	??$use_facet@V?$codecvt@DDU_Mbstatet@@@std@@@std@@YAABV?$codecvt@DDU_Mbstatet@@@0@ABVlocale@0@@Z
	??0?$_Hash@V?$_Umap_traits@HU_BUILDABLE_STRUCTURE@@V?$_Uhash_compare@HU?$hash@H@std@@U?$equal_to@H@2@@std@@V?$allocator@U?$pair@$$CBHU_BUILDABLE_STRUCTURE@@@std@@@3@$0A@@std@@@std@@QAE@ABV?$_Uhash_compare@HU?$hash@H@std@@U?$equal_to@H@2@@1@ABV?$allocator@U?$pair@$$CBHU_BUILDABLE_STRUCTURE@@@std@@@1@@Z
	??0?$_Hash@V?$_Umap_traits@HU_DROPPED_MARINE_ITEM@@V?$_Uhash_compare@HU?$hash@H@std@@U?$equal_to@H@2@@std@@V?$allocator@U?$pair@$$CBHU_DROPPED_MARINE_ITEM@@@std@@@3@$0A@@std@@@std@@QAE@ABV?$_Uhash_compare@HU?$hash@H@std@@U?$equal_to@H@2@@1@ABV?$allocator@U?$pair@$$CBHU_DROPPED_MARINE_ITEM@@@std@@@1@@Z
	??0?$_Hash@V?$_Umap_traits@V?$basic_string@DU?$char_traits@D@std@@V?$allocator@D@2@@std@@U_BOT_SKILL@@V?$_Uhash_compare@V?$basic_string@DU?$char_traits@D@std@@V?$allocator@D@2@@std@@U?$hash@V?$basic_string@DU?$char_traits@D@std@@V?$allocator@D@2@@std@@@2@U?$equal_to@V?$basic_string@DU?$char_traits@D@std@@V?$allocator@D@2@@std@@@2@@2@V?$allocator@U?$pair@$$CBV?$basic_string@DU?$char_traits@D@std@@V?$allocator@D@2@@std@@U_BOT_SKILL@@@std@@@2@$0A@@std@@@std@@QAE@ABV?$_Uhash_compare@V?$basic_string@DU?$char_traits@D@std@@V?$allocator@D@2@@std@@U?$hash@V?$basic_string@DU?$char_traits@D@std@@V?$allocator@D@2@@std@@@2@U?$equal_to@V?$basic_string@DU?$char_traits@D@std@@V?$allocator@D@2@@std@@@2@@1@ABV?$allocator@U?$pair@$$CBV?$basic_string@DU?$char_traits@D@std@@V?$allocator@D@2@@std@@U_BOT_SKILL@@@std@@@1@@Z
	??0?$_Hash@V?$_Umap_traits@V?$basic_string@DU?$char_traits@D@std@@V?$allocator@D@2@@std@@U_TEAMSIZEDEFINITIONS@@V?$_Uhash_compare@V?$basic_string@DU?$char_traits@D@std@@V?$allocator@D@2@@std@@U?$hash@V?$basic_string@DU?$char_traits@D@std@@V?$allocator@D@2@@std@@@2@U?$equal_to@V?$basic_string@DU?$char_traits@D@std@@V?$allocator@D@2@@std@@@2@@2@V?$allocator@U?$pair@$$CBV?$basic_string@DU?$char_traits@D@std@@V?$allocator@D@2@@std@@U_TEAMSIZEDEFINITIONS@@@std@@@2@$0A@@std@@@std@@QAE@ABV?$_Uhash_compare@V?$basic_string@DU?$char_traits@D@std@@V?$allocator@D@2@@std@@U?$hash@V?$basic_string@DU?$char_traits@D@std@@V?$allocator@D@2@@std@@@2@U?$equal_to@V?$basic_string@DU?$char_traits@D@std@@V?$allocator@D@2@@std@@@2@@1@ABV?$allocator@U?$pair@$$CBV?$basic_string@DU?$char_traits@D@std@@V?$allocator@D@2@@std@@U_TEAMSIZEDEFINITIONS@@@std@@@1@@Z
	??0?$_List_const_iterator@V?$_List_val@U?$_List_simple_types@U?$pair@$$CBHU_BUILDABLE_STRUCTURE@@@std@@@std@@@std@@@std@@QAE@$$QAV01@@Z
	??0?$_List_const_iterator@V?$_List_val@U?$_List_simple_types@U?$pair@$$CBHU_BUILDABLE_STRUCTURE@@@std@@@std@@@std@@@std@@QAE@ABV01@@Z
	??0?$_List_const_iterator@V?$_List_val@U?$_List_simple_types@U?$pair@$$CBHU_BUILDABLE_STRUCTURE@@@std@@@std@@@std@@@std@@QAE@PAU?$_List_node@U?$pair@$$CBHU_BUILDABLE_STRUCTURE@@@std@@PAX@1@PBV?$_List_val@U?$_List_simple_types@U?$pair@$$CBHU_BUILDABLE_STRUCTURE@@@std@@@std@@@1@@Z
	??0?$_List_const_iterator@V?$_List_val@U?$_List_simple_types@U?$pair@$$CBHU_DROPPED_MARINE_ITEM@@@std@@@std@@@std@@@std@@QAE@$$QAV01@@Z
	??0?$_List_const_iterator@V?$_List_val@U?$_List_simple_types@U?$pair@$$CBHU_DROPPED_MARINE_ITEM@@@std@@@std@@@std@@@std@@QAE@ABV01@@Z
	??0?$_List_const_iterator@V?$_List_val@U?$_List_simple_types@U?$pair@$$CBHU_DROPPED_MARINE_ITEM@@@std@@@std@@@std@@@std@@QAE@PAU?$_List_node@U?$pair@$$CBHU_DROPPED_MARINE_ITEM@@@std@@PAX@1@PBV?$_List_val@U?$_List_simple_types@U?$pair@$$CBHU_DROPPED_MARINE_ITEM@@@std@@@std@@@1@@Z
	??0?$_List_const_iterator@V?$_List_val@U?$_List_simple_types@U?$pair@$$CBV?$basic_string@DU?$char_traits@D@std@@V?$allocator@D@2@@std@@U_BOT_SKILL@@@std@@@std@@@std@@@std@@QAE@$$QAV01@@Z
	??0?$_List_const_iterator@V?$_List_val@U?$_List_simple_types@U?$pair@$$CBV?$basic_string@DU?$char_traits@D@std@@V?$allocator@D@2@@std@@U_BOT_SKILL@@@std@@@std@@@std@@@std@@QAE@ABV01@@Z
	??0?$_List_const_iterator@V?$_List_val@U?$_List_simple_types@U?$pair@$$CBV?$basic_string@DU?$char_traits@D@std@@V?$allocator@D@2@@std@@U_BOT_SKILL@@@std@@@std@@@std@@@std@@QAE@PAU?$_List_node@U?$pair@$$CBV?$basic_string@DU?$char_traits@D@std@@V?$allocator@D@2@@std@@U_BOT_SKILL@@@std@@PAX@1@PBV?$_List_val@U?$_List_simple_types@U?$pair@$$CBV?$basic_string@DU?$char_traits@D@std@@V?$allocator@D@2@@std@@U_BOT_SKILL@@@std@@@std@@@1@@Z
	??0?$_List_const_iterator@V?$_List_val@U?$_List_simple_types@U?$pair@$$CBV?$basic_string@DU?$char_traits@D@std@@V?$allocator@D@2@@std@@U_TEAMSIZEDEFINITIONS@@@std@@@std@@@std@@@std@@QAE@$$QAV01@@Z
	??0?$_List_const_iterator@V?$_List_val@U?$_List_simple_types@U?$pair@$$CBV?$basic_string@DU?$char_traits@D@std@@V?$allocator@D@2@@std@@U_TEAMSIZEDEFINITIONS@@@std@@@std@@@std@@@std@@QAE@ABV01@@Z
	??0?$_List_const_iterator@V?$_List_val@U?$_List_simple_types@U?$pair@$$CBV?$basic_string@DU?$char_traits@D@std@@V?$allocator@D@2@@std@@U_TEAMSIZEDEFINITIONS@@@std@@@std@@@std@@@std@@QAE@PAU?$_List_node@U?$pair@$$CBV?$basic_string@DU?$char_traits@D@std@@V?$allocator@D@2@@std@@U_TEAMSIZEDEFINITIONS@@@std@@PAX@1@PBV?$_List_val@U?$_List_simple_types@U?$pair@$$CBV?$basic_string@DU?$char_traits@D@std@@V?$allocator@D@2@@std@@U_TEAMSIZEDEFINITIONS@@@std@@@std@@@1@@Z
	??0?$_List_iterator@V?$_List_val@U?$_List_simple_types@U?$pair@$$CBHU_BUILDABLE_STRUCTURE@@@std@@@std@@@std@@@std@@QAE@$$QAV01@@Z
	??0?$_List_iterator@V?$_List_val@U?$_List_simple_types@U?$pair@$$CBHU_BUILDABLE_STRUCTURE@@@std@@@std@@@std@@@std@@QAE@ABV01@@Z
	??0?$_List_iterator@V?$_List_val@U?$_List_simple_types@U?$pair@$$CBHU_BUILDABLE_STRUCTURE@@@std@@@std@@@std@@@std@@QAE@PAU?$_List_node@U?$pair@$$CBHU_BUILDABLE_STRUCTURE@@@std@@PAX@1@PBV?$_List_val@U?$_List_simple_types@U?$pair@$$CBHU_BUILDABLE_STRUCTURE@@@std@@@std@@@1@@Z
	??0?$_List_iterator@V?$_List_val@U?$_List_simple_types@U?$pair@$$CBHU_DROPPED_MARINE_ITEM@@@std@@@std@@@std@@@std@@QAE@$$QAV01@@Z
	??0?$_List_iterator@V?$_List_val@U?$_List_simple_types@U?$pair@$$CBHU_DROPPED_MARINE_ITEM@@@std@@@std@@@std@@@std@@QAE@ABV01@@Z
	??0?$_List_iterator@V?$_List_val@U?$_List_simple_types@U?$pair@$$CBHU_DROPPED_MARINE_ITEM@@@std@@@std@@@std@@@std@@QAE@PAU?$_List_node@U?$pair@$$CBHU_DROPPED_MARINE_ITEM@@@std@@PAX@1@PBV?$_List_val@U?$_List_simple_types@U?$pair@$$CBHU_DROPPED_MARINE_ITEM@@@std@@@std@@@1@@Z
	??0?$_List_iterator@V?$_List_val@U?$_List_simple_types@U?$pair@$$CBV?$basic_string@DU?$char_traits@D@std@@V?$allocator@D@2@@std@@U_BOT_SKILL@@@std@@@std@@@std@@@std@@QAE@$$QAV01@@Z
	??0?$_List_iterator@V?$_List_val@U?$_List_simple_types@U?$pair@$$CBV?$basic_string@DU?$char_traits@D@std@@V?$allocator@D@2@@std@@U_BOT_SKILL@@@std@@@std@@@std@@@std@@QAE@ABV01@@Z
	??0?$_List_iterator@V?$_List_val@U?$_List_simple_types@U?$pair@$$CBV?$basic_string@DU?$char_traits@D@std@@V?$allocator@D@2@@std@@U_BOT_SKILL@@@std@@@std@@@std@@@std@@QAE@PAU?$_List_node@U?$pair@$$CBV?$basic_string@DU?$char_traits@D@std@@V?$allocator@D@2@@std@@U_BOT_SKILL@@@std@@PAX@1@PBV?$_List_val@U?$_List_simple_types@U?$pair@$$CBV?$basic_string@DU?$char_traits@D@std@@V?$allocator@D@2@@std@@U_BOT_SKILL@@@std@@@std@@@1@@Z
	??0?$_List_iterator@V?$_List_val@U?$_List_simple_types@U?$pair@$$CBV?$basic_string@DU?$char_traits@D@std@@V?$allocator@D@2@@std@@U_TEAMSIZEDEFINITIONS@@@std@@@std@@@std@@@std@@QAE@$$QAV01@@Z
	??0?$_List_iterator@V?$_List_val@U?$_List_simple_types@U?$pair@$$CBV?$basic_string@DU?$char_traits@D@std@@V?$allocator@D@2@@std@@U_TEAMSIZEDEFINITIONS@@@std@@@std@@@std@@@std@@QAE@ABV01@@Z
	??0?$_List_iterator@V?$_List_val@U?$_List_simple_types@U?$pair@$$CBV?$basic_string@DU?$char_traits@D@std@@V?$allocator@D@2@@std@@U_TEAMSIZEDEFINITIONS@@@std@@@std@@@std@@@std@@QAE@PAU?$_List_node@U?$pair@$$CBV?$basic_string@DU?$char_traits@D@std@@V?$allocator@D@2@@std@@U_TEAMSIZEDEFINITIONS@@@std@@PAX@1@PBV?$_List_val@U?$_List_simple_types@U?$pair@$$CBV?$basic_string@DU?$char_traits@D@std@@V?$allocator@D@2@@std@@U_TEAMSIZEDEFINITIONS@@@std@@@std@@@1@@Z
	??0?$_List_unchecked_const_iterator@V?$_List_val@U?$_List_simple_types@U?$pair@$$CBHU_BUILDABLE_STRUCTURE@@@std@@@std@@@std@@U_Iterator_base0@2@@std@@QAE@PAU?$_List_node@U?$pair@$$CBHU_BUILDABLE_STRUCTURE@@@std@@PAX@1@PBV?$_List_val@U?$_List_simple_types@U?$pair@$$CBHU_BUILDABLE_STRUCTURE@@@std@@@std@@@1@@Z
	??0?$_List_unchecked_const_iterator@V?$_List_val@U?$_List_simple_types@U?$pair@$$CBHU_BUILDABLE_STRUCTURE@@@std@@@std@@@std@@U_Iterator_base0@2@@std@@QAE@XZ
	??0?$_List_unchecked_const_iterator@V?$_List_val@U?$_List_simple_types@U?$pair@$$CBHU_BUILDABLE_STRUCTURE@@@std@@@std@@@std@@U_Iterator_base12@2@@std@@QAE@$$QAV01@@Z
	??0?$_List_unchecked_const_iterator@V?$_List_val@U?$_List_simple_types@U?$pair@$$CBHU_BUILDABLE_STRUCTURE@@@std@@@std@@@std@@U_Iterator_base12@2@@std@@QAE@ABV01@@Z
	??0?$_List_unchecked_const_iterator@V?$_List_val@U?$_List_simple_types@U?$pair@$$CBHU_BUILDABLE_STRUCTURE@@@std@@@std@@@std@@U_Iterator_base12@2@@std@@QAE@PAU?$_List_node@U?$pair@$$CBHU_BUILDABLE_STRUCTURE@@@std@@PAX@1@PBV?$_List_val@U?$_List_simple_types@U?$pair@$$CBHU_BUILDABLE_STRUCTURE@@@std@@@std@@@1@@Z
	??0?$_List_unchecked_const_iterator@V?$_List_val@U?$_List_simple_types@U?$pair@$$CBHU_DROPPED_MARINE_ITEM@@@std@@@std@@@std@@U_Iterator_base0@2@@std@@QAE@PAU?$_List_node@U?$pair@$$CBHU_DROPPED_MARINE_ITEM@@@std@@PAX@1@PBV?$_List_val@U?$_List_simple_types@U?$pair@$$CBHU_DROPPED_MARINE_ITEM@@@std@@@std@@@1@@Z
	??0?$_List_unchecked_const_iterator@V?$_List_val@U?$_List_simple_types@U?$pair@$$CBHU_DROPPED_MARINE_ITEM@@@std@@@std@@@std@@U_Iterator_base0@2@@std@@QAE@XZ
	??0?$_List_unchecked_const_iterator@V?$_List_val@U?$_List_simple_types@U?$pair@$$CBHU_DROPPED_MARINE_ITEM@@@std@@@std@@@std@@U_Iterator_base12@2@@std@@QAE@$$QAV01@@Z
	??0?$_List_unchecked_const_iterator@V?$_List_val@U?$_List_simple_types@U?$pair@$$CBHU_DROPPED_MARINE_ITEM@@@std@@@std@@@std@@U_Iterator_base12@2@@std@@QAE@ABV01@@Z
	??0?$_List_unchecked_const_iterator@V?$_List_val@U?$_List_simple_types@U?$pair@$$CBHU_DROPPED_MARINE_ITEM@@@std@@@std@@@std@@U_Iterator_base12@2@@std@@QAE@PAU?$_List_node@U?$pair@$$CBHU_DROPPED_MARINE_ITEM@@@std@@PAX@1@PBV?$_List_val@U?$_List_simple_types@U?$pair@$$CBHU_DROPPED_MARINE_ITEM@@@std@@@std@@@1@@Z
	??0?$_List_unchecked_const_iterator@V?$_List_val@U?$_List_simple_types@U?$pair@$$CBV?$basic_string@DU?$char_traits@D@std@@V?$allocator@D@2@@std@@U_BOT_SKILL@@@std@@@std@@@std@@U_Iterator_base0@2@@std@@QAE@PAU?$_List_node@U?$pair@$$CBV?$basic_string@DU?$char_traits@D@std@@V?$allocator@D@2@@std@@U_BOT_SKILL@@@std@@PAX@1@PBV?$_List_val@U?$_List_simple_types@U?$pair@$$CBV?$basic_string@DU?$char_traits@D@std@@V?$allocator@D@2@@std@@U_BOT_SKILL@@@std@@@std@@@1@@Z
	??0?$_List_unchecked_const_iterator@V?$_List_val@U?$_List_simple_types@U?$pair@$$CBV?$basic_string@DU?$char_traits@D@std@@V?$allocator@D@2@@std@@U_BOT_SKILL@@@std@@@std@@@std@@U_Iterator_base0@2@@std@@QAE@XZ
	??0?$_List_unchecked_const_iterator@V?$_List_val@U?$_List_simple_types@U?$pair@$$CBV?$basic_string@DU?$char_traits@D@std@@V?$allocator@D@2@@std@@U_BOT_SKILL@@@std@@@std@@@std@@U_Iterator_base12@2@@std@@QAE@$$QAV01@@Z
	??0?$_List_unchecked_const_iterator@V?$_List_val@U?$_List_simple_types@U?$pair@$$CBV?$basic_string@DU?$char_traits@D@std@@V?$allocator@D@2@@std@@U_BOT_SKILL@@@std@@@std@@@std@@U_Iterator_base12@2@@std@@QAE@ABV01@@Z
	??0?$_List_unchecked_const_iterator@V?$_List_val@U?$_List_simple_types@U?$pair@$$CBV?$basic_string@DU?$char_traits@D@std@@V?$allocator@D@2@@std@@U_BOT_SKILL@@@std@@@std@@@std@@U_Iterator_base12@2@@std@@QAE@PAU?$_List_node@U?$pair@$$CBV?$basic_string@DU?$char_traits@D@std@@V?$allocator@D@2@@std@@U_BOT_SKILL@@@std@@PAX@1@PBV?$_List_val@U?$_List_simple_types@U?$pair@$$CBV?$basic_string@DU?$char_traits@D@std@@V?$allocator@D@2@@std@@U_BOT_SKILL@@@std@@@std@@@1@@Z
	??0?$_List_unchecked_const_iterator@V?$_List_val@U?$_List_simple_types@U?$pair@$$CBV?$basic_string@DU?$char_traits@D@std@@V?$allocator@D@2@@std@@U_TEAMSIZEDEFINITIONS@@@std@@@std@@@std@@U_Iterator_base0@2@@std@@QAE@PAU?$_List_node@U?$pair@$$CBV?$basic_string@DU?$char_traits@D@std@@V?$allocator@D@2@@std@@U_TEAMSIZEDEFINITIONS@@@std@@PAX@1@PBV?$_List_val@U?$_List_simple_types@U?$pair@$$CBV?$basic_string@DU?$char_traits@D@std@@V?$allocator@D@2@@std@@U_TEAMSIZEDEFINITIONS@@@std@@@std@@@1@@Z
	??0?$_List_unchecked_const_iterator@V?$_List_val@U?$_List_simple_types@U?$pair@$$CBV?$basic_string@DU?$char_traits@D@std@@V?$allocator@D@2@@std@@U_TEAMSIZEDEFINITIONS@@@std@@@std@@@std@@U_Iterator_base0@2@@std@@QAE@XZ
	??0?$_List_unchecked_const_iterator@V?$_List_val@U?$_List_simple_types@U?$pair@$$CBV?$basic_string@DU?$char_traits@D@std@@V?$allocator@D@2@@std@@U_TEAMSIZEDEFINITIONS@@@std@@@std@@@std@@U_Iterator_base12@2@@std@@QAE@$$QAV01@@Z
	??0?$_List_unchecked_const_iterator@V?$_List_val@U?$_List_simple_types@U?$pair@$$CBV?$basic_string@DU?$char_traits@D@std@@V?$allocator@D@2@@std@@U_TEAMSIZEDEFINITIONS@@@std@@@std@@@std@@U_Iterator_base12@2@@std@@QAE@ABV01@@Z
	??0?$_List_unchecked_const_iterator@V?$_List_val@U?$_List_simple_types@U?$pair@$$CBV?$basic_string@DU?$char_traits@D@std@@V?$allocator@D@2@@std@@U_TEAMSIZEDEFINITIONS@@@std@@@std@@@std@@U_Iterator_base12@2@@std@@QAE@PAU?$_List_node@U?$pair@$$CBV?$basic_string@DU?$char_traits@D@std@@V?$allocator@D@2@@std@@U_TEAMSIZEDEFINITIONS@@@std@@PAX@1@PBV?$_List_val@U?$_List_simple_types@U?$pair@$$CBV?$basic_string@DU?$char_traits@D@std@@V?$allocator@D@2@@std@@U_TEAMSIZEDEFINITIONS@@@std@@@std@@@1@@Z
	??0?$_List_unchecked_iterator@V?$_List_val@U?$_List_simple_types@U?$pair@$$CBHU_BUILDABLE_STRUCTURE@@@std@@@std@@@std@@@std@@QAE@PAU?$_List_node@U?$pair@$$CBHU_BUILDABLE_STRUCTURE@@@std@@PAX@1@PBV?$_List_val@U?$_List_simple_types@U?$pair@$$CBHU_BUILDABLE_STRUCTURE@@@std@@@std@@@1@@Z
	??0?$_List_unchecked_iterator@V?$_List_val@U?$_List_simple_types@U?$pair@$$CBHU_BUILDABLE_STRUCTURE@@@std@@@std@@@std@@@std@@QAE@XZ
	??0?$_List_unchecked_iterator@V?$_List_val@U?$_List_simple_types@U?$pair@$$CBHU_DROPPED_MARINE_ITEM@@@std@@@std@@@std@@@std@@QAE@PAU?$_List_node@U?$pair@$$CBHU_DROPPED_MARINE_ITEM@@@std@@PAX@1@PBV?$_List_val@U?$_List_simple_types@U?$pair@$$CBHU_DROPPED_MARINE_ITEM@@@std@@@std@@@1@@Z
	??0?$_List_unchecked_iterator@V?$_List_val@U?$_List_simple_types@U?$pair@$$CBHU_DROPPED_MARINE_ITEM@@@std@@@std@@@std@@@std@@QAE@XZ
	??0?$_List_unchecked_iterator@V?$_List_val@U?$_List_simple_types@U?$pair@$$CBV?$basic_string@DU?$char_traits@D@std@@V?$allocator@D@2@@std@@U_BOT_SKILL@@@std@@@std@@@std@@@std@@QAE@PAU?$_List_node@U?$pair@$$CBV?$basic_string@DU?$char_traits@D@std@@V?$allocator@D@2@@std@@U_BOT_SKILL@@@std@@PAX@1@PBV?$_List_val@U?$_List_simple_types@U?$pair@$$CBV?$basic_string@DU?$char_traits@D@std@@V?$allocator@D@2@@std@@U_BOT_SKILL@@@std@@@std@@@1@@Z
	??0?$_List_unchecked_iterator@V?$_List_val@U?$_List_simple_types@U?$pair@$$CBV?$basic_string@DU?$char_traits@D@std@@V?$allocator@D@2@@std@@U_BOT_SKILL@@@std@@@std@@@std@@@std@@QAE@XZ
	??0?$_List_unchecked_iterator@V?$_List_val@U?$_List_simple_types@U?$pair@$$CBV?$basic_string@DU?$char_traits@D@std@@V?$allocator@D@2@@std@@U_TEAMSIZEDEFINITIONS@@@std@@@std@@@std@@@std@@QAE@PAU?$_List_node@U?$pair@$$CBV?$basic_string@DU?$char_traits@D@std@@V?$allocator@D@2@@std@@U_TEAMSIZEDEFINITIONS@@@std@@PAX@1@PBV?$_List_val@U?$_List_simple_types@U?$pair@$$CBV?$basic_string@DU?$char_traits@D@std@@V?$allocator@D@2@@std@@U_TEAMSIZEDEFINITIONS@@@std@@@std@@@1@@Z
	??0?$_List_unchecked_iterator@V?$_List_val@U?$_List_simple_types@U?$pair@$$CBV?$basic_string@DU?$char_traits@D@std@@V?$allocator@D@2@@std@@U_TEAMSIZEDEFINITIONS@@@std@@@std@@@std@@@std@@QAE@XZ
	??0?$_List_val@U?$_List_simple_types@U?$pair@$$CBHU_BUILDABLE_STRUCTURE@@@std@@@std@@@std@@QAE@XZ
	??0?$_List_val@U?$_List_simple_types@U?$pair@$$CBHU_DROPPED_MARINE_ITEM@@@std@@@std@@@std@@QAE@XZ
	??0?$_List_val@U?$_List_simple_types@U?$pair@$$CBV?$basic_string@DU?$char_traits@D@std@@V?$allocator@D@2@@std@@U_BOT_SKILL@@@std@@@std@@@std@@QAE@XZ
	??0?$_List_val@U?$_List_simple_types@U?$pair@$$CBV?$basic_string@DU?$char_traits@D@std@@V?$allocator@D@2@@std@@U_TEAMSIZEDEFINITIONS@@@std@@@std@@@std@@QAE@XZ
	??0?$_String_alloc@U?$_String_base_types@DV?$allocator@D@std@@@std@@@std@@QAE@XZ
	??0?$_String_bitmap@D$00@std@@QAE@XZ
	??0?$_String_const_iterator@V?$_String_val@U?$_Simple_types@D@std@@@std@@@std@@QAE@$$QAV01@@Z
	??0?$_String_const_iterator@V?$_String_val@U?$_Simple_types@D@std@@@std@@@std@@QAE@ABV01@@Z
	??0?$_String_const_iterator@V?$_String_val@U?$_Simple_types@D@std@@@std@@@std@@QAE@PBDPBU_Container_base12@1@@Z
	??0?$_String_iterator@V?$_String_val@U?$_Simple_types@D@std@@@std@@@std@@QAE@$$QAV01@@Z
	??0?$_String_iterator@V?$_String_val@U?$_Simple_types@D@std@@@std@@@std@@QAE@ABV01@@Z
	??0?$_String_iterator@V?$_String_val@U?$_Simple_types@D@std@@@std@@@std@@QAE@PADPBU_Container_base12@1@@Z
	??0?$_String_val@U?$_Simple_types@D@std@@@std@@QAE@XZ
	??0?$_Uhash_compare@HU?$hash@H@std@@U?$equal_to@H@2@@std@@QAE@U?$hash@H@1@U?$equal_to@H@1@@Z
	??0?$_Uhash_compare@V?$basic_string@DU?$char_traits@D@std@@V?$allocator@D@2@@std@@U?$hash@V?$basic_string@DU?$char_traits@D@std@@V?$allocator@D@2@@std@@@2@U?$equal_to@V?$basic_string@DU?$char_traits@D@std@@V?$allocator@D@2@@std@@@2@@std@@QAE@U?$hash@V?$basic_string@DU?$char_traits@D@std@@V?$allocator@D@2@@std@@@1@U?$equal_to@V?$basic_string@DU?$char_traits@D@std@@V?$allocator@D@2@@std@@@1@@Z
	??0?$_Umap_traits@HU_BUILDABLE_STRUCTURE@@V?$_Uhash_compare@HU?$hash@H@std@@U?$equal_to@H@2@@std@@V?$allocator@U?$pair@$$CBHU_BUILDABLE_STRUCTURE@@@std@@@3@$0A@@std@@QAE@ABV?$_Uhash_compare@HU?$hash@H@std@@U?$equal_to@H@2@@1@@Z
	??0?$_Umap_traits@HU_DROPPED_MARINE_ITEM@@V?$_Uhash_compare@HU?$hash@H@std@@U?$equal_to@H@2@@std@@V?$allocator@U?$pair@$$CBHU_DROPPED_MARINE_ITEM@@@std@@@3@$0A@@std@@QAE@ABV?$_Uhash_compare@HU?$hash@H@std@@U?$equal_to@H@2@@1@@Z
	??0?$_Umap_traits@V?$basic_string@DU?$char_traits@D@std@@V?$allocator@D@2@@std@@U_BOT_SKILL@@V?$_Uhash_compare@V?$basic_string@DU?$char_traits@D@std@@V?$allocator@D@2@@std@@U?$hash@V?$basic_string@DU?$char_traits@D@std@@V?$allocator@D@2@@std@@@2@U?$equal_to@V?$basic_string@DU?$char_traits@D@std@@V?$allocator@D@2@@std@@@2@@2@V?$allocator@U?$pair@$$CBV?$basic_string@DU?$char_traits@D@std@@V?$allocator@D@2@@std@@U_BOT_SKILL@@@std@@@2@$0A@@std@@QAE@ABV?$_Uhash_compare@V?$basic_string@DU?$char_traits@D@std@@V?$allocator@D@2@@std@@U?$hash@V?$basic_string@DU?$char_traits@D@std@@V?$allocator@D@2@@std@@@2@U?$equal_to@V?$basic_string@DU?$char_traits@D@std@@V?$allocator@D@2@@std@@@2@@1@@Z
	??0?$_Umap_traits@V?$basic_string@DU?$char_traits@D@std@@V?$allocator@D@2@@std@@U_TEAMSIZEDEFINITIONS@@V?$_Uhash_compare@V?$basic_string@DU?$char_traits@D@std@@V?$allocator@D@2@@std@@U?$hash@V?$basic_string@DU?$char_traits@D@std@@V?$allocator@D@2@@std@@@2@U?$equal_to@V?$basic_string@DU?$char_traits@D@std@@V?$allocator@D@2@@std@@@2@@2@V?$allocator@U?$pair@$$CBV?$basic_string@DU?$char_traits@D@std@@V?$allocator@D@2@@std@@U_TEAMSIZEDEFINITIONS@@@std@@@2@$0A@@std@@QAE@ABV?$_Uhash_compare@V?$basic_string@DU?$char_traits@D@std@@V?$allocator@D@2@@std@@U?$hash@V?$basic_string@DU?$char_traits@D@std@@V?$allocator@D@2@@std@@@2@U?$equal_to@V?$basic_string@DU?$char_traits@D@std@@V?$allocator@D@2@@std@@@2@@1@@Z
	??0?$_Uninitialized_backout_al@PAV?$_List_unchecked_iterator@V?$_List_val@U?$_List_simple_types@U?$pair@$$CBHU_BUILDABLE_STRUCTURE@@@std@@@std@@@std@@@std@@V?$allocator@V?$_List_unchecked_iterator@V?$_List_val@U?$_List_simple_types@U?$pair@$$CBHU_BUILDABLE_STRUCTURE@@@std@@@std@@@std@@@std@@@2@@std@@QAE@PAV?$_List_unchecked_iterator@V?$_List_val@U?$_List_simple_types@U?$pair@$$CBHU_BUILDABLE_STRUCTURE@@@std@@@std@@@std@@@1@AAV?$allocator@V?$_List_unchecked_iterator@V?$_List_val@U?$_List_simple_types@U?$pair@$$CBHU_BUILDABLE_STRUCTURE@@@std@@@std@@@std@@@std@@@1@@Z
	??0?$_Uninitialized_backout_al@PAV?$_List_unchecked_iterator@V?$_List_val@U?$_List_simple_types@U?$pair@$$CBHU_DROPPED_MARINE_ITEM@@@std@@@std@@@std@@@std@@V?$allocator@V?$_List_unchecked_iterator@V?$_List_val@U?$_List_simple_types@U?$pair@$$CBHU_DROPPED_MARINE_ITEM@@@std@@@std@@@std@@@std@@@2@@std@@QAE@PAV?$_List_unchecked_iterator@V?$_List_val@U?$_List_simple_types@U?$pair@$$CBHU_DROPPED_MARINE_ITEM@@@std@@@std@@@std@@@1@AAV?$allocator@V?$_List_unchecked_iterator@V?$_List_val@U?$_List_simple_types@U?$pair@$$CBHU_DROPPED_MARINE_ITEM@@@std@@@std@@@std@@@std@@@1@@Z
	??0?$_Uninitialized_backout_al@PAV?$_List_unchecked_iterator@V?$_List_val@U?$_List_simple_types@U?$pair@$$CBV?$basic_string@DU?$char_traits@D@std@@V?$allocator@D@2@@std@@U_BOT_SKILL@@@std@@@std@@@std@@@std@@V?$allocator@V?$_List_unchecked_iterator@V?$_List_val@U?$_List_simple_types@U?$pair@$$CBV?$basic_string@DU?$char_traits@D@std@@V?$allocator@D@2@@std@@U_BOT_SKILL@@@std@@@std@@@std@@@std@@@2@@std@@QAE@PAV?$_List_unchecked_iterator@V?$_List_val@U?$_List_simple_types@U?$pair@$$CBV?$basic_string@DU?$char_traits@D@std@@V?$allocator@D@2@@std@@U_BOT_SKILL@@@std@@@std@@@std@@@1@AAV?$allocator@V?$_List_unchecked_iterator@V?$_List_val@U?$_List_simple_types@U?$pair@$$CBV?$basic_string@DU?$char_traits@D@std@@V?$allocator@D@2@@std@@U_BOT_SKILL@@@std@@@std@@@std@@@std@@@1@@Z
	??0?$_Uninitialized_backout_al@PAV?$_List_unchecked_iterator@V?$_List_val@U?$_List_simple_types@U?$pair@$$CBV?$basic_string@DU?$char_traits@D@std@@V?$allocator@D@2@@std@@U_TEAMSIZEDEFINITIONS@@@std@@@std@@@std@@@std@@V?$allocator@V?$_List_unchecked_iterator@V?$_List_val@U?$_List_simple_types@U?$pair@$$CBV?$basic_string@DU?$char_traits@D@std@@V?$allocator@D@2@@std@@U_TEAMSIZEDEFINITIONS@@@std@@@std@@@std@@@std@@@2@@std@@QAE@PAV?$_List_unchecked_iterator@V?$_List_val@U?$_List_simple_types@U?$pair@$$CBV?$basic_string@DU?$char_traits@D@std@@V?$allocator@D@2@@std@@U_TEAMSIZEDEFINITIONS@@@std@@@std@@@std@@@1@AAV?$allocator@V?$_List_unchecked_iterator@V?$_List_val@U?$_List_simple_types@U?$pair@$$CBV?$basic_string@DU?$char_traits@D@std@@V?$allocator@D@2@@std@@U_TEAMSIZEDEFINITIONS@@@std@@@std@@@std@@@std@@@1@@Z
	??0?$_Vector_const_iterator@V?$_Vector_val@U?$_Simple_types@W4HiveTechStatus@@@std@@@std@@@std@@QAE@$$QAV01@@Z
	??0?$_Vector_const_iterator@V?$_Vector_val@U?$_Simple_types@W4HiveTechStatus@@@std@@@std@@@std@@QAE@PAW4HiveTechStatus@@PBU_Container_base12@1@@Z
	??0?$_Vector_iterator@V?$_Vector_val@U?$_Simple_types@W4HiveTechStatus@@@std@@@std@@@std@@QAE@$$QAV01@@Z
	??0?$_Vector_iterator@V?$_Vector_val@U?$_Simple_types@W4HiveTechStatus@@@std@@@std@@@std@@QAE@PAW4HiveTechStatus@@PBU_Container_base12@1@@Z
	??0?$_Vector_val@U?$_Simple_types@V?$_List_unchecked_iterator@V?$_List_val@U?$_List_simple_types@U?$pair@$$CBHU_BUILDABLE_STRUCTURE@@@std@@@std@@@std@@@std@@@std@@@std@@QAE@XZ
	??0?$_Vector_val@U?$_Simple_types@V?$_List_unchecked_iterator@V?$_List_val@U?$_List_simple_types@U?$pair@$$CBHU_DROPPED_MARINE_ITEM@@@std@@@std@@@std@@@std@@@std@@@std@@QAE@XZ
	??0?$_Vector_val@U?$_Simple_types@V?$_List_unchecked_iterator@V?$_List_val@U?$_List_simple_types@U?$pair@$$CBV?$basic_string@DU?$char_traits@D@std@@V?$allocator@D@2@@std@@U_BOT_SKILL@@@std@@@std@@@std@@@std@@@std@@@std@@QAE@XZ
	??0?$_Vector_val@U?$_Simple_types@V?$_List_unchecked_iterator@V?$_List_val@U?$_List_simple_types@U?$pair@$$CBV?$basic_string@DU?$char_traits@D@std@@V?$allocator@D@2@@std@@U_TEAMSIZEDEFINITIONS@@@std@@@std@@@std@@@std@@@std@@@std@@QAE@XZ
	??0?$_Vector_val@U?$_Simple_types@W4HiveTechStatus@@@std@@@std@@QAE@XZ
	??0?$allocator@D@std@@QAE@XZ
	??0?$allocator@U?$pair@$$CBHU_BUILDABLE_STRUCTURE@@@std@@@std@@QAE@XZ
	??0?$allocator@U?$pair@$$CBHU_DROPPED_MARINE_ITEM@@@std@@@std@@QAE@XZ
	??0?$allocator@U?$pair@$$CBV?$basic_string@DU?$char_traits@D@std@@V?$allocator@D@2@@std@@U_BOT_SKILL@@@std@@@std@@QAE@XZ
	??0?$allocator@U?$pair@$$CBV?$basic_string@DU?$char_traits@D@std@@V?$allocator@D@2@@std@@U_TEAMSIZEDEFINITIONS@@@std@@@std@@QAE@XZ
	??0?$allocator@W4HiveTechStatus@@@std@@QAE@XZ
	??0?$basic_filebuf@DU?$char_traits@D@std@@@std@@QAE@PAU_iobuf@@@Z
	??0?$basic_ifstream@DU?$char_traits@D@std@@@std@@QAE@PBDHH@Z
	??0?$basic_istringstream@DU?$char_traits@D@std@@V?$allocator@D@2@@std@@QAE@ABV?$basic_string@DU?$char_traits@D@std@@V?$allocator@D@2@@1@H@Z
	??0?$basic_string@DU?$char_traits@D@std@@V?$allocator@D@2@@std@@QAE@$$QAV01@@Z
	??0?$basic_string@DU?$char_traits@D@std@@V?$allocator@D@2@@std@@QAE@ABV01@@Z
	??0?$basic_string@DU?$char_traits@D@std@@V?$allocator@D@2@@std@@QAE@ABV01@IIABV?$allocator@D@1@@Z
	??0?$basic_string@DU?$char_traits@D@std@@V?$allocator@D@2@@std@@QAE@QBD@Z
	??0?$basic_string@DU?$char_traits@D@std@@V?$allocator@D@2@@std@@QAE@XZ
	??0?$basic_stringbuf@DU?$char_traits@D@std@@V?$allocator@D@2@@std@@QAE@ABV?$basic_string@DU?$char_traits@D@std@@V?$allocator@D@2@@1@H@Z
	??0?$fpos@U_Mbstatet@@@std@@QAE@U_Mbstatet@@_J@Z
	??0?$fpos@U_Mbstatet@@@std@@QAE@_J@Z
	??0?$initializer_list@W4HiveTechStatus@@@std@@QAE@PBW4HiveTechStatus@@0@Z
	??0?$list@U?$pair@$$CBHU_BUILDABLE_STRUCTURE@@@std@@V?$allocator@U?$pair@$$CBHU_BUILDABLE_STRUCTURE@@@std@@@2@@std@@QAE@ABV?$allocator@U?$pair@$$CBHU_BUILDABLE_STRUCTURE@@@std@@@1@@Z
	??0?$list@U?$pair@$$CBHU_DROPPED_MARINE_ITEM@@@std@@V?$allocator@U?$pair@$$CBHU_DROPPED_MARINE_ITEM@@@std@@@2@@std@@QAE@ABV?$allocator@U?$pair@$$CBHU_DROPPED_MARINE_ITEM@@@std@@@1@@Z
	??0?$list@U?$pair@$$CBV?$basic_string@DU?$char_traits@D@std@@V?$allocator@D@2@@std@@U_BOT_SKILL@@@std@@V?$allocator@U?$pair@$$CBV?$basic_string@DU?$char_traits@D@std@@V?$allocator@D@2@@std@@U_BOT_SKILL@@@std@@@2@@std@@QAE@ABV?$allocator@U?$pair@$$CBV?$basic_string@DU?$char_traits@D@std@@V?$allocator@D@2@@std@@U_BOT_SKILL@@@std@@@1@@Z
	??0?$list@U?$pair@$$CBV?$basic_string@DU?$char_traits@D@std@@V?$allocator@D@2@@std@@U_TEAMSIZEDEFINITIONS@@@std@@V?$allocator@U?$pair@$$CBV?$basic_string@DU?$char_traits@D@std@@V?$allocator@D@2@@std@@U_TEAMSIZEDEFINITIONS@@@std@@@2@@std@@QAE@ABV?$allocator@U?$pair@$$CBV?$basic_string@DU?$char_traits@D@std@@V?$allocator@D@2@@std@@U_TEAMSIZEDEFINITIONS@@@std@@@1@@Z
	??0?$tuple@$$QAV?$basic_string@DU?$char_traits@D@std@@V?$allocator@D@2@@std@@@std@@QAE@$$QAV01@@Z
	??0?$tuple@$$V@std@@QAE@ABV01@@Z
	??0?$tuple@$$V@std@@QAE@XZ
	??0?$tuple@ABH@std@@QAE@$$QAV01@@Z
	??0?$tuple@ABV?$basic_string@DU?$char_traits@D@std@@V?$allocator@D@2@@std@@@std@@QAE@$$QAV01@@Z
	??0?$unordered_map@HU_BUILDABLE_STRUCTURE@@U?$hash@H@std@@U?$equal_to@H@3@V?$allocator@U?$pair@$$CBHU_BUILDABLE_STRUCTURE@@@std@@@3@@std@@QAE@XZ
	??0?$unordered_map@HU_DROPPED_MARINE_ITEM@@U?$hash@H@std@@U?$equal_to@H@3@V?$allocator@U?$pair@$$CBHU_DROPPED_MARINE_ITEM@@@std@@@3@@std@@QAE@XZ
	??0?$unordered_map@V?$basic_string@DU?$char_traits@D@std@@V?$allocator@D@2@@std@@U_BOT_SKILL@@U?$hash@V?$basic_string@DU?$char_traits@D@std@@V?$allocator@D@2@@std@@@2@U?$equal_to@V?$basic_string@DU?$char_traits@D@std@@V?$allocator@D@2@@std@@@2@V?$allocator@U?$pair@$$CBV?$basic_string@DU?$char_traits@D@std@@V?$allocator@D@2@@std@@U_BOT_SKILL@@@std@@@2@@std@@QAE@XZ
	??0?$unordered_map@V?$basic_string@DU?$char_traits@D@std@@V?$allocator@D@2@@std@@U_TEAMSIZEDEFINITIONS@@U?$hash@V?$basic_string@DU?$char_traits@D@std@@V?$allocator@D@2@@std@@@2@U?$equal_to@V?$basic_string@DU?$char_traits@D@std@@V?$allocator@D@2@@std@@@2@V?$allocator@U?$pair@$$CBV?$basic_string@DU?$char_traits@D@std@@V?$allocator@D@2@@std@@U_TEAMSIZEDEFINITIONS@@@std@@@2@@std@@QAE@XZ
	??0?$vector@V?$_List_unchecked_iterator@V?$_List_val@U?$_List_simple_types@U?$pair@$$CBHU_BUILDABLE_STRUCTURE@@@std@@@std@@@std@@@std@@V?$allocator@V?$_List_unchecked_iterator@V?$_List_val@U?$_List_simple_types@U?$pair@$$CBHU_BUILDABLE_STRUCTURE@@@std@@@std@@@std@@@std@@@2@@std@@QAE@ABV?$allocator@V?$_List_unchecked_iterator@V?$_List_val@U?$_List_simple_types@U?$pair@$$CBHU_BUILDABLE_STRUCTURE@@@std@@@std@@@std@@@std@@@1@@Z
	??0?$vector@V?$_List_unchecked_iterator@V?$_List_val@U?$_List_simple_types@U?$pair@$$CBHU_DROPPED_MARINE_ITEM@@@std@@@std@@@std@@@std@@V?$allocator@V?$_List_unchecked_iterator@V?$_List_val@U?$_List_simple_types@U?$pair@$$CBHU_DROPPED_MARINE_ITEM@@@std@@@std@@@std@@@std@@@2@@std@@QAE@ABV?$allocator@V?$_List_unchecked_iterator@V?$_List_val@U?$_List_simple_types@U?$pair@$$CBHU_DROPPED_MARINE_ITEM@@@std@@@std@@@std@@@std@@@1@@Z
	??0?$vector@V?$_List_unchecked_iterator@V?$_List_val@U?$_List_simple_types@U?$pair@$$CBV?$basic_string@DU?$char_traits@D@std@@V?$allocator@D@2@@std@@U_BOT_SKILL@@@std@@@std@@@std@@@std@@V?$allocator@V?$_List_unchecked_iterator@V?$_List_val@U?$_List_simple_types@U?$pair@$$CBV?$basic_string@DU?$char_traits@D@std@@V?$allocator@D@2@@std@@U_BOT_SKILL@@@std@@@std@@@std@@@std@@@2@@std@@QAE@ABV?$allocator@V?$_List_unchecked_iterator@V?$_List_val@U?$_List_simple_types@U?$pair@$$CBV?$basic_string@DU?$char_traits@D@std@@V?$allocator@D@2@@std@@U_BOT_SKILL@@@std@@@std@@@std@@@std@@@1@@Z
	??0?$vector@V?$_List_unchecked_iterator@V?$_List_val@U?$_List_simple_types@U?$pair@$$CBV?$basic_string@DU?$char_traits@D@std@@V?$allocator@D@2@@std@@U_TEAMSIZEDEFINITIONS@@@std@@@std@@@std@@@std@@V?$allocator@V?$_List_unchecked_iterator@V?$_List_val@U?$_List_simple_types@U?$pair@$$CBV?$basic_string@DU?$char_traits@D@std@@V?$allocator@D@2@@std@@U_TEAMSIZEDEFINITIONS@@@std@@@std@@@std@@@std@@@2@@std@@QAE@ABV?$allocator@V?$_List_unchecked_iterator@V?$_List_val@U?$_List_simple_types@U?$pair@$$CBV?$basic_string@DU?$char_traits@D@std@@V?$allocator@D@2@@std@@U_TEAMSIZEDEFINITIONS@@@std@@@std@@@std@@@std@@@1@@Z
	??0?$vector@W4HiveTechStatus@@V?$allocator@W4HiveTechStatus@@@std@@@std@@QAE@V?$initializer_list@W4HiveTechStatus@@@1@ABV?$allocator@W4HiveTechStatus@@@1@@Z
	??0FastLZCompressor@@QAE@XZ
	??0LinearAllocator@@QAE@I@Z
	??0MeshProcess@@QAE@XZ
	??0OffMeshConnectionDef@@QAE@XZ
	??0TraceResult@@QAE@XZ
	??0Vector@@QAE@ABV0@@Z
	??0Vector@@QAE@MMM@Z
	??0Vector@@QAE@QAM@Z
	??0Vector@@QAE@XZ
	??0_BOT_CURRENT_WEAPON_T@@QAE@XZ
	??0_BOT_GUARD_INFO@@QAE@XZ
	??0_BOT_MSG@@QAE@XZ
	??0_BOT_PATH_NODE@@QAE@XZ
	??0_BOT_SKILL@@QAE@XZ
	??0_BOT_T@@QAE@XZ
	??0_BOT_TASK@@QAE@XZ
	??0_BUILDABLE_STRUCTURE@@QAE@XZ
	??0_BUTTONDEF@@QAE@XZ
	??0_Bxty@?$_String_val@U?$_Simple_types@D@std@@@std@@QAE@XZ
	??0_COMMANDER_ACTION@@QAE@XZ
	??0_COMMANDER_ORDER@@QAE@XZ
	??0_Container_base12@std@@QAE@XZ
	??0_Container_proxy@std@@QAE@XZ
	??0_DROPPED_MARINE_ITEM@@QAE@XZ
	??0_ENEMY_STATUS@@QAE@XZ
	??0_FRUSTUM_PLANE_T@@QAE@XZ
	??0_HIVE_DEFINITION_T@@QAE@XZ
	??0_Iterator_base12@std@@QAE@ABU01@@Z
	??0_Iterator_base12@std@@QAE@XZ
	??0_MAP_LOCATION@@QAE@XZ
	??0_NAV_DOOR@@QAE@XZ
	??0_NAV_HITRESULT@@QAE@XZ
	??0_NAV_PROFILE@@QAE@XZ
	??0_NAV_STATUS@@QAE@XZ
	??0_NAV_WELDABLE@@QAE@XZ
	??0_RESOURCE_NODE@@QAE@XZ
	??0_Sentry_base@?$basic_istream@DU?$char_traits@D@std@@@std@@QAE@AAV12@@Z
	??0_TEAMSIZEDEFINITIONS@@QAE@XZ
	??0bad_cast@std@@QAE@ABV01@@Z
	??0bad_cast@std@@QAE@XZ
	??0dtTileCacheAlloc@@QAE@XZ
	??0dtTileCacheCompressor@@QAE@XZ
	??0dtTileCacheMeshProcess@@QAE@XZ
	??0exception@std@@QAE@ABV01@@Z
	??0exception@std@@QAE@QBDH@Z
	??0sentry@?$basic_istream@DU?$char_traits@D@std@@@std@@QAE@AAV12@_N@Z
	??1?$_Compressed_pair@V?$allocator@D@std@@V?$_String_val@U?$_Simple_types@D@std@@@2@$00@std@@QAE@XZ
	??1?$_Hash@V?$_Umap_traits@HU_BUILDABLE_STRUCTURE@@V?$_Uhash_compare@HU?$hash@H@std@@U?$equal_to@H@2@@std@@V?$allocator@U?$pair@$$CBHU_BUILDABLE_STRUCTURE@@@std@@@3@$0A@@std@@@std@@QAE@XZ
	??1?$_Hash@V?$_Umap_traits@HU_DROPPED_MARINE_ITEM@@V?$_Uhash_compare@HU?$hash@H@std@@U?$equal_to@H@2@@std@@V?$allocator@U?$pair@$$CBHU_DROPPED_MARINE_ITEM@@@std@@@3@$0A@@std@@@std@@QAE@XZ
	??1?$_Hash@V?$_Umap_traits@V?$basic_string@DU?$char_traits@D@std@@V?$allocator@D@2@@std@@U_BOT_SKILL@@V?$_Uhash_compare@V?$basic_string@DU?$char_traits@D@std@@V?$allocator@D@2@@std@@U?$hash@V?$basic_string@DU?$char_traits@D@std@@V?$allocator@D@2@@std@@@2@U?$equal_to@V?$basic_string@DU?$char_traits@D@std@@V?$allocator@D@2@@std@@@2@@2@V?$allocator@U?$pair@$$CBV?$basic_string@DU?$char_traits@D@std@@V?$allocator@D@2@@std@@U_BOT_SKILL@@@std@@@2@$0A@@std@@@std@@QAE@XZ
	??1?$_Hash@V?$_Umap_traits@V?$basic_string@DU?$char_traits@D@std@@V?$allocator@D@2@@std@@U_TEAMSIZEDEFINITIONS@@V?$_Uhash_compare@V?$basic_string@DU?$char_traits@D@std@@V?$allocator@D@2@@std@@U?$hash@V?$basic_string@DU?$char_traits@D@std@@V?$allocator@D@2@@std@@@2@U?$equal_to@V?$basic_string@DU?$char_traits@D@std@@V?$allocator@D@2@@std@@@2@@2@V?$allocator@U?$pair@$$CBV?$basic_string@DU?$char_traits@D@std@@V?$allocator@D@2@@std@@U_TEAMSIZEDEFINITIONS@@@std@@@2@$0A@@std@@@std@@QAE@XZ
	??1?$_List_alloc@U?$_List_base_types@U?$pair@$$CBHU_BUILDABLE_STRUCTURE@@@std@@V?$allocator@U?$pair@$$CBHU_BUILDABLE_STRUCTURE@@@std@@@2@@std@@@std@@QAE@XZ
	??1?$_List_alloc@U?$_List_base_types@U?$pair@$$CBHU_DROPPED_MARINE_ITEM@@@std@@V?$allocator@U?$pair@$$CBHU_DROPPED_MARINE_ITEM@@@std@@@2@@std@@@std@@QAE@XZ
	??1?$_List_alloc@U?$_List_base_types@U?$pair@$$CBV?$basic_string@DU?$char_traits@D@std@@V?$allocator@D@2@@std@@U_BOT_SKILL@@@std@@V?$allocator@U?$pair@$$CBV?$basic_string@DU?$char_traits@D@std@@V?$allocator@D@2@@std@@U_BOT_SKILL@@@std@@@2@@std@@@std@@QAE@XZ
	??1?$_List_alloc@U?$_List_base_types@U?$pair@$$CBV?$basic_string@DU?$char_traits@D@std@@V?$allocator@D@2@@std@@U_TEAMSIZEDEFINITIONS@@@std@@V?$allocator@U?$pair@$$CBV?$basic_string@DU?$char_traits@D@std@@V?$allocator@D@2@@std@@U_TEAMSIZEDEFINITIONS@@@std@@@2@@std@@@std@@QAE@XZ
	??1?$_List_buy@U?$pair@$$CBHU_BUILDABLE_STRUCTURE@@@std@@V?$allocator@U?$pair@$$CBHU_BUILDABLE_STRUCTURE@@@std@@@2@@std@@QAE@XZ
	??1?$_List_buy@U?$pair@$$CBHU_DROPPED_MARINE_ITEM@@@std@@V?$allocator@U?$pair@$$CBHU_DROPPED_MARINE_ITEM@@@std@@@2@@std@@QAE@XZ
	??1?$_List_buy@U?$pair@$$CBV?$basic_string@DU?$char_traits@D@std@@V?$allocator@D@2@@std@@U_BOT_SKILL@@@std@@V?$allocator@U?$pair@$$CBV?$basic_string@DU?$char_traits@D@std@@V?$allocator@D@2@@std@@U_BOT_SKILL@@@std@@@2@@std@@QAE@XZ
	??1?$_List_buy@U?$pair@$$CBV?$basic_string@DU?$char_traits@D@std@@V?$allocator@D@2@@std@@U_TEAMSIZEDEFINITIONS@@@std@@V?$allocator@U?$pair@$$CBV?$basic_string@DU?$char_traits@D@std@@V?$allocator@D@2@@std@@U_TEAMSIZEDEFINITIONS@@@std@@@2@@std@@QAE@XZ
	??1?$_List_const_iterator@V?$_List_val@U?$_List_simple_types@U?$pair@$$CBHU_BUILDABLE_STRUCTURE@@@std@@@std@@@std@@@std@@QAE@XZ
	??1?$_List_const_iterator@V?$_List_val@U?$_List_simple_types@U?$pair@$$CBHU_DROPPED_MARINE_ITEM@@@std@@@std@@@std@@@std@@QAE@XZ
	??1?$_List_const_iterator@V?$_List_val@U?$_List_simple_types@U?$pair@$$CBV?$basic_string@DU?$char_traits@D@std@@V?$allocator@D@2@@std@@U_BOT_SKILL@@@std@@@std@@@std@@@std@@QAE@XZ
	??1?$_List_const_iterator@V?$_List_val@U?$_List_simple_types@U?$pair@$$CBV?$basic_string@DU?$char_traits@D@std@@V?$allocator@D@2@@std@@U_TEAMSIZEDEFINITIONS@@@std@@@std@@@std@@@std@@QAE@XZ
	??1?$_List_iterator@V?$_List_val@U?$_List_simple_types@U?$pair@$$CBHU_BUILDABLE_STRUCTURE@@@std@@@std@@@std@@@std@@QAE@XZ
	??1?$_List_iterator@V?$_List_val@U?$_List_simple_types@U?$pair@$$CBHU_DROPPED_MARINE_ITEM@@@std@@@std@@@std@@@std@@QAE@XZ
	??1?$_List_iterator@V?$_List_val@U?$_List_simple_types@U?$pair@$$CBV?$basic_string@DU?$char_traits@D@std@@V?$allocator@D@2@@std@@U_BOT_SKILL@@@std@@@std@@@std@@@std@@QAE@XZ
	??1?$_List_iterator@V?$_List_val@U?$_List_simple_types@U?$pair@$$CBV?$basic_string@DU?$char_traits@D@std@@V?$allocator@D@2@@std@@U_TEAMSIZEDEFINITIONS@@@std@@@std@@@std@@@std@@QAE@XZ
	??1?$_List_unchecked_const_iterator@V?$_List_val@U?$_List_simple_types@U?$pair@$$CBHU_BUILDABLE_STRUCTURE@@@std@@@std@@@std@@U_Iterator_base12@2@@std@@QAE@XZ
	??1?$_List_unchecked_const_iterator@V?$_List_val@U?$_List_simple_types@U?$pair@$$CBHU_DROPPED_MARINE_ITEM@@@std@@@std@@@std@@U_Iterator_base12@2@@std@@QAE@XZ
	??1?$_List_unchecked_const_iterator@V?$_List_val@U?$_List_simple_types@U?$pair@$$CBV?$basic_string@DU?$char_traits@D@std@@V?$allocator@D@2@@std@@U_BOT_SKILL@@@std@@@std@@@std@@U_Iterator_base12@2@@std@@QAE@XZ
	??1?$_List_unchecked_const_iterator@V?$_List_val@U?$_List_simple_types@U?$pair@$$CBV?$basic_string@DU?$char_traits@D@std@@V?$allocator@D@2@@std@@U_TEAMSIZEDEFINITIONS@@@std@@@std@@@std@@U_Iterator_base12@2@@std@@QAE@XZ
	??1?$_String_alloc@U?$_String_base_types@DV?$allocator@D@std@@@std@@@std@@QAE@XZ
	??1?$_String_const_iterator@V?$_String_val@U?$_Simple_types@D@std@@@std@@@std@@QAE@XZ
	??1?$_String_iterator@V?$_String_val@U?$_Simple_types@D@std@@@std@@@std@@QAE@XZ
	??1?$_String_val@U?$_Simple_types@D@std@@@std@@QAE@XZ
	??1?$_Uninitialized_backout_al@PAV?$_List_unchecked_iterator@V?$_List_val@U?$_List_simple_types@U?$pair@$$CBHU_BUILDABLE_STRUCTURE@@@std@@@std@@@std@@@std@@V?$allocator@V?$_List_unchecked_iterator@V?$_List_val@U?$_List_simple_types@U?$pair@$$CBHU_BUILDABLE_STRUCTURE@@@std@@@std@@@std@@@std@@@2@@std@@QAE@XZ
	??1?$_Uninitialized_backout_al@PAV?$_List_unchecked_iterator@V?$_List_val@U?$_List_simple_types@U?$pair@$$CBHU_DROPPED_MARINE_ITEM@@@std@@@std@@@std@@@std@@V?$allocator@V?$_List_unchecked_iterator@V?$_List_val@U?$_List_simple_types@U?$pair@$$CBHU_DROPPED_MARINE_ITEM@@@std@@@std@@@std@@@std@@@2@@std@@QAE@XZ
	??1?$_Uninitialized_backout_al@PAV?$_List_unchecked_iterator@V?$_List_val@U?$_List_simple_types@U?$pair@$$CBV?$basic_string@DU?$char_traits@D@std@@V?$allocator@D@2@@std@@U_BOT_SKILL@@@std@@@std@@@std@@@std@@V?$allocator@V?$_List_unchecked_iterator@V?$_List_val@U?$_List_simple_types@U?$pair@$$CBV?$basic_string@DU?$char_traits@D@std@@V?$allocator@D@2@@std@@U_BOT_SKILL@@@std@@@std@@@std@@@std@@@2@@std@@QAE@XZ
	??1?$_Uninitialized_backout_al@PAV?$_List_unchecked_iterator@V?$_List_val@U?$_List_simple_types@U?$pair@$$CBV?$basic_string@DU?$char_traits@D@std@@V?$allocator@D@2@@std@@U_TEAMSIZEDEFINITIONS@@@std@@@std@@@std@@@std@@V?$allocator@V?$_List_unchecked_iterator@V?$_List_val@U?$_List_simple_types@U?$pair@$$CBV?$basic_string@DU?$char_traits@D@std@@V?$allocator@D@2@@std@@U_TEAMSIZEDEFINITIONS@@@std@@@std@@@std@@@std@@@2@@std@@QAE@XZ
	??1?$_Vector_alloc@U?$_Vec_base_types@V?$_List_unchecked_iterator@V?$_List_val@U?$_List_simple_types@U?$pair@$$CBHU_BUILDABLE_STRUCTURE@@@std@@@std@@@std@@@std@@V?$allocator@V?$_List_unchecked_iterator@V?$_List_val@U?$_List_simple_types@U?$pair@$$CBHU_BUILDABLE_STRUCTURE@@@std@@@std@@@std@@@std@@@2@@std@@@std@@QAE@XZ
	??1?$_Vector_alloc@U?$_Vec_base_types@V?$_List_unchecked_iterator@V?$_List_val@U?$_List_simple_types@U?$pair@$$CBHU_DROPPED_MARINE_ITEM@@@std@@@std@@@std@@@std@@V?$allocator@V?$_List_unchecked_iterator@V?$_List_val@U?$_List_simple_types@U?$pair@$$CBHU_DROPPED_MARINE_ITEM@@@std@@@std@@@std@@@std@@@2@@std@@@std@@QAE@XZ
	??1?$_Vector_alloc@U?$_Vec_base_types@V?$_List_unchecked_iterator@V?$_List_val@U?$_List_simple_types@U?$pair@$$CBV?$basic_string@DU?$char_traits@D@std@@V?$allocator@D@2@@std@@U_BOT_SKILL@@@std@@@std@@@std@@@std@@V?$allocator@V?$_List_unchecked_iterator@V?$_List_val@U?$_List_simple_types@U?$pair@$$CBV?$basic_string@DU?$char_traits@D@std@@V?$allocator@D@2@@std@@U_BOT_SKILL@@@std@@@std@@@std@@@std@@@2@@std@@@std@@QAE@XZ
	??1?$_Vector_alloc@U?$_Vec_base_types@V?$_List_unchecked_iterator@V?$_List_val@U?$_List_simple_types@U?$pair@$$CBV?$basic_string@DU?$char_traits@D@std@@V?$allocator@D@2@@std@@U_TEAMSIZEDEFINITIONS@@@std@@@std@@@std@@@std@@V?$allocator@V?$_List_unchecked_iterator@V?$_List_val@U?$_List_simple_types@U?$pair@$$CBV?$basic_string@DU?$char_traits@D@std@@V?$allocator@D@2@@std@@U_TEAMSIZEDEFINITIONS@@@std@@@std@@@std@@@std@@@2@@std@@@std@@QAE@XZ
	??1?$_Vector_alloc@U?$_Vec_base_types@W4HiveTechStatus@@V?$allocator@W4HiveTechStatus@@@std@@@std@@@std@@QAE@XZ
	??1?$_Vector_const_iterator@V?$_Vector_val@U?$_Simple_types@W4HiveTechStatus@@@std@@@std@@@std@@QAE@XZ
	??1?$_Vector_iterator@V?$_Vector_val@U?$_Simple_types@W4HiveTechStatus@@@std@@@std@@@std@@QAE@XZ
	??1?$basic_filebuf@DU?$char_traits@D@std@@@std@@UAE@XZ
	??1?$basic_ifstream@DU?$char_traits@D@std@@@std@@UAE@XZ
	??1?$basic_istringstream@DU?$char_traits@D@std@@V?$allocator@D@2@@std@@UAE@XZ
	??1?$basic_string@DU?$char_traits@D@std@@V?$allocator@D@2@@std@@QAE@XZ
	??1?$basic_stringbuf@DU?$char_traits@D@std@@V?$allocator@D@2@@std@@UAE@XZ
	??1?$list@U?$pair@$$CBHU_BUILDABLE_STRUCTURE@@@std@@V?$allocator@U?$pair@$$CBHU_BUILDABLE_STRUCTURE@@@std@@@2@@std@@QAE@XZ
	??1?$list@U?$pair@$$CBHU_DROPPED_MARINE_ITEM@@@std@@V?$allocator@U?$pair@$$CBHU_DROPPED_MARINE_ITEM@@@std@@@2@@std@@QAE@XZ
	??1?$list@U?$pair@$$CBV?$basic_string@DU?$char_traits@D@std@@V?$allocator@D@2@@std@@U_BOT_SKILL@@@std@@V?$allocator@U?$pair@$$CBV?$basic_string@DU?$char_traits@D@std@@V?$allocator@D@2@@std@@U_BOT_SKILL@@@std@@@2@@std@@QAE@XZ
	??1?$list@U?$pair@$$CBV?$basic_string@DU?$char_traits@D@std@@V?$allocator@D@2@@std@@U_TEAMSIZEDEFINITIONS@@@std@@V?$allocator@U?$pair@$$CBV?$basic_string@DU?$char_traits@D@std@@V?$allocator@D@2@@std@@U_TEAMSIZEDEFINITIONS@@@std@@@2@@std@@QAE@XZ
	??1?$pair@$$CBV?$basic_string@DU?$char_traits@D@std@@V?$allocator@D@2@@std@@U_BOT_SKILL@@@std@@QAE@XZ
	??1?$pair@$$CBV?$basic_string@DU?$char_traits@D@std@@V?$allocator@D@2@@std@@U_TEAMSIZEDEFINITIONS@@@std@@QAE@XZ
	??1?$pair@V?$_List_iterator@V?$_List_val@U?$_List_simple_types@U?$pair@$$CBHU_BUILDABLE_STRUCTURE@@@std@@@std@@@std@@@std@@_N@std@@QAE@XZ
	??1?$pair@V?$_List_iterator@V?$_List_val@U?$_List_simple_types@U?$pair@$$CBHU_DROPPED_MARINE_ITEM@@@std@@@std@@@std@@@std@@_N@std@@QAE@XZ
	??1?$pair@V?$_List_iterator@V?$_List_val@U?$_List_simple_types@U?$pair@$$CBV?$basic_string@DU?$char_traits@D@std@@V?$allocator@D@2@@std@@U_BOT_SKILL@@@std@@@std@@@std@@@std@@_N@std@@QAE@XZ
	??1?$pair@V?$_List_iterator@V?$_List_val@U?$_List_simple_types@U?$pair@$$CBV?$basic_string@DU?$char_traits@D@std@@V?$allocator@D@2@@std@@U_TEAMSIZEDEFINITIONS@@@std@@@std@@@std@@@std@@_N@std@@QAE@XZ
	??1?$unique_ptr@V_Facet_base@std@@U?$default_delete@V_Facet_base@std@@@2@@std@@QAE@XZ
	??1?$unordered_map@HU_BUILDABLE_STRUCTURE@@U?$hash@H@std@@U?$equal_to@H@3@V?$allocator@U?$pair@$$CBHU_BUILDABLE_STRUCTURE@@@std@@@3@@std@@QAE@XZ
	??1?$unordered_map@HU_DROPPED_MARINE_ITEM@@U?$hash@H@std@@U?$equal_to@H@3@V?$allocator@U?$pair@$$CBHU_DROPPED_MARINE_ITEM@@@std@@@3@@std@@QAE@XZ
	??1?$unordered_map@V?$basic_string@DU?$char_traits@D@std@@V?$allocator@D@2@@std@@U_BOT_SKILL@@U?$hash@V?$basic_string@DU?$char_traits@D@std@@V?$allocator@D@2@@std@@@2@U?$equal_to@V?$basic_string@DU?$char_traits@D@std@@V?$allocator@D@2@@std@@@2@V?$allocator@U?$pair@$$CBV?$basic_string@DU?$char_traits@D@std@@V?$allocator@D@2@@std@@U_BOT_SKILL@@@std@@@2@@std@@QAE@XZ
	??1?$unordered_map@V?$basic_string@DU?$char_traits@D@std@@V?$allocator@D@2@@std@@U_TEAMSIZEDEFINITIONS@@U?$hash@V?$basic_string@DU?$char_traits@D@std@@V?$allocator@D@2@@std@@@2@U?$equal_to@V?$basic_string@DU?$char_traits@D@std@@V?$allocator@D@2@@std@@@2@V?$allocator@U?$pair@$$CBV?$basic_string@DU?$char_traits@D@std@@V?$allocator@D@2@@std@@U_TEAMSIZEDEFINITIONS@@@std@@@2@@std@@QAE@XZ
	??1?$vector@V?$_List_unchecked_iterator@V?$_List_val@U?$_List_simple_types@U?$pair@$$CBHU_BUILDABLE_STRUCTURE@@@std@@@std@@@std@@@std@@V?$allocator@V?$_List_unchecked_iterator@V?$_List_val@U?$_List_simple_types@U?$pair@$$CBHU_BUILDABLE_STRUCTURE@@@std@@@std@@@std@@@std@@@2@@std@@QAE@XZ
	??1?$vector@V?$_List_unchecked_iterator@V?$_List_val@U?$_List_simple_types@U?$pair@$$CBHU_DROPPED_MARINE_ITEM@@@std@@@std@@@std@@@std@@V?$allocator@V?$_List_unchecked_iterator@V?$_List_val@U?$_List_simple_types@U?$pair@$$CBHU_DROPPED_MARINE_ITEM@@@std@@@std@@@std@@@std@@@2@@std@@QAE@XZ
	??1?$vector@V?$_List_unchecked_iterator@V?$_List_val@U?$_List_simple_types@U?$pair@$$CBV?$basic_string@DU?$char_traits@D@std@@V?$allocator@D@2@@std@@U_BOT_SKILL@@@std@@@std@@@std@@@std@@V?$allocator@V?$_List_unchecked_iterator@V?$_List_val@U?$_List_simple_types@U?$pair@$$CBV?$basic_string@DU?$char_traits@D@std@@V?$allocator@D@2@@std@@U_BOT_SKILL@@@std@@@std@@@std@@@std@@@2@@std@@QAE@XZ
	??1?$vector@V?$_List_unchecked_iterator@V?$_List_val@U?$_List_simple_types@U?$pair@$$CBV?$basic_string@DU?$char_traits@D@std@@V?$allocator@D@2@@std@@U_TEAMSIZEDEFINITIONS@@@std@@@std@@@std@@@std@@V?$allocator@V?$_List_unchecked_iterator@V?$_List_val@U?$_List_simple_types@U?$pair@$$CBV?$basic_string@DU?$char_traits@D@std@@V?$allocator@D@2@@std@@U_TEAMSIZEDEFINITIONS@@@std@@@std@@@std@@@std@@@2@@std@@QAE@XZ
	??1?$vector@W4HiveTechStatus@@V?$allocator@W4HiveTechStatus@@@std@@@std@@QAE@XZ
	??1FastLZCompressor@@UAE@XZ
	??1LinearAllocator@@UAE@XZ
	??1MeshProcess@@UAE@XZ
	??1_Bxty@?$_String_val@U?$_Simple_types@D@std@@@std@@QAE@XZ
	??1_Iterator_base12@std@@QAE@XZ
	??1_Sentry_base@?$basic_istream@DU?$char_traits@D@std@@@std@@QAE@XZ
	??1bad_cast@std@@UAE@XZ
	??1dtTileCacheAlloc@@UAE@XZ
	??1dtTileCacheCompressor@@UAE@XZ
	??1dtTileCacheMeshProcess@@UAE@XZ
	??1exception@std@@UAE@XZ
	??1locale@std@@QAE@XZ
	??1sentry@?$basic_istream@DU?$char_traits@D@std@@@std@@QAE@XZ
	??2@YAPAXIPAX@Z
	??4?$_List_const_iterator@V?$_List_val@U?$_List_simple_types@U?$pair@$$CBHU_BUILDABLE_STRUCTURE@@@std@@@std@@@std@@@std@@QAEAAV01@$$QAV01@@Z
	??4?$_List_const_iterator@V?$_List_val@U?$_List_simple_types@U?$pair@$$CBHU_DROPPED_MARINE_ITEM@@@std@@@std@@@std@@@std@@QAEAAV01@$$QAV01@@Z
	??4?$_List_iterator@V?$_List_val@U?$_List_simple_types@U?$pair@$$CBHU_BUILDABLE_STRUCTURE@@@std@@@std@@@std@@@std@@QAEAAV01@$$QAV01@@Z
	??4?$_List_iterator@V?$_List_val@U?$_List_simple_types@U?$pair@$$CBHU_DROPPED_MARINE_ITEM@@@std@@@std@@@std@@@std@@QAEAAV01@$$QAV01@@Z
	??4?$_List_unchecked_const_iterator@V?$_List_val@U?$_List_simple_types@U?$pair@$$CBHU_BUILDABLE_STRUCTURE@@@std@@@std@@@std@@U_Iterator_base12@2@@std@@QAEAAV01@$$QAV01@@Z
	??4?$_List_unchecked_const_iterator@V?$_List_val@U?$_List_simple_types@U?$pair@$$CBHU_DROPPED_MARINE_ITEM@@@std@@@std@@@std@@U_Iterator_base12@2@@std@@QAEAAV01@$$QAV01@@Z
	??4?$basic_string@DU?$char_traits@D@std@@V?$allocator@D@2@@std@@QAEAAV01@ABV01@@Z
	??4?$basic_string@DU?$char_traits@D@std@@V?$allocator@D@2@@std@@QAEAAV01@QBD@Z
	??4_Iterator_base12@std@@QAEAAU01@ABU01@@Z
	??7Vector@@QBEHXZ
	??8?$_List_const_iterator@V?$_List_val@U?$_List_simple_types@U?$pair@$$CBHU_BUILDABLE_STRUCTURE@@@std@@@std@@@std@@@std@@QBE_NABV01@@Z
	??8?$_List_const_iterator@V?$_List_val@U?$_List_simple_types@U?$pair@$$CBHU_DROPPED_MARINE_ITEM@@@std@@@std@@@std@@@std@@QBE_NABV01@@Z
	??8?$_List_const_iterator@V?$_List_val@U?$_List_simple_types@U?$pair@$$CBV?$basic_string@DU?$char_traits@D@std@@V?$allocator@D@2@@std@@U_BOT_SKILL@@@std@@@std@@@std@@@std@@QBE_NABV01@@Z
	??8?$_List_const_iterator@V?$_List_val@U?$_List_simple_types@U?$pair@$$CBV?$basic_string@DU?$char_traits@D@std@@V?$allocator@D@2@@std@@U_TEAMSIZEDEFINITIONS@@@std@@@std@@@std@@@std@@QBE_NABV01@@Z
	??8?$_List_unchecked_const_iterator@V?$_List_val@U?$_List_simple_types@U?$pair@$$CBHU_BUILDABLE_STRUCTURE@@@std@@@std@@@std@@U_Iterator_base0@2@@std@@QBE_NABV01@@Z
	??8?$_List_unchecked_const_iterator@V?$_List_val@U?$_List_simple_types@U?$pair@$$CBHU_DROPPED_MARINE_ITEM@@@std@@@std@@@std@@U_Iterator_base0@2@@std@@QBE_NABV01@@Z
	??8?$_List_unchecked_const_iterator@V?$_List_val@U?$_List_simple_types@U?$pair@$$CBV?$basic_string@DU?$char_traits@D@std@@V?$allocator@D@2@@std@@U_BOT_SKILL@@@std@@@std@@@std@@U_Iterator_base0@2@@std@@QBE_NABV01@@Z
	??8?$_List_unchecked_const_iterator@V?$_List_val@U?$_List_simple_types@U?$pair@$$CBV?$basic_string@DU?$char_traits@D@std@@V?$allocator@D@2@@std@@U_TEAMSIZEDEFINITIONS@@@std@@@std@@@std@@U_Iterator_base0@2@@std@@QBE_NABV01@@Z
	??8?$_Vector_const_iterator@V?$_Vector_val@U?$_Simple_types@W4HiveTechStatus@@@std@@@std@@@std@@QBE_NABV01@@Z
	??8Vector@@QBEHABV0@@Z
	??9?$_List_const_iterator@V?$_List_val@U?$_List_simple_types@U?$pair@$$CBHU_BUILDABLE_STRUCTURE@@@std@@@std@@@std@@@std@@QBE_NABV01@@Z
	??9?$_List_const_iterator@V?$_List_val@U?$_List_simple_types@U?$pair@$$CBHU_DROPPED_MARINE_ITEM@@@std@@@std@@@std@@@std@@QBE_NABV01@@Z
	??9?$_List_const_iterator@V?$_List_val@U?$_List_simple_types@U?$pair@$$CBV?$basic_string@DU?$char_traits@D@std@@V?$allocator@D@2@@std@@U_BOT_SKILL@@@std@@@std@@@std@@@std@@QBE_NABV01@@Z
	??9?$_List_unchecked_const_iterator@V?$_List_val@U?$_List_simple_types@U?$pair@$$CBHU_BUILDABLE_STRUCTURE@@@std@@@std@@@std@@U_Iterator_base0@2@@std@@QBE_NABV01@@Z
	??9?$_List_unchecked_const_iterator@V?$_List_val@U?$_List_simple_types@U?$pair@$$CBHU_DROPPED_MARINE_ITEM@@@std@@@std@@@std@@U_Iterator_base0@2@@std@@QBE_NABV01@@Z
	??9?$_List_unchecked_const_iterator@V?$_List_val@U?$_List_simple_types@U?$pair@$$CBV?$basic_string@DU?$char_traits@D@std@@V?$allocator@D@2@@std@@U_BOT_SKILL@@@std@@@std@@@std@@U_Iterator_base0@2@@std@@QBE_NABV01@@Z
	??9?$_List_unchecked_const_iterator@V?$_List_val@U?$_List_simple_types@U?$pair@$$CBV?$basic_string@DU?$char_traits@D@std@@V?$allocator@D@2@@std@@U_TEAMSIZEDEFINITIONS@@@std@@@std@@@std@@U_Iterator_base0@2@@std@@QBE_NABV01@@Z
	??9?$_Vector_const_iterator@V?$_Vector_val@U?$_Simple_types@W4HiveTechStatus@@@std@@@std@@@std@@QBE_NABV01@@Z
	??9Vector@@QBEHABV0@@Z
	??A?$basic_string@DU?$char_traits@D@std@@V?$allocator@D@2@@std@@QAEAADI@Z
	??A?$unordered_map@HU_BUILDABLE_STRUCTURE@@U?$hash@H@std@@U?$equal_to@H@3@V?$allocator@U?$pair@$$CBHU_BUILDABLE_STRUCTURE@@@std@@@3@@std@@QAEAAU_BUILDABLE_STRUCTURE@@ABH@Z
	??A?$unordered_map@HU_DROPPED_MARINE_ITEM@@U?$hash@H@std@@U?$equal_to@H@3@V?$allocator@U?$pair@$$CBHU_DROPPED_MARINE_ITEM@@@std@@@3@@std@@QAEAAU_DROPPED_MARINE_ITEM@@ABH@Z
	??A?$unordered_map@V?$basic_string@DU?$char_traits@D@std@@V?$allocator@D@2@@std@@U_BOT_SKILL@@U?$hash@V?$basic_string@DU?$char_traits@D@std@@V?$allocator@D@2@@std@@@2@U?$equal_to@V?$basic_string@DU?$char_traits@D@std@@V?$allocator@D@2@@std@@@2@V?$allocator@U?$pair@$$CBV?$basic_string@DU?$char_traits@D@std@@V?$allocator@D@2@@std@@U_BOT_SKILL@@@std@@@2@@std@@QAEAAU_BOT_SKILL@@$$QAV?$basic_string@DU?$char_traits@D@std@@V?$allocator@D@2@@1@@Z
	??A?$unordered_map@V?$basic_string@DU?$char_traits@D@std@@V?$allocator@D@2@@std@@U_TEAMSIZEDEFINITIONS@@U?$hash@V?$basic_string@DU?$char_traits@D@std@@V?$allocator@D@2@@std@@@2@U?$equal_to@V?$basic_string@DU?$char_traits@D@std@@V?$allocator@D@2@@std@@@2@V?$allocator@U?$pair@$$CBV?$basic_string@DU?$char_traits@D@std@@V?$allocator@D@2@@std@@U_TEAMSIZEDEFINITIONS@@@std@@@2@@std@@QAEAAU_TEAMSIZEDEFINITIONS@@$$QAV?$basic_string@DU?$char_traits@D@std@@V?$allocator@D@2@@1@@Z
	??A?$unordered_map@V?$basic_string@DU?$char_traits@D@std@@V?$allocator@D@2@@std@@U_TEAMSIZEDEFINITIONS@@U?$hash@V?$basic_string@DU?$char_traits@D@std@@V?$allocator@D@2@@std@@@2@U?$equal_to@V?$basic_string@DU?$char_traits@D@std@@V?$allocator@D@2@@std@@@2@V?$allocator@U?$pair@$$CBV?$basic_string@DU?$char_traits@D@std@@V?$allocator@D@2@@std@@U_TEAMSIZEDEFINITIONS@@@std@@@2@@std@@QAEAAU_TEAMSIZEDEFINITIONS@@ABV?$basic_string@DU?$char_traits@D@std@@V?$allocator@D@2@@1@@Z
	??A?$vector@V?$_List_unchecked_iterator@V?$_List_val@U?$_List_simple_types@U?$pair@$$CBHU_BUILDABLE_STRUCTURE@@@std@@@std@@@std@@@std@@V?$allocator@V?$_List_unchecked_iterator@V?$_List_val@U?$_List_simple_types@U?$pair@$$CBHU_BUILDABLE_STRUCTURE@@@std@@@std@@@std@@@std@@@2@@std@@QAEAAV?$_List_unchecked_iterator@V?$_List_val@U?$_List_simple_types@U?$pair@$$CBHU_BUILDABLE_STRUCTURE@@@std@@@std@@@std@@@1@I@Z
	??A?$vector@V?$_List_unchecked_iterator@V?$_List_val@U?$_List_simple_types@U?$pair@$$CBHU_DROPPED_MARINE_ITEM@@@std@@@std@@@std@@@std@@V?$allocator@V?$_List_unchecked_iterator@V?$_List_val@U?$_List_simple_types@U?$pair@$$CBHU_DROPPED_MARINE_ITEM@@@std@@@std@@@std@@@std@@@2@@std@@QAEAAV?$_List_unchecked_iterator@V?$_List_val@U?$_List_simple_types@U?$pair@$$CBHU_DROPPED_MARINE_ITEM@@@std@@@std@@@std@@@1@I@Z
	??A?$vector@V?$_List_unchecked_iterator@V?$_List_val@U?$_List_simple_types@U?$pair@$$CBV?$basic_string@DU?$char_traits@D@std@@V?$allocator@D@2@@std@@U_BOT_SKILL@@@std@@@std@@@std@@@std@@V?$allocator@V?$_List_unchecked_iterator@V?$_List_val@U?$_List_simple_types@U?$pair@$$CBV?$basic_string@DU?$char_traits@D@std@@V?$allocator@D@2@@std@@U_BOT_SKILL@@@std@@@std@@@std@@@std@@@2@@std@@QAEAAV?$_List_unchecked_iterator@V?$_List_val@U?$_List_simple_types@U?$pair@$$CBV?$basic_string@DU?$char_traits@D@std@@V?$allocator@D@2@@std@@U_BOT_SKILL@@@std@@@std@@@std@@@1@I@Z
	??A?$vector@V?$_List_unchecked_iterator@V?$_List_val@U?$_List_simple_types@U?$pair@$$CBV?$basic_string@DU?$char_traits@D@std@@V?$allocator@D@2@@std@@U_TEAMSIZEDEFINITIONS@@@std@@@std@@@std@@@std@@V?$allocator@V?$_List_unchecked_iterator@V?$_List_val@U?$_List_simple_types@U?$pair@$$CBV?$basic_string@DU?$char_traits@D@std@@V?$allocator@D@2@@std@@U_TEAMSIZEDEFINITIONS@@@std@@@std@@@std@@@std@@@2@@std@@QAEAAV?$_List_unchecked_iterator@V?$_List_val@U?$_List_simple_types@U?$pair@$$CBV?$basic_string@DU?$char_traits@D@std@@V?$allocator@D@2@@std@@U_TEAMSIZEDEFINITIONS@@@std@@@std@@@std@@@1@I@Z
	??A?$vector@W4HiveTechStatus@@V?$allocator@W4HiveTechStatus@@@std@@@std@@QAEAAW4HiveTechStatus@@I@Z
	??B?$fpos@U_Mbstatet@@@std@@QBE_JXZ
	??BVector@@QAEPAMXZ
	??BVector@@QBEPBMXZ
	??Bsentry@?$basic_istream@DU?$char_traits@D@std@@@std@@QBE_NXZ
	??C?$_List_const_iterator@V?$_List_val@U?$_List_simple_types@U?$pair@$$CBV?$basic_string@DU?$char_traits@D@std@@V?$allocator@D@2@@std@@U_BOT_SKILL@@@std@@@std@@@std@@@std@@QBEPBU?$pair@$$CBV?$basic_string@DU?$char_traits@D@std@@V?$allocator@D@2@@std@@U_BOT_SKILL@@@1@XZ
	??C?$_List_const_iterator@V?$_List_val@U?$_List_simple_types@U?$pair@$$CBV?$basic_string@DU?$char_traits@D@std@@V?$allocator@D@2@@std@@U_TEAMSIZEDEFINITIONS@@@std@@@std@@@std@@@std@@QBEPBU?$pair@$$CBV?$basic_string@DU?$char_traits@D@std@@V?$allocator@D@2@@std@@U_TEAMSIZEDEFINITIONS@@@1@XZ
	??C?$_List_iterator@V?$_List_val@U?$_List_simple_types@U?$pair@$$CBHU_BUILDABLE_STRUCTURE@@@std@@@std@@@std@@@std@@QBEPAU?$pair@$$CBHU_BUILDABLE_STRUCTURE@@@1@XZ
	??C?$_List_iterator@V?$_List_val@U?$_List_simple_types@U?$pair@$$CBHU_DROPPED_MARINE_ITEM@@@std@@@std@@@std@@@std@@QBEPAU?$pair@$$CBHU_DROPPED_MARINE_ITEM@@@1@XZ
	??C?$_List_iterator@V?$_List_val@U?$_List_simple_types@U?$pair@$$CBV?$basic_string@DU?$char_traits@D@std@@V?$allocator@D@2@@std@@U_BOT_SKILL@@@std@@@std@@@std@@@std@@QBEPAU?$pair@$$CBV?$basic_string@DU?$char_traits@D@std@@V?$allocator@D@2@@std@@U_BOT_SKILL@@@1@XZ
	??C?$_List_iterator@V?$_List_val@U?$_List_simple_types@U?$pair@$$CBV?$basic_string@DU?$char_traits@D@std@@V?$allocator@D@2@@std@@U_TEAMSIZEDEFINITIONS@@@std@@@std@@@std@@@std@@QBEPAU?$pair@$$CBV?$basic_string@DU?$char_traits@D@std@@V?$allocator@D@2@@std@@U_TEAMSIZEDEFINITIONS@@@1@XZ
	??D?$_List_const_iterator@V?$_List_val@U?$_List_simple_types@U?$pair@$$CBHU_BUILDABLE_STRUCTURE@@@std@@@std@@@std@@@std@@QBEABU?$pair@$$CBHU_BUILDABLE_STRUCTURE@@@1@XZ
	??D?$_List_const_iterator@V?$_List_val@U?$_List_simple_types@U?$pair@$$CBHU_DROPPED_MARINE_ITEM@@@std@@@std@@@std@@@std@@QBEABU?$pair@$$CBHU_DROPPED_MARINE_ITEM@@@1@XZ
	??D?$_List_const_iterator@V?$_List_val@U?$_List_simple_types@U?$pair@$$CBV?$basic_string@DU?$char_traits@D@std@@V?$allocator@D@2@@std@@U_BOT_SKILL@@@std@@@std@@@std@@@std@@QBEABU?$pair@$$CBV?$basic_string@DU?$char_traits@D@std@@V?$allocator@D@2@@std@@U_BOT_SKILL@@@1@XZ
	??D?$_List_const_iterator@V?$_List_val@U?$_List_simple_types@U?$pair@$$CBV?$basic_string@DU?$char_traits@D@std@@V?$allocator@D@2@@std@@U_TEAMSIZEDEFINITIONS@@@std@@@std@@@std@@@std@@QBEABU?$pair@$$CBV?$basic_string@DU?$char_traits@D@std@@V?$allocator@D@2@@std@@U_TEAMSIZEDEFINITIONS@@@1@XZ
	??D?$_List_iterator@V?$_List_val@U?$_List_simple_types@U?$pair@$$CBHU_BUILDABLE_STRUCTURE@@@std@@@std@@@std@@@std@@QBEAAU?$pair@$$CBHU_BUILDABLE_STRUCTURE@@@1@XZ
	??D?$_List_iterator@V?$_List_val@U?$_List_simple_types@U?$pair@$$CBHU_DROPPED_MARINE_ITEM@@@std@@@std@@@std@@@std@@QBEAAU?$pair@$$CBHU_DROPPED_MARINE_ITEM@@@1@XZ
	??D?$_List_iterator@V?$_List_val@U?$_List_simple_types@U?$pair@$$CBV?$basic_string@DU?$char_traits@D@std@@V?$allocator@D@2@@std@@U_BOT_SKILL@@@std@@@std@@@std@@@std@@QBEAAU?$pair@$$CBV?$basic_string@DU?$char_traits@D@std@@V?$allocator@D@2@@std@@U_BOT_SKILL@@@1@XZ
	??D?$_List_iterator@V?$_List_val@U?$_List_simple_types@U?$pair@$$CBV?$basic_string@DU?$char_traits@D@std@@V?$allocator@D@2@@std@@U_TEAMSIZEDEFINITIONS@@@std@@@std@@@std@@@std@@QBEAAU?$pair@$$CBV?$basic_string@DU?$char_traits@D@std@@V?$allocator@D@2@@std@@U_TEAMSIZEDEFINITIONS@@@1@XZ
	??D?$_List_unchecked_const_iterator@V?$_List_val@U?$_List_simple_types@U?$pair@$$CBHU_BUILDABLE_STRUCTURE@@@std@@@std@@@std@@U_Iterator_base0@2@@std@@QBEABU?$pair@$$CBHU_BUILDABLE_STRUCTURE@@@1@XZ
	??D?$_List_unchecked_const_iterator@V?$_List_val@U?$_List_simple_types@U?$pair@$$CBHU_DROPPED_MARINE_ITEM@@@std@@@std@@@std@@U_Iterator_base0@2@@std@@QBEABU?$pair@$$CBHU_DROPPED_MARINE_ITEM@@@1@XZ
	??D?$_List_unchecked_const_iterator@V?$_List_val@U?$_List_simple_types@U?$pair@$$CBV?$basic_string@DU?$char_traits@D@std@@V?$allocator@D@2@@std@@U_BOT_SKILL@@@std@@@std@@@std@@U_Iterator_base0@2@@std@@QBEABU?$pair@$$CBV?$basic_string@DU?$char_traits@D@std@@V?$allocator@D@2@@std@@U_BOT_SKILL@@@1@XZ
	??D?$_List_unchecked_const_iterator@V?$_List_val@U?$_List_simple_types@U?$pair@$$CBV?$basic_string@DU?$char_traits@D@std@@V?$allocator@D@2@@std@@U_TEAMSIZEDEFINITIONS@@@std@@@std@@@std@@U_Iterator_base0@2@@std@@QBEABU?$pair@$$CBV?$basic_string@DU?$char_traits@D@std@@V?$allocator@D@2@@std@@U_TEAMSIZEDEFINITIONS@@@1@XZ
	??D?$_List_unchecked_iterator@V?$_List_val@U?$_List_simple_types@U?$pair@$$CBHU_BUILDABLE_STRUCTURE@@@std@@@std@@@std@@@std@@QBEAAU?$pair@$$CBHU_BUILDABLE_STRUCTURE@@@1@XZ
	??D?$_List_unchecked_iterator@V?$_List_val@U?$_List_simple_types@U?$pair@$$CBHU_DROPPED_MARINE_ITEM@@@std@@@std@@@std@@@std@@QBEAAU?$pair@$$CBHU_DROPPED_MARINE_ITEM@@@1@XZ
	??D?$_List_unchecked_iterator@V?$_List_val@U?$_List_simple_types@U?$pair@$$CBV?$basic_string@DU?$char_traits@D@std@@V?$allocator@D@2@@std@@U_BOT_SKILL@@@std@@@std@@@std@@@std@@QBEAAU?$pair@$$CBV?$basic_string@DU?$char_traits@D@std@@V?$allocator@D@2@@std@@U_BOT_SKILL@@@1@XZ
	??D?$_List_unchecked_iterator@V?$_List_val@U?$_List_simple_types@U?$pair@$$CBV?$basic_string@DU?$char_traits@D@std@@V?$allocator@D@2@@std@@U_TEAMSIZEDEFINITIONS@@@std@@@std@@@std@@@std@@QBEAAU?$pair@$$CBV?$basic_string@DU?$char_traits@D@std@@V?$allocator@D@2@@std@@U_TEAMSIZEDEFINITIONS@@@1@XZ
	??D?$_String_const_iterator@V?$_String_val@U?$_Simple_types@D@std@@@std@@@std@@QBEABDXZ
	??D?$_String_iterator@V?$_String_val@U?$_Simple_types@D@std@@@std@@@std@@QBEAADXZ
	??D@YA?AVVector@@MABV0@@Z
	??DVector@@QBE?AV0@M@Z
	??E?$_List_const_iterator@V?$_List_val@U?$_List_simple_types@U?$pair@$$CBHU_BUILDABLE_STRUCTURE@@@std@@@std@@@std@@@std@@QAE?AV01@H@Z
	??E?$_List_const_iterator@V?$_List_val@U?$_List_simple_types@U?$pair@$$CBHU_BUILDABLE_STRUCTURE@@@std@@@std@@@std@@@std@@QAEAAV01@XZ
	??E?$_List_const_iterator@V?$_List_val@U?$_List_simple_types@U?$pair@$$CBHU_DROPPED_MARINE_ITEM@@@std@@@std@@@std@@@std@@QAE?AV01@H@Z
	??E?$_List_const_iterator@V?$_List_val@U?$_List_simple_types@U?$pair@$$CBHU_DROPPED_MARINE_ITEM@@@std@@@std@@@std@@@std@@QAEAAV01@XZ
	??E?$_List_const_iterator@V?$_List_val@U?$_List_simple_types@U?$pair@$$CBV?$basic_string@DU?$char_traits@D@std@@V?$allocator@D@2@@std@@U_BOT_SKILL@@@std@@@std@@@std@@@std@@QAE?AV01@H@Z
	??E?$_List_const_iterator@V?$_List_val@U?$_List_simple_types@U?$pair@$$CBV?$basic_string@DU?$char_traits@D@std@@V?$allocator@D@2@@std@@U_BOT_SKILL@@@std@@@std@@@std@@@std@@QAEAAV01@XZ
	??E?$_List_const_iterator@V?$_List_val@U?$_List_simple_types@U?$pair@$$CBV?$basic_string@DU?$char_traits@D@std@@V?$allocator@D@2@@std@@U_TEAMSIZEDEFINITIONS@@@std@@@std@@@std@@@std@@QAE?AV01@H@Z
	??E?$_List_const_iterator@V?$_List_val@U?$_List_simple_types@U?$pair@$$CBV?$basic_string@DU?$char_traits@D@std@@V?$allocator@D@2@@std@@U_TEAMSIZEDEFINITIONS@@@std@@@std@@@std@@@std@@QAEAAV01@XZ
	??E?$_List_iterator@V?$_List_val@U?$_List_simple_types@U?$pair@$$CBHU_BUILDABLE_STRUCTURE@@@std@@@std@@@std@@@std@@QAE?AV01@H@Z
	??E?$_List_iterator@V?$_List_val@U?$_List_simple_types@U?$pair@$$CBHU_BUILDABLE_STRUCTURE@@@std@@@std@@@std@@@std@@QAEAAV01@XZ
	??E?$_List_iterator@V?$_List_val@U?$_List_simple_types@U?$pair@$$CBHU_DROPPED_MARINE_ITEM@@@std@@@std@@@std@@@std@@QAE?AV01@H@Z
	??E?$_List_iterator@V?$_List_val@U?$_List_simple_types@U?$pair@$$CBHU_DROPPED_MARINE_ITEM@@@std@@@std@@@std@@@std@@QAEAAV01@XZ
	??E?$_List_unchecked_const_iterator@V?$_List_val@U?$_List_simple_types@U?$pair@$$CBHU_BUILDABLE_STRUCTURE@@@std@@@std@@@std@@U_Iterator_base0@2@@std@@QAEAAV01@XZ
	??E?$_List_unchecked_const_iterator@V?$_List_val@U?$_List_simple_types@U?$pair@$$CBHU_DROPPED_MARINE_ITEM@@@std@@@std@@@std@@U_Iterator_base0@2@@std@@QAEAAV01@XZ
	??E?$_List_unchecked_const_iterator@V?$_List_val@U?$_List_simple_types@U?$pair@$$CBV?$basic_string@DU?$char_traits@D@std@@V?$allocator@D@2@@std@@U_BOT_SKILL@@@std@@@std@@@std@@U_Iterator_base0@2@@std@@QAEAAV01@XZ
	??E?$_List_unchecked_const_iterator@V?$_List_val@U?$_List_simple_types@U?$pair@$$CBV?$basic_string@DU?$char_traits@D@std@@V?$allocator@D@2@@std@@U_TEAMSIZEDEFINITIONS@@@std@@@std@@@std@@U_Iterator_base0@2@@std@@QAEAAV01@XZ
	??E?$_List_unchecked_iterator@V?$_List_val@U?$_List_simple_types@U?$pair@$$CBHU_BUILDABLE_STRUCTURE@@@std@@@std@@@std@@@std@@QAEAAV01@XZ
	??E?$_List_unchecked_iterator@V?$_List_val@U?$_List_simple_types@U?$pair@$$CBHU_DROPPED_MARINE_ITEM@@@std@@@std@@@std@@@std@@QAEAAV01@XZ
	??E?$_List_unchecked_iterator@V?$_List_val@U?$_List_simple_types@U?$pair@$$CBV?$basic_string@DU?$char_traits@D@std@@V?$allocator@D@2@@std@@U_BOT_SKILL@@@std@@@std@@@std@@@std@@QAEAAV01@XZ
	??E?$_List_unchecked_iterator@V?$_List_val@U?$_List_simple_types@U?$pair@$$CBV?$basic_string@DU?$char_traits@D@std@@V?$allocator@D@2@@std@@U_TEAMSIZEDEFINITIONS@@@std@@@std@@@std@@@std@@QAEAAV01@XZ
	??F?$_List_unchecked_const_iterator@V?$_List_val@U?$_List_simple_types@U?$pair@$$CBHU_BUILDABLE_STRUCTURE@@@std@@@std@@@std@@U_Iterator_base0@2@@std@@QAEAAV01@XZ
	??F?$_List_unchecked_const_iterator@V?$_List_val@U?$_List_simple_types@U?$pair@$$CBHU_DROPPED_MARINE_ITEM@@@std@@@std@@@std@@U_Iterator_base0@2@@std@@QAEAAV01@XZ
	??F?$_List_unchecked_const_iterator@V?$_List_val@U?$_List_simple_types@U?$pair@$$CBV?$basic_string@DU?$char_traits@D@std@@V?$allocator@D@2@@std@@U_BOT_SKILL@@@std@@@std@@@std@@U_Iterator_base0@2@@std@@QAEAAV01@XZ
	??F?$_List_unchecked_const_iterator@V?$_List_val@U?$_List_simple_types@U?$pair@$$CBV?$basic_string@DU?$char_traits@D@std@@V?$allocator@D@2@@std@@U_TEAMSIZEDEFINITIONS@@@std@@@std@@@std@@U_Iterator_base0@2@@std@@QAEAAV01@XZ
	??F?$_List_unchecked_iterator@V?$_List_val@U?$_List_simple_types@U?$pair@$$CBHU_BUILDABLE_STRUCTURE@@@std@@@std@@@std@@@std@@QAEAAV01@XZ
	??F?$_List_unchecked_iterator@V?$_List_val@U?$_List_simple_types@U?$pair@$$CBHU_DROPPED_MARINE_ITEM@@@std@@@std@@@std@@@std@@QAEAAV01@XZ
	??F?$_List_unchecked_iterator@V?$_List_val@U?$_List_simple_types@U?$pair@$$CBV?$basic_string@DU?$char_traits@D@std@@V?$allocator@D@2@@std@@U_BOT_SKILL@@@std@@@std@@@std@@@std@@QAEAAV01@XZ
	??F?$_List_unchecked_iterator@V?$_List_val@U?$_List_simple_types@U?$pair@$$CBV?$basic_string@DU?$char_traits@D@std@@V?$allocator@D@2@@std@@U_TEAMSIZEDEFINITIONS@@@std@@@std@@@std@@@std@@QAEAAV01@XZ
	??G?$_String_const_iterator@V?$_String_val@U?$_Simple_types@D@std@@@std@@@std@@QBEHABV01@@Z
	??GVector@@QBE?AV0@ABV0@@Z
	??GVector@@QBE?AV0@XZ
	??H?$_String_iterator@V?$_String_val@U?$_Simple_types@D@std@@@std@@@std@@QBE?AV01@H@Z
	??HVector@@QBE?AV0@ABV0@@Z
	??KVector@@QBE?AV0@M@Z
	??R<lambda_15711c68e099a15a58f4d77303cb286d>@@QBEXQADQBDID@Z
	??R<lambda_9366063389c5f42a00a5088cf24e69de>@@QBEXQADIQBD@Z
	??R?$_Conditionally_enabled_hash@H$00@std@@QBEIABH@Z
	??R?$_Uhash_compare@HU?$hash@H@std@@U?$equal_to@H@2@@std@@QBEIABH@Z
	??R?$_Uhash_compare@HU?$hash@H@std@@U?$equal_to@H@2@@std@@QBE_NABH0@Z
	??R?$_Uhash_compare@V?$basic_string@DU?$char_traits@D@std@@V?$allocator@D@2@@std@@U?$hash@V?$basic_string@DU?$char_traits@D@std@@V?$allocator@D@2@@std@@@2@U?$equal_to@V?$basic_string@DU?$char_traits@D@std@@V?$allocator@D@2@@std@@@2@@std@@QBEIABV?$basic_string@DU?$char_traits@D@std@@V?$allocator@D@2@@1@@Z
	??R?$_Uhash_compare@V?$basic_string@DU?$char_traits@D@std@@V?$allocator@D@2@@std@@U?$hash@V?$basic_string@DU?$char_traits@D@std@@V?$allocator@D@2@@std@@@2@U?$equal_to@V?$basic_string@DU?$char_traits@D@std@@V?$allocator@D@2@@std@@@2@@std@@QBE_NABV?$basic_string@DU?$char_traits@D@std@@V?$allocator@D@2@@1@0@Z
	??R?$default_delete@V_Facet_base@std@@@std@@QBEXPAV_Facet_base@1@@Z
	??R?$equal_to@H@std@@QBE_NABH0@Z
	??R?$equal_to@V?$basic_string@DU?$char_traits@D@std@@V?$allocator@D@2@@std@@@std@@QBE_NABV?$basic_string@DU?$char_traits@D@std@@V?$allocator@D@2@@1@0@Z
	??R?$hash@V?$basic_string@DU?$char_traits@D@std@@V?$allocator@D@2@@std@@@std@@QBEIABV?$basic_string@DU?$char_traits@D@std@@V?$allocator@D@2@@1@@Z
	??Y?$_String_const_iterator@V?$_String_val@U?$_Simple_types@D@std@@@std@@@std@@QAEAAV01@H@Z
	??Y?$_String_iterator@V?$_String_val@U?$_Simple_types@D@std@@@std@@@std@@QAEAAV01@H@Z
	??Y?$basic_string@DU?$char_traits@D@std@@V?$allocator@D@2@@std@@QAEAAV01@D@Z
	??_D?$basic_ifstream@DU?$char_traits@D@std@@@std@@QAEXXZ
	??_D?$basic_istringstream@DU?$char_traits@D@std@@V?$allocator@D@2@@std@@QAEXXZ
	??_H@YGXPAXIIP6EPAX0@Z@Z
	?AbortCurrentMove@@YA_NPAU_BOT_T@@VVector@@@Z
	?AddMapLocation@@YAXPBDVVector@@1@Z
	?AlienBuilderSetCombatModePrimaryTask@@YAXPAU_BOT_T@@PAU_BOT_TASK@@@Z
	?AlienBuilderSetPrimaryTask@@YAXPAU_BOT_T@@PAU_BOT_TASK@@@Z
	?AlienBuilderSetSecondaryTask@@YAXPAU_BOT_T@@PAU_BOT_TASK@@@Z
	?AlienCapperSetPrimaryTask@@YAXPAU_BOT_T@@PAU_BOT_TASK@@@Z
	?AlienCapperSetSecondaryTask@@YAXPAU_BOT_T@@PAU_BOT_TASK@@@Z
	?AlienCheckCombatModeWantsAndNeeds@@YAXPAU_BOT_T@@@Z
	?AlienCheckWantsAndNeeds@@YAXPAU_BOT_T@@@Z
	?AlienCombatModeThink@@YAXPAU_BOT_T@@@Z
	?AlienCombatThink@@YAXPAU_BOT_T@@@Z
	?AlienDestroyerSetCombatModePrimaryTask@@YAXPAU_BOT_T@@PAU_BOT_TASK@@@Z
	?AlienDestroyerSetPrimaryTask@@YAXPAU_BOT_T@@PAU_BOT_TASK@@@Z
	?AlienDestroyerSetSecondaryTask@@YAXPAU_BOT_T@@PAU_BOT_TASK@@@Z
	?AlienGetBestBotRole@@YA?AW4BotRole@@PAU_BOT_T@@@Z
	?AlienGetBestCombatModeRole@@YA?AW4BotRole@@PBU_BOT_T@@@Z
	?AlienGetNextCombatUpgrade@@YA?AW4CombatModeAlienUpgrade@@PAU_BOT_T@@@Z
	?AlienHarasserSetCombatModePrimaryTask@@YAXPAU_BOT_T@@PAU_BOT_TASK@@@Z
	?AlienHarasserSetPrimaryTask@@YAXPAU_BOT_T@@PAU_BOT_TASK@@@Z
	?AlienHarasserSetSecondaryTask@@YAXPAU_BOT_T@@PAU_BOT_TASK@@@Z
	?AlienProgressBuildTask@@YAXPAU_BOT_T@@PAU_BOT_TASK@@@Z
	?AlienProgressCapResNodeTask@@YAXPAU_BOT_T@@PAU_BOT_TASK@@@Z
	?AlienProgressGetHealthTask@@YAXPAU_BOT_T@@PAU_BOT_TASK@@@Z
	?AlienProgressHealTask@@YAXPAU_BOT_T@@PAU_BOT_TASK@@@Z
	?AlienSetCombatModeSecondaryTask@@YAXPAU_BOT_T@@PAU_BOT_TASK@@@Z
	?AlienThink@@YAXPAU_BOT_T@@@Z
	?AreKeyPointsReachableForBot@@YA_NPAU_BOT_T@@@Z
	?BSP_RegisterWeldables@@YAXXZ
	?BlinkClimbMove@@YAXPAU_BOT_T@@VVector@@1M@Z
	?BlockedMove@@YAXPAU_BOT_T@@VVector@@1@Z
	?BotAlienChooseBestWeaponForStructure@@YA?AW4NSWeapon@@PAU_BOT_T@@PAUedict_s@@@Z
	?BotAlienSetCombatModePrimaryTask@@YAXPAU_BOT_T@@PAU_BOT_TASK@@@Z
	?BotAlienSetPrimaryTask@@YAXPAU_BOT_T@@PAU_BOT_TASK@@@Z
	?BotAlienSetSecondaryTask@@YAXPAU_BOT_T@@PAU_BOT_TASK@@@Z
	?BotAttackTarget@@YAXPAU_BOT_T@@PAUedict_s@@@Z
	?BotClearEnemyTrackingInfo@@YAXPAU_ENEMY_STATUS@@@Z
	?BotClient_NS_Alert_32@@YAXPAXH@Z
	?BotClient_NS_Alert_33@@YAXPAXH@Z
	?BotClient_NS_AlienInfo_32@@YAXPAXH@Z
	?BotClient_NS_AlienInfo_33@@YAXPAXH@Z
	?BotClient_NS_Damage@@YAXPAXH@Z
	?BotClient_NS_DeathMsg@@YAXPAXH@Z
	?BotClient_NS_GameStatus@@YAXPAXH@Z
	?BotClient_NS_ReceiveOrder@@YAXPAXH@Z
	?BotClient_NS_SetSelect@@YAXPAXH@Z
	?BotClient_NS_SetupMap@@YAXPAXH@Z
	?BotClient_Valve_AmmoPickup@@YAXPAXH@Z
	?BotClient_Valve_AmmoX@@YAXPAXH@Z
	?BotClient_Valve_CurrentWeapon@@YAXPAXH@Z
	?BotClient_Valve_WeaponList@@YAXPAXH@Z
	?BotCommanderDropItem@@YA_NPAU_BOT_T@@HH@Z
	?BotCommanderPlaceStructure@@YA_NPAU_BOT_T@@HH@Z
	?BotCommanderRecycleStructure@@YA_NPAU_BOT_T@@HH@Z
	?BotCommanderResearchTech@@YA_NPAU_BOT_T@@HH@Z
	?BotCommanderSelectStructure@@YA_NPAU_BOT_T@@PBUedict_s@@HH@Z
	?BotCommanderUpgradeStructure@@YA_NPAU_BOT_T@@HH@Z
	?BotDied@@YAXPAU_BOT_T@@PAUedict_s@@@Z
	?BotDirectLookAt@@YAXPAU_BOT_T@@VVector@@@Z
	?BotDrawPath@@YAXPAU_BOT_T@@M_N@Z
	?BotDropWeapon@@YAXPAU_BOT_T@@@Z
	?BotEvolveLifeform@@YAXPAU_BOT_T@@W4NSPlayerClass@@@Z
	?BotFollowFlightPath@@YAXPAU_BOT_T@@@Z
	?BotFollowPath@@YAXPAU_BOT_T@@@Z
	?BotGetCurrentWeaponClipAmmo@@YAHPBU_BOT_T@@@Z
	?BotGetCurrentWeaponMaxClipAmmo@@YAHPBU_BOT_T@@@Z
	?BotGetCurrentWeaponReserveAmmo@@YAHPBU_BOT_T@@@Z
	?BotGetNearestDangerTurret@@YAPAUedict_s@@PAU_BOT_T@@M@Z
	?BotGetNextEnemyTarget@@YAHPAU_BOT_T@@@Z
	?BotGetNextTask@@YAPAU_BOT_TASK@@PAU_BOT_T@@@Z
	?BotGetPrimaryWeaponAmmoReserve@@YAHPAU_BOT_T@@@Z
	?BotGetPrimaryWeaponClipAmmo@@YAHPBU_BOT_T@@@Z
	?BotGetPrimaryWeaponMaxAmmoReserve@@YAHPAU_BOT_T@@@Z
	?BotGetPrimaryWeaponMaxClipSize@@YAHPBU_BOT_T@@@Z
	?BotGetSecondaryWeaponAmmoReserve@@YAHPAU_BOT_T@@@Z
	?BotGetSecondaryWeaponClipAmmo@@YAHPBU_BOT_T@@@Z
	?BotGetSecondaryWeaponMaxAmmoReserve@@YAHPAU_BOT_T@@@Z
	?BotGetSecondaryWeaponMaxClipSize@@YAHPBU_BOT_T@@@Z
	?BotGuardLocation@@YAXPAU_BOT_T@@VVector@@@Z
	?BotHasTaskOfType@@YA_NPAU_BOT_T@@W4BotTaskType@@@Z
	?BotIsAtLocation@@YA_NPBU_BOT_T@@VVector@@@Z
	?BotJump@@YAXPAU_BOT_T@@@Z
	?BotKilledPlayer@@YAXPAU_BOT_T@@PAUedict_s@@@Z
	?BotLeap@@YAXPAU_BOT_T@@VVector@@@Z
	?BotLookAt@@YAXPAU_BOT_T@@PAUedict_s@@@Z
	?BotLookAt@@YAXPAU_BOT_T@@VVector@@@Z
	?BotMarineChooseBestWeapon@@YA?AW4NSWeapon@@PAU_BOT_T@@PAUedict_s@@@Z
	?BotMarineChooseBestWeaponForStructure@@YA?AW4NSWeapon@@PAU_BOT_T@@PAUedict_s@@@Z
	?BotMarineSetCombatModePrimaryTask@@YAXPAU_BOT_T@@PAU_BOT_TASK@@@Z
	?BotMarineSetPrimaryTask@@YAXPAU_BOT_T@@PAU_BOT_TASK@@@Z
	?BotMoveLookAt@@YAXPAU_BOT_T@@VVector@@@Z
	?BotMovementInputs@@YAXPAU_BOT_T@@@Z
	?BotOnCompleteCommanderTask@@YAXPAU_BOT_T@@PAU_BOT_TASK@@@Z
	?BotProgressAttackTask@@YAXPAU_BOT_T@@PAU_BOT_TASK@@@Z
	?BotProgressDefendTask@@YAXPAU_BOT_T@@PAU_BOT_TASK@@@Z
	?BotProgressEvolveTask@@YAXPAU_BOT_T@@PAU_BOT_TASK@@@Z
	?BotProgressGuardTask@@YAXPAU_BOT_T@@PAU_BOT_TASK@@@Z
	?BotProgressMoveTask@@YAXPAU_BOT_T@@PAU_BOT_TASK@@@Z
	?BotProgressPickupTask@@YAXPAU_BOT_T@@PAU_BOT_TASK@@@Z
	?BotProgressReinforceStructureTask@@YAXPAU_BOT_T@@PAU_BOT_TASK@@@Z
	?BotProgressResupplyTask@@YAXPAU_BOT_T@@PAU_BOT_TASK@@@Z
	?BotProgressTakeCommandTask@@YAXPAU_BOT_T@@@Z
	?BotProgressTask@@YAXPAU_BOT_T@@PAU_BOT_TASK@@@Z
	?BotProgressTouchTask@@YAXPAU_BOT_T@@PAU_BOT_TASK@@@Z
	?BotProgressUseTask@@YAXPAU_BOT_T@@PAU_BOT_TASK@@@Z
	?BotRecalcPath@@YA_NPAU_BOT_T@@VVector@@@Z
	?BotReceiveAttackOrder@@YAXPAU_BOT_T@@W4AvHUser3@@VVector@@@Z
	?BotReceiveBuildOrder@@YAXPAU_BOT_T@@W4AvHUser3@@VVector@@@Z
	?BotReceiveCommanderOrder@@YAXPAU_BOT_T@@W4AvHOrderType@@W4AvHUser3@@VVector@@@Z
	?BotReceiveGuardOrder@@YAXPAU_BOT_T@@W4AvHUser3@@VVector@@@Z
	?BotReceiveMoveToOrder@@YAXPAU_BOT_T@@VVector@@@Z
	?BotReceiveWeldOrder@@YAXPAU_BOT_T@@W4AvHUser3@@VVector@@@Z
	?BotReloadWeapons@@YAXPAU_BOT_T@@@Z
	?BotRestartPlay@@YAXPAU_BOT_T@@@Z
	?BotSay@@YAXPAU_BOT_T@@MPAD@Z
	?BotSay@@YAXPAU_BOT_T@@PAD@Z
	?BotShootLocation@@YAXPAU_BOT_T@@W4NSWeapon@@VVector@@@Z
	?BotShootTarget@@YAXPAU_BOT_T@@W4NSWeapon@@PAUedict_s@@@Z
	?BotStopCommanderMode@@YAXPAU_BOT_T@@@Z
	?BotSuicide@@YAXPAU_BOT_T@@@Z
	?BotSwitchToWeapon@@YAXPAU_BOT_T@@W4NSWeapon@@@Z
	?BotTakeDamage@@YAXPAU_BOT_T@@HPAUedict_s@@@Z
	?BotTeamSay@@YAXPAU_BOT_T@@MPAD@Z
	?BotTeamSay@@YAXPAU_BOT_T@@PAD@Z
	?BotThink@@YAXPAU_BOT_T@@@Z
	?BotThrottledMsec@@YAEPAU_BOT_T@@@Z
	?BotThrowGrenadeAtTarget@@YAXPAU_BOT_T@@VVector@@@Z
	?BotUpdateAndClearTasks@@YAXPAU_BOT_T@@@Z
	?BotUpdateDesiredViewRotation@@YAXPAU_BOT_T@@@Z
	?BotUpdateView@@YAXPAU_BOT_T@@@Z
	?BotUpdateViewFrustum@@YAXPAU_BOT_T@@@Z
	?BotUpdateViewRotation@@YAXPAU_BOT_T@@M@Z
	?BotUseObject@@YA_NPAU_BOT_T@@PAUedict_s@@_N@Z
	?BotWithBuildTaskExists@@YA_NW4NSStructureType@@@Z
	?CONFIG_BotSkillLevelExists@@YA_NPBD@Z
	?CONFIG_GetAlienTeamSizeForMap@@YAHPBD@Z
	?CONFIG_GetBotFillMode@@YA?AW4_BOTFILLMODE@@XZ
	?CONFIG_GetBotName@@YAXPAD@Z
	?CONFIG_GetBotSkillLevel@@YA?AU_BOT_SKILL@@PBD@Z
	?CONFIG_GetCommanderMode@@YA?AW4_COMMANDERMODE@@XZ
	?CONFIG_GetCommanderWaitTime@@YAMXZ
	?CONFIG_GetGlobalBotSkillLevel@@YA?AU_BOT_SKILL@@XZ
	?CONFIG_GetHiveTechAtIndex@@YAHH@Z
	?CONFIG_GetManualAlienTeamSize@@YAHXZ
	?CONFIG_GetManualMarineTeamSize@@YAHXZ
	?CONFIG_GetMarineTeamSizeForMap@@YAHPBD@Z
	?CONFIG_GetMaxStuckTime@@YAMXZ
	?CONFIG_GetNSVersion@@YAHXZ
	?CONFIG_PopulateBotNames@@YAXXZ
	?CONFIG_PrintHelpFile@@YAXXZ
	?CONFIG_RegenerateConfigFile@@YAXXZ
	?CONFIG_SetBotFillMode@@YAXW4_BOTFILLMODE@@@Z
	?CONFIG_SetCommanderMode@@YAXW4_COMMANDERMODE@@@Z
	?CONFIG_SetConfigOverride@@YAX_N@Z
	?CONFIG_SetGlobalBotSkillLevel@@YAXPBD@Z
	?CONFIG_SetManualAlienTeamSize@@YAXH@Z
	?CONFIG_SetManualMarineTeamSize@@YAXH@Z
	?CalcNumAlienBuildersRequired@@YAHXZ
	?CanBotLeap@@YA_NPAU_BOT_T@@@Z
	?CheckAndHandleBreakableObstruction@@YAXPAU_BOT_T@@VVector@@1@Z
	?CheckAndHandleDoorObstruction@@YAXPAU_BOT_T@@VVector@@1@Z
	?ClampAngle@@YAXAAM@Z
	?ClearBotMovement@@YAXPAU_BOT_T@@@Z
	?ClearBotPath@@YAXPAU_BOT_T@@@Z
	?ClearBotStuck@@YAXPAU_BOT_T@@@Z
	?ClearBotStuckMovement@@YAXPAU_BOT_T@@@Z
	?ClientCommand@@YAXPAUedict_s@@@Z
	?ClientConnect@@YAHPAUedict_s@@PBD1QAD@Z
	?ClientDisconnect@@YAXPAUedict_s@@@Z
	?ClientPrint@@YAXPAUedict_s@@HPBD@Z
	?ClientPutInServer@@YAXPAUedict_s@@@Z
	?CombatModeThink@@YAXPAU_BOT_T@@@Z
	?CommanderGetPrimaryTask@@YAXPAU_BOT_T@@PAU_BOT_TASK@@@Z
	?CommanderProgressAction@@YA_NPAU_BOT_T@@HH@Z
	?CommanderProgressBuildAction@@YA_NPAU_BOT_T@@HH@Z
	?CommanderProgressItemDropAction@@YA_NPAU_BOT_T@@HH@Z
	?CommanderProgressOrderAction@@YA_NPAU_BOT_T@@HH@Z
	?CommanderProgressRecycleAction@@YA_NPAU_BOT_T@@HH@Z
	?CommanderProgressResearchAction@@YA_NPAU_BOT_T@@HH@Z
	?CommanderProgressUpgradeAction@@YA_NPAU_BOT_T@@HH@Z
	?CommanderQueueActionOrder@@YAXPAU_BOT_T@@HH@Z
	?CommanderQueueArmouryBuild@@YAXPAU_BOT_T@@H@Z
	?CommanderQueueArmouryResearch@@YAXPAU_BOT_T@@W4NSResearch@@H@Z
	?CommanderQueueArmsLabBuild@@YAXPAU_BOT_T@@H@Z
	?CommanderQueueArmsLabResearch@@YAXPAU_BOT_T@@W4NSResearch@@H@Z
	?CommanderQueueElectricResearch@@YAXPAU_BOT_T@@HPAUedict_s@@@Z
	?CommanderQueueInfantryPortalBuild@@YAXPAU_BOT_T@@H@Z
	?CommanderQueueItemDrop@@YAXPAU_BOT_T@@W4NSDeployableItem@@VVector@@PAUedict_s@@H@Z
	?CommanderQueueNextAction@@YAXPAU_BOT_T@@@Z
	?CommanderQueueObservatoryResearch@@YAXPAU_BOT_T@@W4NSResearch@@H@Z
	?CommanderQueuePhaseGateBuild@@YAXPAU_BOT_T@@VVector@@H@Z
	?CommanderQueuePrototypeLabResearch@@YAXPAU_BOT_T@@W4NSResearch@@H@Z
	?CommanderQueueRecycleAction@@YAXPAU_BOT_T@@PAUedict_s@@H@Z
	?CommanderQueueResTowerBuild@@YAXPAU_BOT_T@@H@Z
	?CommanderQueueResearch@@YAXPAU_BOT_T@@W4NSResearch@@H@Z
	?CommanderQueueUpgrade@@YAXPAU_BOT_T@@PAUedict_s@@H@Z
	?CommanderReceiveAlert@@YAXPAU_BOT_T@@VVector@@W4PlayerAlertType@@@Z
	?CommanderReceiveAmmoRequest@@YAXPAU_BOT_T@@PAUedict_s@@@Z
	?CommanderReceiveBaseAttackAlert@@YAXPAU_BOT_T@@VVector@@@Z
	?CommanderReceiveCatalystRequest@@YAXPAU_BOT_T@@PAUedict_s@@@Z
	?CommanderReceiveHealthRequest@@YAXPAU_BOT_T@@PAUedict_s@@@Z
	?CommanderReceiveOrderRequest@@YAXPAU_BOT_T@@PAUedict_s@@@Z
	?CommanderThink@@YAXPAU_BOT_T@@@Z
	?CustomThink@@YAXPAU_BOT_T@@@Z
	?DEBUG_BotMeleeTarget@@YAXPAU_BOT_T@@PAUedict_s@@@Z
	?DEBUG_DrawBotNextPathPoint@@YAXPAU_BOT_T@@M@Z
	?DEBUG_DrawNavMesh@@YAXVVector@@H@Z
	?DEBUG_DrawOffMeshConnections@@YAXXZ
	?DEBUG_DrawPath@@YAXPBU_BOT_PATH_NODE@@HM@Z
	?DEBUG_FindClosestPointBackOnPath@@YA?AVVector@@PAUedict_s@@@Z
	?DEBUG_ShowCommanderBuildingPlacements@@YAXPAU_BOT_T@@@Z
	?DEBUG_TestBackwardsPathFind@@YAXPAUedict_s@@VVector@@@Z
	?DEBUG_TestFlightPathFind@@YAXPAUedict_s@@VVector@@@Z
	?DoesBotHaveLOSToPlayer@@YA_NPAU_BOT_T@@PAUedict_s@@@Z
	?DrawAllConnections@MeshProcess@@QAEXXZ
	?DroneThink@@YAXPAU_BOT_T@@@Z
	?ENTINDEX@@YAHPAUedict_s@@@Z
	?ENTINDEX@@YAHPBUedict_s@@@Z
	?EvoBot_ServerCommand@@YAXXZ
	?FClassnameIs@@YAHPAUedict_s@@PBD@Z
	?FNullEnt@@YAHH@Z
	?FNullEnt@@YAHPBUedict_s@@@Z
	?FStrEq@@YAHPBD0@Z
	?FadeCombatThink@@YAXPAU_BOT_T@@@Z
	?FadeGetBestWeaponForCombatTarget@@YA?AW4NSWeapon@@PAU_BOT_T@@PAUedict_s@@@Z
	?FadedModeThink@@YAXPAU_BOT_T@@@Z
	?FakeClientCommand@@YAXPAUedict_s@@PBD11@Z
	?FallMove@@YAXPAU_BOT_T@@VVector@@1@Z
	?FindClosestNavigablePointToDestination@@YA?AVVector@@HV1@0M@Z
	?FindClosestPointBackOnPath@@YA?AVVector@@PAU_BOT_T@@@Z
	?FindDetailedPathClosestToPoint@@YAIHVVector@@0PAU_BOT_PATH_NODE@@PAHM@Z
	?FindFlightPathToPoint@@YAIHVVector@@0PAU_BOT_PATH_NODE@@PAHM@Z
	?FindPathClosestToPoint@@YAIHVVector@@0PAU_BOT_PATH_NODE@@PAHM@Z
	?FindPathClosestToPoint@@YAIPAU_BOT_T@@W4BotMoveStyle@@VVector@@2PAU_BOT_PATH_NODE@@PAHM@Z
	?FindPhaseGatePathToPoint@@YAIHVVector@@0PAU_BOT_PATH_NODE@@PAHM@Z
	?GAME_AddBotToTeam@@YAXH@Z
	?GAME_AddClient@@YAXPAUedict_s@@@Z
	?GAME_BotCreate@@YAXPAUedict_s@@H@Z
	?GAME_BotSpawnInit@@YAXPAU_BOT_T@@@Z
	?GAME_ClearClientList@@YAXXZ
	?GAME_GetBotDeltaTime@@YAMXZ
	?GAME_GetBotsWithRoleType@@YAHW4BotRole@@HPBUedict_s@@@Z
	?GAME_GetDebugMode@@YA?AW4_EVODEBUGMODE@@XZ
	?GAME_GetGameMode@@YA?AW4NSGameMode@@XZ
	?GAME_GetListenServerEdict@@YAPAUedict_s@@XZ
	?GAME_GetNumActivePlayersOnTeam@@YAHH@Z
	?GAME_GetNumAlivePlayersOnTeam@@YAHH@Z
	?GAME_GetNumBotsInGame@@YAHXZ
	?GAME_GetNumBotsOnTeam@@YAHH@Z
	?GAME_GetNumDeadPlayersOnTeam@@YAHH@Z
	?GAME_GetNumHumansOnTeam@@YAHH@Z
	?GAME_GetNumPlayersOnTeam@@YAHH@Z
	?GAME_GetNumPlayersOnTeamOfClass@@YAHHW4NSPlayerClass@@@Z
	?GAME_GetServerMSecVal@@YAHXZ
	?GAME_HandleFillTeams@@YAXXZ
	?GAME_HandleManualFillTeams@@YAXXZ
	?GAME_HandleTeamBalance@@YAXXZ
	?GAME_IsAnyHumanOnTeam@@YA_NH@Z
	?GAME_OnGameStart@@YAXXZ
	?GAME_RemoveAllBots@@YAXXZ
	?GAME_RemoveAllBotsInReadyRoom@@YAXXZ
	?GAME_RemoveBotFromTeam@@YAXH@Z
	?GAME_RemoveClient@@YAXPAUedict_s@@@Z
	?GAME_Reset@@YAXXZ
	?GAME_SetBotDeltaTime@@YAXM@Z
	?GAME_SetListenServerEdict@@YAXPAUedict_s@@@Z
	?GAME_UpdateBotCounts@@YAXXZ
	?GAME_UpdateServerMSecVal@@YAXN@Z
	?GameDLLInit@@YAXXZ
	?GetAlienCombatUpgradeCost@@YAHW4CombatModeAlienUpgrade@@@Z
	?GetBotAlienPrimaryWeapon@@YA?AW4NSWeapon@@PBU_BOT_T@@@Z
	?GetBotAvailableCombatPoints@@YAHPAU_BOT_T@@@Z
	?GetBotCurrentWeapon@@YA?AW4NSWeapon@@PBU_BOT_T@@@Z
	?GetBotIndex@@YAHPAUedict_s@@@Z
	?GetBotMarinePrimaryWeapon@@YA?AW4NSWeapon@@PBU_BOT_T@@@Z
	?GetBotMarineSecondaryWeapon@@YA?AW4NSWeapon@@PBU_BOT_T@@@Z
	?GetBotPointer@@YAPAU_BOT_T@@PBUedict_s@@@Z
	?GetBotPointerThirdParty@@YAPAU_BOT_T@@PBUedict_s@@@Z
	?GetBotPrimaryWeapon@@YA?AW4NSWeapon@@PBU_BOT_T@@@Z
	?GetBotSpentCombatPoints@@YAHPAU_BOT_T@@@Z
	?GetCommanderViewZHeight@@YAMXZ
	?GetDesiredAlienUpgrade@@YAHPBU_BOT_T@@W4HiveTechStatus@@@Z
	?GetEnergyCostForWeapon@@YAMW4NSWeapon@@@Z
	?GetEntityDefClassname@@YAPADPAU_BSPENTITYDEF@@@Z
	?GetFirstBotWithBuildTask@@YAPAU_BOT_T@@W4NSStructureType@@PAUedict_s@@@Z
	?GetFirstBotWithReinforceTask@@YAPAU_BOT_T@@PAUedict_s@@0@Z
	?GetFullFilePath@@YAXPADPBD@Z
	?GetGameDir@@YAXPAD@Z
	?GetImpulseForAlienCombatUpgrade@@YAHW4CombatModeAlienUpgrade@@@Z
	?GetImpulseForMarineCombatUpgrade@@YAHW4CombatModeMarineUpgrade@@@Z
	?GetLeapCost@@YAMPAU_BOT_T@@@Z
	?GetMarineCombatUpgradeCost@@YAHW4CombatModeMarineUpgrade@@@Z
	?GetMaxIdealWeaponRange@@YAMW4NSWeapon@@@Z
	?GetMinIdealWeaponRange@@YAMW4NSWeapon@@@Z
	?GetNextDirectFlightPath@@YAHPAU_BOT_T@@@Z
	?GetPitchForProjectile@@YA?AVVector@@V1@0MM@Z
	?GetPlayerAttemptedMoveDirection@@YA?AVVector@@PBUedict_s@@@Z
	?GetPlayerBottomOfCollisionHull@@YA?AVVector@@PBUedict_s@@@Z
	?GetPlayerClass@@YA?AW4NSPlayerClass@@PBUedict_s@@@Z
	?GetPlayerCloakAmount@@YAMPBUedict_s@@@Z
	?GetPlayerCombatExperience@@YAHPBUedict_s@@@Z
	?GetPlayerCombatLevel@@YAHPBUedict_s@@@Z
	?GetPlayerEnergy@@YAMPBUedict_s@@@Z
	?GetPlayerEnergyRegenPerSecond@@YAMPAUedict_s@@@Z
	?GetPlayerEyePosition@@YA?AVVector@@PBUedict_s@@@Z
	?GetPlayerHeight@@YAMPBUedict_s@@_N@Z
	?GetPlayerHullIndex@@YAHPBUedict_s@@@Z
	?GetPlayerHullIndex@@YAHPBUedict_s@@_N@Z
	?GetPlayerIndex@@YAHPBUedict_s@@@Z
	?GetPlayerMaxArmour@@YAHPBUedict_s@@@Z
	?GetPlayerOriginOffsetFromFloor@@YA?AVVector@@PBUedict_s@@_N@Z
	?GetPlayerOverallHealthPercent@@YAMPBUedict_s@@@Z
	?GetPlayerRadius@@YAMPBUedict_s@@@Z
	?GetPlayerResources@@YAHPBUedict_s@@@Z
	?GetPlayerTopOfCollisionHull@@YA?AVVector@@PBUedict_s@@@Z
	?GetPlayerTopOfCollisionHull@@YA?AVVector@@PBUedict_s@@_N@Z
	?GetStructureTypeFromEdict@@YA?AW4NSStructureType@@PBUedict_s@@@Z
	?GorgeCombatThink@@YAXPAU_BOT_T@@@Z
	?GorgeGetBestWeaponForCombatTarget@@YA?AW4NSWeapon@@PAU_BOT_T@@PAUedict_s@@@Z
	?GroundMove@@YAXPAU_BOT_T@@VVector@@1@Z
	?HandlePlayerAvoidance@@YAXPAU_BOT_T@@VVector@@@Z
	?HasBotReachedPathPoint@@YA_NPBU_BOT_T@@@Z
	?INDEXENT@@YAPAUedict_s@@H@Z
	?InvalidModeThink@@YAXPAU_BOT_T@@@Z
	?IsAlienBuilderTaskNeeded@@YA_NPAU_BOT_T@@@Z
	?IsAlienCapperTaskNeeded@@YA_NXZ
	?IsAlienTraitCategoryAvailable@@YA_NW4HiveTechStatus@@@Z
	?IsBotOffPath@@YA_NPBU_BOT_T@@@Z
	?IsBotPermaStuck@@YA_NPAU_BOT_T@@@Z
	?IsBotReloading@@YA_NPAU_BOT_T@@@Z
	?IsBotStuck@@YA_NPAU_BOT_T@@VVector@@@Z
	?IsEdictPlayer@@YA_NPBUedict_s@@@Z
	?IsEdictStructure@@YA_NPBUedict_s@@@Z
	?IsMeleeWeapon@@YA_NW4NSWeapon@@@Z
	?IsPlayerActiveInGame@@YA_NPBUedict_s@@@Z
	?IsPlayerAlien@@YA_NPBUedict_s@@@Z
	?IsPlayerBeingDigested@@YA_NPBUedict_s@@@Z
	?IsPlayerBot@@YA_NPBUedict_s@@@Z
	?IsPlayerBuffed@@YA_NPBUedict_s@@@Z
	?IsPlayerCharging@@YA_NPBUedict_s@@@Z
	?IsPlayerClimbingWall@@YA_NPBUedict_s@@@Z
	?IsPlayerCommander@@YA_NPBUedict_s@@@Z
	?IsPlayerDead@@YA_NPBUedict_s@@@Z
	?IsPlayerDigesting@@YA_NPBUedict_s@@@Z
	?IsPlayerFade@@YA_NPBUedict_s@@@Z
	?IsPlayerGestating@@YA_NPBUedict_s@@@Z
	?IsPlayerGorge@@YA_NPBUedict_s@@@Z
	?IsPlayerHuman@@YA_NPBUedict_s@@@Z
	?IsPlayerInBotFOV@@YA_NPAU_BOT_T@@PAUedict_s@@@Z
	?IsPlayerInReadyRoom@@YA_NPBUedict_s@@@Z
	?IsPlayerInUseRange@@YA_NPBUedict_s@@0@Z
	?IsPlayerLerk@@YA_NPBUedict_s@@@Z
	?IsPlayerMarine@@YA_NPBUedict_s@@@Z
	?IsPlayerMotionTracked@@YA_NPBUedict_s@@@Z
	?IsPlayerOnAlienTeam@@YA_NPBUedict_s@@@Z
	?IsPlayerOnLadder@@YA_NPBUedict_s@@@Z
	?IsPlayerOnMarineTeam@@YA_NPBUedict_s@@@Z
	?IsPlayerOnos@@YA_NPBUedict_s@@@Z
	?IsPlayerParasited@@YA_NPBUedict_s@@@Z
	?IsPlayerSkulk@@YA_NPBUedict_s@@@Z
	?IsPlayerSpectator@@YA_NPBUedict_s@@@Z
	?IsPlayerStunned@@YA_NPBUedict_s@@@Z
	?IsPlayerTouchingEntity@@YA_NPBUedict_s@@0@Z
	?IsPlayerVisibleToBot@@YA_NPAU_BOT_T@@PAUedict_s@@@Z
	?JumpMove@@YAXPAU_BOT_T@@VVector@@1@Z
	?KeyValue@@YAXPAUedict_s@@PAUKeyValueData_s@@@Z
	?LadderMove@@YAXPAU_BOT_T@@VVector@@1ME@Z
	?Length@Vector@@QBEMXZ
	?LerkCombatThink@@YAXPAU_BOT_T@@@Z
	?LerkGetBestWeaponForCombatTarget@@YA?AW4NSWeapon@@PAU_BOT_T@@PAUedict_s@@@Z
	?LoadNavMesh@@YA_NPBD@Z
	?MESSAGE_BEGIN@@YAXHHPBMPAUedict_s@@@Z
	?MarineAssaultSetCombatModePrimaryTask@@YAXPAU_BOT_T@@PAU_BOT_TASK@@@Z
	?MarineAssaultSetPrimaryTask@@YAXPAU_BOT_T@@PAU_BOT_TASK@@@Z
	?MarineAssaultSetSecondaryTask@@YAXPAU_BOT_T@@PAU_BOT_TASK@@@Z
	?MarineCapperSetPrimaryTask@@YAXPAU_BOT_T@@PAU_BOT_TASK@@@Z
	?MarineCapperSetSecondaryTask@@YAXPAU_BOT_T@@PAU_BOT_TASK@@@Z
	?MarineCheckWantsAndNeeds@@YAXPAU_BOT_T@@@Z
	?MarineCombatModeCheckWantsAndNeeds@@YAXPAU_BOT_T@@@Z
	?MarineCombatModeThink@@YAXPAU_BOT_T@@@Z
	?MarineCombatThink@@YA_NPAU_BOT_T@@@Z
	?MarineGetBestBotRole@@YA?AW4BotRole@@PBU_BOT_T@@@Z
	?MarineGetBestCombatModeRole@@YA?AW4BotRole@@PBU_BOT_T@@@Z
	?MarineGetNextCombatUpgrade@@YA?AW4CombatModeMarineUpgrade@@PAU_BOT_T@@@Z
	?MarineHuntEnemy@@YAXPAU_BOT_T@@PAU_ENEMY_STATUS@@@Z
	?MarineProgressBuildTask@@YAXPAU_BOT_T@@PAU_BOT_TASK@@@Z
	?MarineProgressCapResNodeTask@@YAXPAU_BOT_T@@PAU_BOT_TASK@@@Z
	?MarineProgressWeldTask@@YAXPAU_BOT_T@@PAU_BOT_TASK@@@Z
	?MarineSetCombatModeSecondaryTask@@YAXPAU_BOT_T@@PAU_BOT_TASK@@@Z
	?MarineSetSecondaryTask@@YAXPAU_BOT_T@@PAU_BOT_TASK@@@Z
	?MarineSweeperSetCombatModePrimaryTask@@YAXPAU_BOT_T@@PAU_BOT_TASK@@@Z
	?MarineSweeperSetPrimaryTask@@YAXPAU_BOT_T@@PAU_BOT_TASK@@@Z
	?MarineSweeperSetSecondaryTask@@YAXPAU_BOT_T@@PAU_BOT_TASK@@@Z
	?MarineThink@@YAXPAU_BOT_T@@@Z
	?MoveDirectlyTo@@YAXPAU_BOT_T@@VVector@@@Z
	?MoveTo@@YA_NPAU_BOT_T@@VVector@@W4BotMoveStyle@@M@Z
	?NavmeshLoaded@@YA_NXZ
	?NewMove@@YAXPAU_BOT_T@@@Z
	?Normalize@Vector@@QBE?AV1@XZ
	?OFFSET@@YAHPBUedict_s@@@Z
	?OnBotBeginGestation@@YAXPAU_BOT_T@@@Z
	?OnBotEndLadder@@YAXPAU_BOT_T@@@Z
	?OnBotStartLadder@@YAXPAU_BOT_T@@@Z
	?OnosCombatThink@@YAXPAU_BOT_T@@@Z
	?OnosGetBestWeaponForCombatTarget@@YA?AW4NSWeapon@@PAU_BOT_T@@PAUedict_s@@@Z
	?ParseConfigFile@@YAX_N@Z
	?PerformAttackLOSCheck@@YA?AW4BotAttackResult@@PAU_BOT_T@@W4NSWeapon@@PBUedict_s@@@Z
	?PerformAttackLOSCheck@@YA?AW4BotAttackResult@@VVector@@W4NSWeapon@@PBUedict_s@@@Z
	?PerformUnstuckMove@@YAXPAU_BOT_T@@VVector@@@Z
	?PhaseGateMove@@YAXPAU_BOT_T@@VVector@@1@Z
	?PlayerGetNearestDangerTurret@@YAPAUedict_s@@PBU1@M@Z
	?PlayerHasAlienUpgradeOfType@@YA_NPBUedict_s@@W4HiveTechStatus@@@Z
	?PlayerHasEquipment@@YA_NPAUedict_s@@@Z
	?PlayerHasHeavyArmour@@YA_NPBUedict_s@@@Z
	?PlayerHasJetpack@@YA_NPAUedict_s@@@Z
	?PlayerHasSpecialWeapon@@YA_NPAUedict_s@@@Z
	?PlayerHasWeapon@@YA_NPBUedict_s@@W4NSWeapon@@@Z
	?PopulateEmptyHiveList@@YAXXZ
	?PrintHiveInfo@@YAXXZ
	?QueueHeavyArmourLoadout@@YAXPAU_BOT_T@@VVector@@H@Z
	?QueueSecureHiveAction@@YAXPAU_BOT_T@@VVector@@H@Z
	?QueueSiegeHiveAction@@YAXPAU_BOT_T@@VVector@@H@Z
	?ReadyRoomThink@@YAXPAU_BOT_T@@@Z
	?RecalcAllBotPaths@@YAXXZ
	?RegularModeThink@@YAXPAU_BOT_T@@@Z
	?ReloadNavMeshes@@YAXXZ
	?STRING@@YAPBDJ@Z
	?SetCommanderViewZHeight@@YAXM@Z
	?SetHiveHealthPercent@@YAXHH@Z
	?SetHiveLocation@@YAXHVVector@@@Z
	?SetHiveStatus@@YAXHH@Z
	?SetHiveTechStatus@@YAXHH@Z
	?SetHiveUnderAttack@@YAXH_N@Z
	?SetNumberofHives@@YAXH@Z
	?ShouldBotThink@@YA_NPBU_BOT_T@@@Z
	?ShouldCommanderLeaveChair@@YA_NPAU_BOT_T@@@Z
	?SkulkCombatThink@@YAXPAU_BOT_T@@@Z
	?SkulkGetBestWeaponForCombatTarget@@YA?AW4NSWeapon@@PAU_BOT_T@@PAUedict_s@@@Z
	?Spawn@@YAHPAUedict_s@@@Z
	?StartFrame@@YAXXZ
	?StartNewBotFrame@@YAXPAU_BOT_T@@@Z
	?TASK_SetAttackTask@@YAXPAU_BOT_T@@PAU_BOT_TASK@@PAUedict_s@@_N@Z
	?TASK_SetBuildTask@@YAXPAU_BOT_T@@PAU_BOT_TASK@@PAUedict_s@@_N@Z
	?TASK_SetBuildTask@@YAXPAU_BOT_T@@PAU_BOT_TASK@@W4NSStructureType@@VVector@@_N@Z
	?TASK_SetCapResNodeTask@@YAXPAU_BOT_T@@PAU_BOT_TASK@@PBU_RESOURCE_NODE@@_N@Z
	?TASK_SetDefendTask@@YAXPAU_BOT_T@@PAU_BOT_TASK@@PAUedict_s@@_N@Z
	?TASK_SetEvolveTask@@YAXPAU_BOT_T@@PAU_BOT_TASK@@VVector@@H_N@Z
	?TASK_SetMoveTask@@YAXPAU_BOT_T@@PAU_BOT_TASK@@VVector@@_N@Z
	?TASK_SetReinforceStructureTask@@YAXPAU_BOT_T@@PAU_BOT_TASK@@PAUedict_s@@W4NSStructureType@@_N@Z
	?TASK_SetReinforceStructureTask@@YAXPAU_BOT_T@@PAU_BOT_TASK@@PAUedict_s@@_N@Z
	?TASK_SetTouchTask@@YAXPAU_BOT_T@@PAU_BOT_TASK@@PAUedict_s@@_N@Z
	?TASK_SetUseTask@@YAXPAU_BOT_T@@PAU_BOT_TASK@@PAUedict_s@@VVector@@_N@Z
	?TASK_SetUseTask@@YAXPAU_BOT_T@@PAU_BOT_TASK@@PAUedict_s@@_N@Z
	?TestAimThink@@YAXPAU_BOT_T@@@Z
	?TestGuardThink@@YAXPAU_BOT_T@@@Z
	?TestNavThink@@YAXPAU_BOT_T@@@Z
	?UTIL_ActionExistsInLocation@@YA_NPBU_BOT_T@@VVector@@@Z
	?UTIL_ActionHasValidPlayerAssigned@@YA_NPAU_BOT_T@@HH@Z
	?UTIL_ActiveHiveWithTechExists@@YA_NW4HiveTechStatus@@@Z
	?UTIL_ActiveHiveWithoutTechExists@@YA_NXZ
	?UTIL_AddTemporaryBoxObstacle@@YAIVVector@@0H@Z
	?UTIL_AddTemporaryObstacle@@YAIVVector@@MMH@Z
	?UTIL_AddTemporaryObstacles@@YAXVVector@@MMHPAI@Z
	?UTIL_AdjustPointAwayFromNavWall@@YA?AVVector@@V1@M@Z
	?UTIL_AlienFindNearestHealingSpot@@YAPAUedict_s@@PAU_BOT_T@@VVector@@@Z
	?UTIL_AlienFindUnclaimedResNodeFurthestFromLocation@@YAPBU_RESOURCE_NODE@@PBU_BOT_T@@ABVVector@@_N@Z
	?UTIL_AlienHiveNeedsReinforcing@@YA_NH@Z
	?UTIL_AlienResNodeNeedsReinforcing@@YA_NH@Z
	?UTIL_AnglesToVector@@YAXVVector@@PAV1@11@Z
	?UTIL_AnyMarinePlayerNearLocation@@YA_NABVVector@@M@Z
	?UTIL_AnyPlayerOnTeamHasLOSToLocation@@YA_NHVVector@@M@Z
	?UTIL_AnyPlayerOnTeamWithLOS@@YA_NABVVector@@HM@Z
	?UTIL_AnyTurretWithLOSToLocation@@YA_NVVector@@H@Z
	?UTIL_ArmouryResearchIsAvailable@@YA_NW4NSResearch@@@Z
	?UTIL_ArmsLabResearchIsAvailable@@YA_NW4NSResearch@@@Z
	?UTIL_BaseIsInDistress@@YA_NXZ
	?UTIL_BotRoleToChar@@YAPADW4BotRole@@@Z
	?UTIL_BuildFileName@@YAXPADPBD111@Z
	?UTIL_CalculateSlopeAngleBetweenPoints@@YAMVVector@@0@Z
	?UTIL_CancelCommanderPlayerOrder@@YA_NPAU_BOT_T@@H@Z
	?UTIL_CancelMarineOrder@@YA_NPAU_BOT_T@@H@Z
	?UTIL_ClampVectorToBox@@YA?AVVector@@ABV1@0@Z
	?UTIL_ClearAllBotData@@YAXPAU_BOT_T@@@Z
	?UTIL_ClearAllBotTasks@@YAXPAU_BOT_T@@@Z
	?UTIL_ClearBotTask@@YAXPAU_BOT_T@@PAU_BOT_TASK@@@Z
	?UTIL_ClearCommanderAction@@YAXPAU_BOT_T@@HH@Z
	?UTIL_ClearCommanderAction@@YAXPAU_BOT_T@@PAU_COMMANDER_ACTION@@@Z
	?UTIL_ClearCommanderOrder@@YAXPAU_BOT_T@@H@Z
	?UTIL_ClearGuardInfo@@YAXPAU_BOT_T@@@Z
	?UTIL_ClearHiveInfo@@YAXXZ
	?UTIL_ClearMapAIData@@YAXXZ
	?UTIL_ClearMapLocations@@YAXXZ
	?UTIL_CommChairExists@@YA_NXZ
	?UTIL_CommanderBuildActionIsValid@@YA_NPAU_BOT_T@@PAU_COMMANDER_ACTION@@@Z
	?UTIL_CommanderFirstFreeActionIndex@@YAHPAU_BOT_T@@H@Z
	?UTIL_CommanderQueueStructureBuildAtLocation@@YAXPAU_BOT_T@@VVector@@W4NSStructureType@@H@Z
	?UTIL_CommanderTrace@@YA_NPBUedict_s@@ABVVector@@1@Z
	?UTIL_ConfirmMarineOrderComplete@@YA_NPAU_BOT_T@@H@Z
	?UTIL_CountSetBitsInInteger@@YAII@Z
	?UTIL_CylinderInsidePlane@@YA_NPBU_FRUSTUM_PLANE_T@@VVector@@MM@Z
	?UTIL_DisplayBotInfo@@YAXPAU_BOT_T@@@Z
	?UTIL_DistToNearestFriendlyPlayer@@YAMABVVector@@H@Z
	?UTIL_DrawBox@@YAXPAUedict_s@@VVector@@1@Z
	?UTIL_DrawBox@@YAXPAUedict_s@@VVector@@1M@Z
	?UTIL_DrawBox@@YAXPAUedict_s@@VVector@@1MHHH@Z
	?UTIL_DrawHUDText@@YAXPAUedict_s@@DMMEEEPBD@Z
	?UTIL_DrawLine@@YAXPAUedict_s@@VVector@@1@Z
	?UTIL_DrawLine@@YAXPAUedict_s@@VVector@@1HHH@Z
	?UTIL_DrawLine@@YAXPAUedict_s@@VVector@@1M@Z
	?UTIL_DrawLine@@YAXPAUedict_s@@VVector@@1MHHH@Z
	?UTIL_DrawTemporaryObstacles@@YAXXZ
	?UTIL_DroppableItemTypeToChar@@YAPBDW4NSDeployableItem@@@Z
	?UTIL_DroppedItemIsPrimaryWeapon@@YA_NW4NSDeployableItem@@@Z
	?UTIL_ElectricalResearchIsAvailable@@YA_NPBUedict_s@@@Z
	?UTIL_FindClearCommanderOriginForBuild@@YA?AVVector@@PBU_BOT_T@@V1@M@Z
	?UTIL_FindClosestAvailableMarinePlayer@@YAHPAU_BOT_T@@VVector@@@Z
	?UTIL_FindClosestDamagedStructure@@YAPAUedict_s@@ABVVector@@HM_N@Z
	?UTIL_FindClosestMarinePlayerToLocation@@YAHPBUedict_s@@ABVVector@@M@Z
	?UTIL_FindClosestMarineStructureOfTypeUnbuilt@@YAPAUedict_s@@W4NSStructureType@@ABVVector@@M_N@Z
	?UTIL_FindClosestMarineStructureToLocation@@YAPAUedict_s@@ABVVector@@M_N@Z
	?UTIL_FindClosestMarineStructureUnbuilt@@YAPAUedict_s@@ABVVector@@M_N@Z
	?UTIL_FindClosestMarineStructureUnbuiltWithoutBuilders@@YAPAUedict_s@@PAU_BOT_T@@HABVVector@@M_N@Z
	?UTIL_FindCommanderBuildActionOfType@@YAPAU_COMMANDER_ACTION@@PAU_BOT_T@@W4NSStructureType@@VVector@@M@Z
	?UTIL_FindEligibleResNodeClosestToLocation@@YAPBU_RESOURCE_NODE@@ABVVector@@H_N@Z
	?UTIL_FindEligibleResNodeFurthestFromLocation@@YAPBU_RESOURCE_NODE@@ABVVector@@H_N@Z
	?UTIL_FindEntityByClassname@@YAPAUedict_s@@PAU1@PBD@Z
	?UTIL_FindEntityByString@@YAPAUedict_s@@PAU1@PBD1@Z
	?UTIL_FindEntityByTarget@@YAPAUedict_s@@PAU1@PBD@Z
	?UTIL_FindEntityByTargetname@@YAPAUedict_s@@PAU1@PBD@Z
	?UTIL_FindEntityInSphere@@YAPAUedict_s@@PAU1@ABVVector@@M@Z
	?UTIL_FindFreeResNodeWithMarineNearby@@YAHPAU_BOT_T@@@Z
	?UTIL_FindHighestSuccessfulTracePoint@@YA?AVVector@@V1@00MMM@Z
	?UTIL_FindMarineWithDamagedArmour@@YAPAUedict_s@@ABVVector@@MPAU1@@Z
	?UTIL_FindNearestResNodeIndexToLocation@@YAHABVVector@@@Z
	?UTIL_FindNearestResNodeToLocation@@YAPBU_RESOURCE_NODE@@ABVVector@@@Z
	?UTIL_FindSafePlayerInArea@@YAPAUedict_s@@HVVector@@MM@Z
	?UTIL_FindZHeightForWallClimb@@YAMVVector@@0H@Z
	?UTIL_GameModeToChar@@YAPBDW4NSGameMode@@@Z
	?UTIL_GenerateGuardWatchPoints@@YAXPAU_BOT_T@@ABVVector@@@Z
	?UTIL_GetActiveHiveWithoutChambers@@YAPBU_HIVE_DEFINITION_T@@W4HiveTechStatus@@H@Z
	?UTIL_GetAimLocationToLeadTarget@@YA?AVVector@@V1@00M@Z
	?UTIL_GetAmbushPositionForTarget2@@YA?AVVector@@PAU_BOT_T@@PAUedict_s@@@Z
	?UTIL_GetAmbushPositionForTarget@@YA?AVVector@@PAU_BOT_T@@PAUedict_s@@@Z
	?UTIL_GetAnyStructureOfTypeNearActiveHive@@YAPAUedict_s@@W4NSStructureType@@_N1@Z
	?UTIL_GetAnyStructureOfTypeNearUnbuiltHive@@YAPAUedict_s@@W4NSStructureType@@_N1@Z
	?UTIL_GetAreaForObstruction@@YAEW4NSStructureType@@@Z
	?UTIL_GetAvailableBotMsgSlot@@YAPAU_BOT_MSG@@PAU_BOT_T@@@Z
	?UTIL_GetBotAlienPrimaryWeapon@@YA?AW4NSWeapon@@PBU_BOT_T@@@Z
	?UTIL_GetBotCurrentPathArea@@YAEPAU_BOT_T@@@Z
	?UTIL_GetBuildableStructureRefFromEdict@@YAPAU_BUILDABLE_STRUCTURE@@PBUedict_s@@@Z
	?UTIL_GetButtonFloorLocation@@YA?AVVector@@V1@PAUedict_s@@@Z
	?UTIL_GetCentreOfEntity@@YA?AVVector@@PBUedict_s@@@Z
	?UTIL_GetChamberTypeForHiveTech@@YA?AW4NSStructureType@@W4HiveTechStatus@@@Z
	?UTIL_GetClosestMapLocationToPoint@@YAPADVVector@@@Z
	?UTIL_GetClosestPlayerNeedsHealing@@YAPAUedict_s@@VVector@@HMPAU1@_N@Z
	?UTIL_GetClosestPlayerOnTeamWithLOS@@YAPAUedict_s@@ABVVector@@HMPAU1@@Z
	?UTIL_GetClosestPointOnEntityToLocation@@YA?AVVector@@V1@PAUedict_s@@@Z
	?UTIL_GetClosestStructureAtLocation@@YAPAUedict_s@@ABVVector@@_N@Z
	?UTIL_GetClosestViableUnbuiltHive@@YAPBU_HIVE_DEFINITION_T@@VVector@@@Z
	?UTIL_GetCommChair@@YAPAUedict_s@@XZ
	?UTIL_GetCommChairLocation@@YA?AVVector@@XZ
	?UTIL_GetCostOfResearch@@YAHW4NSResearch@@@Z
	?UTIL_GetCostOfStructureType@@YAHW4NSStructureType@@@Z
	?UTIL_GetCrossProduct@@YA?AVVector@@V1@0@Z
	?UTIL_GetDistanceToPolygon2DSq@@YAMVVector@@PBV1@H@Z
	?UTIL_GetDoorBlockingPathPoint@@YAPAUedict_s@@PAU_BOT_PATH_NODE@@PAU1@@Z
	?UTIL_GetDoorBlockingPathPoint@@YAPAUedict_s@@VVector@@0EPAU1@@Z
	?UTIL_GetDotProduct2D@@YAMVVector@@0@Z
	?UTIL_GetDotProduct@@YAMVVector@@0@Z
	?UTIL_GetEntityGroundLocation@@YA?AVVector@@PBUedict_s@@@Z
	?UTIL_GetFirstCompletedStructureOfType@@YAPAUedict_s@@W4NSStructureType@@@Z
	?UTIL_GetFirstHiveWithoutTech@@YAPBU_HIVE_DEFINITION_T@@XZ
	?UTIL_GetFirstIdleArmsLab@@YAPAUedict_s@@XZ
	?UTIL_GetFirstIdleStructureOfType@@YAPAUedict_s@@W4NSStructureType@@@Z
	?UTIL_GetFirstMarineStructureOffNavmesh@@YAPAUedict_s@@XZ
	?UTIL_GetFirstPlacedStructureOfType@@YAPAUedict_s@@W4NSStructureType@@@Z
	?UTIL_GetFloorUnderEntity@@YA?AVVector@@PBUedict_s@@@Z
	?UTIL_GetForwardVector2D@@YA?AVVector@@V1@@Z
	?UTIL_GetForwardVector@@YA?AVVector@@V1@@Z
	?UTIL_GetFurthestHiveOfStatus@@YAPBU_HIVE_DEFINITION_T@@VVector@@W4HiveStatusType@@@Z
	?UTIL_GetFurthestVisiblePointOnPath@@YA?AVVector@@PBU_BOT_T@@@Z
	?UTIL_GetFurthestVisiblePointOnPath@@YA?AVVector@@V1@PBU_BOT_PATH_NODE@@H@Z
	?UTIL_GetGrenadeThrowTarget@@YA?AVVector@@PAU_BOT_T@@V1@M@Z
	?UTIL_GetHiveAtIndex@@YAPBU_HIVE_DEFINITION_T@@H@Z
	?UTIL_GetHiveFromEdict@@YAPBU_HIVE_DEFINITION_T@@PAUedict_s@@@Z
	?UTIL_GetHiveStatus@@YA?AW4HiveStatusType@@PBUedict_s@@@Z
	?UTIL_GetHiveWithTech@@YAPBU_HIVE_DEFINITION_T@@W4HiveTechStatus@@@Z
	?UTIL_GetItemCountOfTypeInArea@@YAHW4NSDeployableItem@@ABVVector@@M@Z
	?UTIL_GetItemTypeFromEdict@@YA?AW4NSDeployableItem@@PBUedict_s@@@Z
	?UTIL_GetMoveProfileForBot@@YAHPBU_BOT_T@@W4BotMoveStyle@@@Z
	?UTIL_GetMoveProfileForFade@@YAHW4BotMoveStyle@@@Z
	?UTIL_GetMoveProfileForGorge@@YAHW4BotMoveStyle@@@Z
	?UTIL_GetMoveProfileForLerk@@YAHW4BotMoveStyle@@@Z
	?UTIL_GetMoveProfileForMarine@@YAHW4BotMoveStyle@@@Z
	?UTIL_GetMoveProfileForOnos@@YAHW4BotMoveStyle@@@Z
	?UTIL_GetMoveProfileForSkulk@@YAHW4BotMoveStyle@@@Z
	?UTIL_GetNavAreaAtLocation@@YAEHVVector@@@Z
	?UTIL_GetNavAreaAtLocation@@YAEVVector@@@Z
	?UTIL_GetNavDoorByEdict@@YAPBU_NAV_DOOR@@PBUedict_s@@@Z
	?UTIL_GetNavMeshFilterForProfile@@YAPBVdtQueryFilter@@H@Z
	?UTIL_GetNavMeshForProfile@@YAPBVdtNavMesh@@H@Z
	?UTIL_GetNavMeshQueryForProfile@@YAPBVdtNavMeshQuery@@H@Z
	?UTIL_GetNearestAvailableResourcePointIndex@@YAHABVVector@@@Z
	?UTIL_GetNearestBuiltHiveToLocation@@YAPBU_HIVE_DEFINITION_T@@VVector@@@Z
	?UTIL_GetNearestCappedResNodeToLocation@@YAPBU_RESOURCE_NODE@@VVector@@H_N@Z
	?UTIL_GetNearestDoorTrigger@@YAPAUedict_s@@VVector@@PBU_NAV_DOOR@@PAU1@@Z
	?UTIL_GetNearestEquipment@@YAPAUedict_s@@VVector@@M_N@Z
	?UTIL_GetNearestHiveAtLocation@@YAPBU_HIVE_DEFINITION_T@@VVector@@@Z
	?UTIL_GetNearestHiveOfStatus@@YAPBU_HIVE_DEFINITION_T@@VVector@@W4HiveStatusType@@@Z
	?UTIL_GetNearestHiveUnderSiege@@YAPBU_HIVE_DEFINITION_T@@VVector@@@Z
	?UTIL_GetNearestHumanAtLocation@@YAPAUedict_s@@ABVVector@@M@Z
	?UTIL_GetNearestItemIndexOfType@@YAPAUedict_s@@W4NSDeployableItem@@VVector@@M@Z
	?UTIL_GetNearestItemOfType@@YAPAUedict_s@@W4NSDeployableItem@@VVector@@M@Z
	?UTIL_GetNearestLadderBottomPoint@@YA?AVVector@@PAUedict_s@@@Z
	?UTIL_GetNearestLadderCentrePoint@@YA?AVVector@@PAUedict_s@@@Z
	?UTIL_GetNearestLadderNormal@@YA?AVVector@@PAUedict_s@@@Z
	?UTIL_GetNearestLadderTopPoint@@YA?AVVector@@PAUedict_s@@@Z
	?UTIL_GetNearestMarineWithoutFullLoadout@@YAPAUedict_s@@VVector@@M@Z
	?UTIL_GetNearestOccupiedResourcePointIndex@@YAHABVVector@@@Z
	?UTIL_GetNearestPlayerOfClass@@YAPAUedict_s@@VVector@@W4NSPlayerClass@@MPBU1@@Z
	?UTIL_GetNearestPlayerOfTeamInArea@@YAPAUedict_s@@VVector@@MHPAU1@W4NSPlayerClass@@@Z
	?UTIL_GetNearestPointOfInterestToLocation@@YA?AVVector@@V1@_N@Z
	?UTIL_GetNearestPointOnNavWall@@YA?AVVector@@HV1@M@Z
	?UTIL_GetNearestPointOnNavWall@@YA?AVVector@@PAU_BOT_T@@M@Z
	?UTIL_GetNearestPolyRefForEntity@@YAIPBUedict_s@@@Z
	?UTIL_GetNearestPolyRefForLocation@@YAIHVVector@@@Z
	?UTIL_GetNearestPolyRefForLocation@@YAIVVector@@@Z
	?UTIL_GetNearestResNodeNeedsReinforcing@@YAPBU_RESOURCE_NODE@@PAU_BOT_T@@VVector@@@Z
	?UTIL_GetNearestSpecialPrimaryWeapon@@YAPAUedict_s@@VVector@@W4NSDeployableItem@@M_N@Z
	?UTIL_GetNearestStructureIndexOfType@@YAPAUedict_s@@ABVVector@@W4NSStructureType@@M_N2@Z
	?UTIL_GetNearestStructureOfTypeInLocation@@YAPAUedict_s@@W4NSStructureType@@ABVVector@@M_N2@Z
	?UTIL_GetNearestUnattackedStructureOfTeamInLocation@@YAPAUedict_s@@VVector@@PAU1@HM@Z
	?UTIL_GetNearestUnbuiltHiveNeedsReinforcing@@YAPBU_HIVE_DEFINITION_T@@PAU_BOT_T@@@Z
	?UTIL_GetNearestUnbuiltStructureOfTypeInLocation@@YAPAUedict_s@@W4NSStructureType@@ABVVector@@M@Z
	?UTIL_GetNearestUnbuiltStructureWithLOS@@YAPAUedict_s@@PAU_BOT_T@@VVector@@MH@Z
	?UTIL_GetNearestUndefendedStructureOfTypeUnderAttack@@YAPAUedict_s@@PAU_BOT_T@@W4NSStructureType@@@Z
	?UTIL_GetNearestUnprotectedResNode@@YAPBU_RESOURCE_NODE@@VVector@@@Z
	?UTIL_GetNextBotCurrentPathArea@@YAEPAU_BOT_T@@@Z
	?UTIL_GetNumActiveHives@@YAHXZ
	?UTIL_GetNumArmouriesUpgrading@@YAHXZ
	?UTIL_GetNumBuiltStructuresOfType@@YAHW4NSStructureType@@@Z
	?UTIL_GetNumBuiltStructuresOfTypeInRadius@@YAHW4NSStructureType@@VVector@@M@Z
	?UTIL_GetNumEquipmentInPlay@@YAHXZ
	?UTIL_GetNumPlacedOrQueuedStructuresOfType@@YAHPAU_BOT_T@@W4NSStructureType@@@Z
	?UTIL_GetNumPlacedStructuresOfType@@YAHW4NSStructureType@@@Z
	?UTIL_GetNumPlacedStructuresOfTypeInRadius@@YAHW4NSStructureType@@VVector@@M@Z
	?UTIL_GetNumPlayersOfTeamInArea@@YAHVVector@@MHPAUedict_s@@W4NSPlayerClass@@_N@Z
	?UTIL_GetNumPlayersOnTeamWithLOS@@YAHABVVector@@HMPAUedict_s@@@Z
	?UTIL_GetNumResNodes@@YAHXZ
	?UTIL_GetNumTotalHives@@YAHXZ
	?UTIL_GetNumUnbuiltHives@@YAHXZ
	?UTIL_GetNumUnbuiltStructuresOfTeamInArea@@YAHHVVector@@M@Z
	?UTIL_GetNumWeaponsOfTypeInPlay@@YAHW4NSWeapon@@@Z
	?UTIL_GetPathCostBetweenLocations@@YAMHVVector@@0@Z
	?UTIL_GetPhaseDistanceBetweenPoints@@YAMVVector@@0@Z
	?UTIL_GetPhaseDistanceBetweenPointsSq@@YAMVVector@@0@Z
	?UTIL_GetProjectileVelocityForWeapon@@YAMW4NSWeapon@@@Z
	?UTIL_GetQueuedBuildRequestsOfType@@YAHPAU_BOT_T@@W4NSStructureType@@@Z
	?UTIL_GetQueuedBuildRequestsOfTypeInArea@@YAHPAU_BOT_T@@W4NSStructureType@@VVector@@M@Z
	?UTIL_GetQueuedItemDropRequestsOfType@@YAHPAU_BOT_T@@W4NSDeployableItem@@@Z
	?UTIL_GetQueuedUpgradeRequestsOfType@@YAHPAU_BOT_T@@W4NSStructureType@@@Z
	?UTIL_GetRandomPointInBoundingBox@@YA?AVVector@@V1@0@Z
	?UTIL_GetRandomPointOfInterest@@YA?AVVector@@XZ
	?UTIL_GetRandomPointOnNavmesh@@YA?AVVector@@PBU_BOT_T@@@Z
	?UTIL_GetRandomPointOnNavmeshInDonut@@YA?AVVector@@HV1@MM@Z
	?UTIL_GetRandomPointOnNavmeshInDonutIgnoreReachability@@YA?AVVector@@HV1@MM@Z
	?UTIL_GetRandomPointOnNavmeshInRadius@@YA?AVVector@@HV1@M@Z
	?UTIL_GetRandomPointOnNavmeshInRadiusIgnoreReachability@@YA?AVVector@@HV1@M@Z
	?UTIL_GetRandomPointOnNavmeshInRadiusOfAreaType@@YA?AVVector@@W4SamplePolyFlags@@V1@M@Z
	?UTIL_GetRandomStructureOfType@@YAPAUedict_s@@W4NSStructureType@@PBU1@_N@Z
	?UTIL_GetRandomUnitVectorInCone@@YA?AVVector@@V1@M@Z
	?UTIL_GetResearchMask@@YA?AW4AvHUpgradeMask@@W4NSResearch@@@Z
	?UTIL_GetResourceNodeAtIndex@@YAPBU_RESOURCE_NODE@@H@Z
	?UTIL_GetSpectatedBot@@YAPAU_BOT_T@@PBUedict_s@@@Z
	?UTIL_GetStructureCountOfType@@YAHW4NSStructureType@@@Z
	?UTIL_GetStructureRadiusForObstruction@@YAMW4NSStructureType@@@Z
	?UTIL_GetSurfaceNormal@@YA?AVVector@@V1@00@Z
	?UTIL_GetTileCacheForProfile@@YAPBVdtTileCache@@H@Z
	?UTIL_GetTraceHitLocation@@YA?AVVector@@V1@0@Z
	?UTIL_GetTrackedEnemyRefForTarget@@YAPAU_ENEMY_STATUS@@PAU_BOT_T@@PAUedict_s@@@Z
	?UTIL_GetVectorNormal2D@@YA?AVVector@@V1@@Z
	?UTIL_GetVectorNormal@@YA?AVVector@@V1@@Z
	?UTIL_GetVelocityRequiredToReachTarget@@YAMVVector@@0M@Z
	?UTIL_GetWeaponTypeFromEdict@@YA?AW4NSWeapon@@PBUedict_s@@@Z
	?UTIL_GoldSrcUnitsToMetres@@YAMM@Z
	?UTIL_HasIdleArmsLab@@YA_NXZ
	?UTIL_HiveIsInProgress@@YA_NXZ
	?UTIL_HiveTechToChar@@YAPBDW4HiveTechStatus@@@Z
	?UTIL_HostSay@@YAXPAUedict_s@@HPAD@Z
	?UTIL_IUSER3ToStructureType@@YA?AW4NSStructureType@@H@Z
	?UTIL_IsAlienBuildTaskStillValid@@YA_NPAU_BOT_T@@PAU_BOT_TASK@@@Z
	?UTIL_IsAlienCapResNodeTaskStillValid@@YA_NPAU_BOT_T@@PAU_BOT_TASK@@@Z
	?UTIL_IsAlienGetHealthTaskStillValid@@YA_NPAU_BOT_T@@PAU_BOT_TASK@@@Z
	?UTIL_IsAlienHealTaskStillValid@@YA_NPAU_BOT_T@@PAU_BOT_TASK@@@Z
	?UTIL_IsAlienPlayerInArea@@YA_NVVector@@M@Z
	?UTIL_IsAlienPlayerInArea@@YA_NVVector@@MPAUedict_s@@@Z
	?UTIL_IsAlienStructure@@YA_NPBUedict_s@@@Z
	?UTIL_IsAlienStructure@@YA_NW4NSStructureType@@@Z
	?UTIL_IsAmmoPickupTaskStillValid@@YA_NPAU_BOT_T@@PAU_BOT_TASK@@@Z
	?UTIL_IsAnyHumanNearLocation@@YA_NABVVector@@M@Z
	?UTIL_IsAnyHumanNearLocationWithoutEquipment@@YA_NABVVector@@M@Z
	?UTIL_IsAnyHumanNearLocationWithoutSpecialWeapon@@YA_NABVVector@@M@Z
	?UTIL_IsAnyHumanNearLocationWithoutWeapon@@YA_NW4NSWeapon@@ABVVector@@M@Z
	?UTIL_IsAreaAffectedBySpores@@YA_NVVector@@@Z
	?UTIL_IsAreaAffectedByUmbra@@YA_NVVector@@@Z
	?UTIL_IsArmouryUpgrading@@YA_NPBUedict_s@@@Z
	?UTIL_IsAttackTaskStillValid@@YA_NPAU_BOT_T@@PAU_BOT_TASK@@@Z
	?UTIL_IsBuildTaskUrgent@@YA_NPAU_BOT_T@@PAU_BOT_TASK@@@Z
	?UTIL_IsBuildableStructureStillReachable@@YA_NPAU_BOT_T@@PBUedict_s@@@Z
	?UTIL_IsCommanderActionActionable@@YA_NPAU_BOT_T@@HH@Z
	?UTIL_IsCommanderActionComplete@@YA_NPAU_BOT_T@@HH@Z
	?UTIL_IsCommanderActionValid@@YA_NPAU_BOT_T@@HH@Z
	?UTIL_IsDefendTaskStillValid@@YA_NPAU_BOT_T@@PAU_BOT_TASK@@@Z
	?UTIL_IsDroppedItemStillReachable@@YA_NPAU_BOT_T@@PBUedict_s@@@Z
	?UTIL_IsEquipmentPickupTaskStillValid@@YA_NPAU_BOT_T@@PAU_BOT_TASK@@@Z
	?UTIL_IsEvolveTaskStillValid@@YA_NPAU_BOT_T@@PAU_BOT_TASK@@@Z
	?UTIL_IsGuardTaskStillValid@@YA_NPAU_BOT_T@@PAU_BOT_TASK@@@Z
	?UTIL_IsGuardTaskUrgent@@YA_NPAU_BOT_T@@PAU_BOT_TASK@@@Z
	?UTIL_IsHealthPickupTaskStillValid@@YA_NPAU_BOT_T@@PAU_BOT_TASK@@@Z
	?UTIL_IsMarineBuildTaskStillValid@@YA_NPAU_BOT_T@@PAU_BOT_TASK@@@Z
	?UTIL_IsMarineCapResNodeTaskStillValid@@YA_NPAU_BOT_T@@PAU_BOT_TASK@@@Z
	?UTIL_IsMarineOrderComplete@@YA_NPAU_BOT_T@@H@Z
	?UTIL_IsMarineOrderValid@@YA_NPAU_BOT_T@@H@Z
	?UTIL_IsMarineStructure@@YA_NPBUedict_s@@@Z
	?UTIL_IsMarineStructure@@YA_NW4NSStructureType@@@Z
	?UTIL_IsMoveTaskStillValid@@YA_NPAU_BOT_T@@PAU_BOT_TASK@@@Z
	?UTIL_IsMoveTaskUrgent@@YA_NPAU_BOT_T@@PAU_BOT_TASK@@@Z
	?UTIL_IsNearActiveHive@@YA_NVVector@@M@Z
	?UTIL_IsPathBlockedByDoor@@YA_NVVector@@0PAUedict_s@@@Z
	?UTIL_IsPlayerOfTeamInArea@@YA_NVVector@@MHPAUedict_s@@W4NSPlayerClass@@@Z
	?UTIL_IsReinforceHiveTaskStillValid@@YA_NPAU_BOT_T@@PAU_BOT_TASK@@@Z
	?UTIL_IsReinforceStructureTaskStillValid@@YA_NPAU_BOT_T@@PAU_BOT_TASK@@@Z
	?UTIL_IsResupplyTaskStillValid@@YA_NPAU_BOT_T@@PAU_BOT_TASK@@@Z
	?UTIL_IsStructureElectrified@@YA_NPBUedict_s@@@Z
	?UTIL_IsTaskCompleted@@YA_NPAU_BOT_T@@PAU_BOT_TASK@@@Z
	?UTIL_IsTaskStillValid@@YA_NPAU_BOT_T@@PAU_BOT_TASK@@@Z
	?UTIL_IsTaskUrgent@@YA_NPAU_BOT_T@@PAU_BOT_TASK@@@Z
	?UTIL_IsThereACommander@@YA_NXZ
	?UTIL_IsTurretFactoryUpgrading@@YA_NPBUedict_s@@@Z
	?UTIL_IsWeaponPickupTaskStillValid@@YA_NPAU_BOT_T@@PAU_BOT_TASK@@@Z
	?UTIL_IsWeldTaskStillValid@@YA_NPAU_BOT_T@@PAU_BOT_TASK@@@Z
	?UTIL_IssueMarineBuildOrder@@YAXPAU_BOT_T@@PAUedict_s@@1@Z
	?UTIL_IssueMarineMoveToOrder@@YAXPAU_BOT_T@@PAUedict_s@@VVector@@@Z
	?UTIL_IssueOrderForAction@@YA_NPAU_BOT_T@@HHH@Z
	?UTIL_ItemCanBeDeployed@@YA_NW4NSDeployableItem@@@Z
	?UTIL_ItemIsAlreadyLinked@@YA_NPAU_BOT_T@@PAUedict_s@@@Z
	?UTIL_LinkAlienStructureToTask@@YAXPAU_BOT_T@@PAUedict_s@@@Z
	?UTIL_LinkDroppedItemToAction@@YAXPAU_BOT_T@@PBU_DROPPED_MARINE_ITEM@@@Z
	?UTIL_LinkItem@@YAXPAU_BOT_T@@PAUedict_s@@@Z
	?UTIL_LinkPlacedStructureToAction@@YAXPAU_BOT_T@@PAU_BUILDABLE_STRUCTURE@@@Z
	?UTIL_LinkTriggerToDoor@@YAXPBUedict_s@@PAU_NAV_DOOR@@@Z
	?UTIL_LogPrintf@@YAXPADZZ
	?UTIL_LookUpLocationName@@YAXPBDPAD@Z
	?UTIL_MarineFindUnclaimedResNodeNearestLocation@@YAPBU_RESOURCE_NODE@@PBU_BOT_T@@ABVVector@@M@Z
	?UTIL_MarineResearchIsAvailable@@YA_NW4NSResearch@@@Z
	?UTIL_MarkDoorWeldable@@YAXPBD@Z
	?UTIL_MetresToGoldSrcUnits@@YAMM@Z
	?UTIL_NavmeshAreaToChar@@YAPBDE@Z
	?UTIL_NormalizeVector2D@@YAXPAVVector@@@Z
	?UTIL_NormalizeVector@@YAXPAVVector@@@Z
	?UTIL_ObservatoryResearchIsAvailable@@YA_NW4NSResearch@@@Z
	?UTIL_OnItemDropped@@YAXPBU_DROPPED_MARINE_ITEM@@@Z
	?UTIL_OnStructureCreated@@YAXPAU_BUILDABLE_STRUCTURE@@@Z
	?UTIL_OnStructureDestroyed@@YAXW4NSStructureType@@VVector@@@Z
	?UTIL_OrganiseCommanderActions@@YAXPAU_BOT_T@@@Z
	?UTIL_PlayerHasLOSToEntity@@YA_NPBUedict_s@@0M_N@Z
	?UTIL_PlayerHasLOSToLocation@@YA_NPBUedict_s@@VVector@@M@Z
	?UTIL_PointInsidePlane@@YA_NPBU_FRUSTUM_PLANE_T@@VVector@@@Z
	?UTIL_PointIsDirectlyReachable@@YA_NHVVector@@0@Z
	?UTIL_PointIsDirectlyReachable@@YA_NPBU_BOT_T@@VVector@@1@Z
	?UTIL_PointIsDirectlyReachable@@YA_NPBU_BOT_T@@VVector@@@Z
	?UTIL_PointIsDirectlyReachable@@YA_NVVector@@0@Z
	?UTIL_PointIsDirectlyReachable_DEBUG@@YAMVVector@@0@Z
	?UTIL_PointIsOnNavmesh@@YA_NHVVector@@0@Z
	?UTIL_PointIsOnNavmesh@@YA_NVVector@@H@Z
	?UTIL_PointIsReachable@@YA_NHVVector@@0M@Z
	?UTIL_PopulateDoors@@YAXXZ
	?UTIL_PopulateResourceNodeLocations@@YAXXZ
	?UTIL_PopulateWeldableObstacles@@YAXXZ
	?UTIL_ProjectPointToNavmesh@@YA?AVVector@@V1@0@Z
	?UTIL_ProjectPointToNavmesh@@YA?AVVector@@V1@0H@Z
	?UTIL_ProjectPointToNavmesh@@YA?AVVector@@V1@@Z
	?UTIL_ProjectPointToNavmesh@@YA?AVVector@@V1@H@Z
	?UTIL_PrototypeLabResearchIsAvailable@@YA_NW4NSResearch@@@Z
	?UTIL_QuickHullTrace@@YA_NPBUedict_s@@ABVVector@@1@Z
	?UTIL_QuickHullTrace@@YA_NPBUedict_s@@ABVVector@@1H@Z
	?UTIL_QuickTrace@@YA_NPBUedict_s@@ABVVector@@1@Z
	?UTIL_RandomPointOnCircle@@YA?AVVector@@V1@M@Z
	?UTIL_RefreshBuildableStructures@@YAXXZ
	?UTIL_RefreshMarineItems@@YAXXZ
	?UTIL_RemoveTemporaryObstacle@@YAXI@Z
	?UTIL_RemoveTemporaryObstacles@@YAXPAI@Z
	?UTIL_ResearchActionAlreadyExists@@YA_NPBU_BOT_T@@W4NSResearch@@@Z
	?UTIL_ResearchInProgress@@YA_NW4NSResearch@@@Z
	?UTIL_ResearchIsAlreadyQueued@@YA_NPAU_BOT_T@@W4NSResearch@@@Z
	?UTIL_ResearchIsComplete@@YA_NW4NSResearch@@@Z
	?UTIL_ResearchTypeToChar@@YAPBDW4NSResearch@@@Z
	?UTIL_SayText@@YAXPBDPAUedict_s@@@Z
	?UTIL_SetFrustumPlane@@YAXPAU_FRUSTUM_PLANE_T@@VVector@@11@Z
	?UTIL_ShouldBotBeCautious@@YA_NPAU_BOT_T@@@Z
	?UTIL_ShouldStructureCollide@@YA_NW4NSStructureType@@@Z
	?UTIL_StructTypeToChar@@YAPBDW4NSStructureType@@@Z
	?UTIL_StructureCanBeUpgraded@@YA_NPBUedict_s@@@Z
	?UTIL_StructureExistsOfType@@YA_NW4NSStructureType@@@Z
	?UTIL_StructureIsFullyBuilt@@YA_NPBUedict_s@@@Z
	?UTIL_StructureIsRecycling@@YA_NPBUedict_s@@@Z
	?UTIL_StructureIsResearching@@YA_NPBUedict_s@@@Z
	?UTIL_StructureIsResearching@@YA_NPBUedict_s@@W4NSResearch@@@Z
	?UTIL_StructureIsScheduledForRecycle@@YA_NPAU_BOT_T@@PAUedict_s@@@Z
	?UTIL_StructureIsUpgrading@@YA_NPBUedict_s@@@Z
	?UTIL_StructureOfTypeExistsInLocation@@YA_NW4NSStructureType@@ABVVector@@M@Z
	?UTIL_StructureTypeToImpulseCommand@@YAHW4NSStructureType@@@Z
	?UTIL_StructureTypesMatch@@YA_NW4NSStructureType@@0@Z
	?UTIL_TaskTypeToChar@@YAPADW4BotTaskType@@@Z
	?UTIL_TraceEntity@@YAPAUedict_s@@PBU1@ABVVector@@1@Z
	?UTIL_TraceHull@@YAXABVVector@@0W4IGNORE_MONSTERS@@HPAUedict_s@@PAUTraceResult@@@Z
	?UTIL_TraceLine@@YAXABVVector@@0W4IGNORE_MONSTERS@@PAUedict_s@@PAUTraceResult@@@Z
	?UTIL_TraceLine@@YAXABVVector@@0W4IGNORE_MONSTERS@@W4IGNORE_GLASS@@PAUedict_s@@PAUTraceResult@@@Z
	?UTIL_TraceNav@@YA_NHVVector@@0M@Z
	?UTIL_TraceNavLine@@YAXHVVector@@0PAU_NAV_HITRESULT@@@Z
	?UTIL_UpdateBotMovementStatus@@YAXPAU_BOT_T@@@Z
	?UTIL_UpdateBuildableStructure@@YAXPAUedict_s@@@Z
	?UTIL_UpdateMarineItem@@YAXPAUedict_s@@W4NSDeployableItem@@@Z
	?UTIL_UpdateTileCache@@YAXXZ
	?UTIL_UpdateWeldableDoors@@YAXXZ
	?UTIL_UpdateWeldableObstacles@@YAXXZ
	?UTIL_VecToAngles@@YA?AVVector@@ABV1@@Z
	?UTIL_WeaponTypeToClassname@@YAPADW4NSWeapon@@@Z
	?UTIL_WeaponTypeToDeployableItem@@YA?AW4NSDeployableItem@@W4NSWeapon@@@Z
	?UnloadNavMeshes@@YAXXZ
	?UnloadNavigationData@@YAXXZ
	?UpdateCommanderActions@@YAXPAU_BOT_T@@@Z
	?UpdateCommanderOrders@@YAXPAU_BOT_T@@@Z
	?VARS@@YAPAUentvars_s@@PAUedict_s@@@Z
	?ViewInterpTo@@YA?AVVector@@V1@ABV1@MM@Z
	?WaitGameStartThink@@YAXPAU_BOT_T@@@Z
	?WallClimbMove@@YAXPAU_BOT_T@@VVector@@1M@Z
	?WeaponCanBeReloaded@@YA_NW4NSWeapon@@@Z
	?_Adjust_manually_vector_aligned@std@@YAXAAPAXAAI@Z
	?_Adopt@_Iterator_base0@std@@QAEXPBX@Z
	?_Adopt@_Iterator_base12@std@@QAEXPBU_Container_base12@2@@Z
	?_Alloc_proxy@?$_List_alloc@U?$_List_base_types@U?$pair@$$CBHU_BUILDABLE_STRUCTURE@@@std@@V?$allocator@U?$pair@$$CBHU_BUILDABLE_STRUCTURE@@@std@@@2@@std@@@std@@QAEXXZ
	?_Alloc_proxy@?$_List_alloc@U?$_List_base_types@U?$pair@$$CBHU_DROPPED_MARINE_ITEM@@@std@@V?$allocator@U?$pair@$$CBHU_DROPPED_MARINE_ITEM@@@std@@@2@@std@@@std@@QAEXXZ
	?_Alloc_proxy@?$_List_alloc@U?$_List_base_types@U?$pair@$$CBV?$basic_string@DU?$char_traits@D@std@@V?$allocator@D@2@@std@@U_BOT_SKILL@@@std@@V?$allocator@U?$pair@$$CBV?$basic_string@DU?$char_traits@D@std@@V?$allocator@D@2@@std@@U_BOT_SKILL@@@std@@@2@@std@@@std@@QAEXXZ
	?_Alloc_proxy@?$_List_alloc@U?$_List_base_types@U?$pair@$$CBV?$basic_string@DU?$char_traits@D@std@@V?$allocator@D@2@@std@@U_TEAMSIZEDEFINITIONS@@@std@@V?$allocator@U?$pair@$$CBV?$basic_string@DU?$char_traits@D@std@@V?$allocator@D@2@@std@@U_TEAMSIZEDEFINITIONS@@@std@@@2@@std@@@std@@QAEXXZ
	?_Alloc_proxy@?$_String_alloc@U?$_String_base_types@DV?$allocator@D@std@@@std@@@std@@QAEXXZ
	?_Alloc_proxy@?$_Vector_alloc@U?$_Vec_base_types@V?$_List_unchecked_iterator@V?$_List_val@U?$_List_simple_types@U?$pair@$$CBHU_BUILDABLE_STRUCTURE@@@std@@@std@@@std@@@std@@V?$allocator@V?$_List_unchecked_iterator@V?$_List_val@U?$_List_simple_types@U?$pair@$$CBHU_BUILDABLE_STRUCTURE@@@std@@@std@@@std@@@std@@@2@@std@@@std@@QAEXXZ
	?_Alloc_proxy@?$_Vector_alloc@U?$_Vec_base_types@V?$_List_unchecked_iterator@V?$_List_val@U?$_List_simple_types@U?$pair@$$CBHU_DROPPED_MARINE_ITEM@@@std@@@std@@@std@@@std@@V?$allocator@V?$_List_unchecked_iterator@V?$_List_val@U?$_List_simple_types@U?$pair@$$CBHU_DROPPED_MARINE_ITEM@@@std@@@std@@@std@@@std@@@2@@std@@@std@@QAEXXZ
	?_Alloc_proxy@?$_Vector_alloc@U?$_Vec_base_types@V?$_List_unchecked_iterator@V?$_List_val@U?$_List_simple_types@U?$pair@$$CBV?$basic_string@DU?$char_traits@D@std@@V?$allocator@D@2@@std@@U_BOT_SKILL@@@std@@@std@@@std@@@std@@V?$allocator@V?$_List_unchecked_iterator@V?$_List_val@U?$_List_simple_types@U?$pair@$$CBV?$basic_string@DU?$char_traits@D@std@@V?$allocator@D@2@@std@@U_BOT_SKILL@@@std@@@std@@@std@@@std@@@2@@std@@@std@@QAEXXZ
	?_Alloc_proxy@?$_Vector_alloc@U?$_Vec_base_types@V?$_List_unchecked_iterator@V?$_List_val@U?$_List_simple_types@U?$pair@$$CBV?$basic_string@DU?$char_traits@D@std@@V?$allocator@D@2@@std@@U_TEAMSIZEDEFINITIONS@@@std@@@std@@@std@@@std@@V?$allocator@V?$_List_unchecked_iterator@V?$_List_val@U?$_List_simple_types@U?$pair@$$CBV?$basic_string@DU?$char_traits@D@std@@V?$allocator@D@2@@std@@U_TEAMSIZEDEFINITIONS@@@std@@@std@@@std@@@std@@@2@@std@@@std@@QAEXXZ
	?_Alloc_proxy@?$_Vector_alloc@U?$_Vec_base_types@W4HiveTechStatus@@V?$allocator@W4HiveTechStatus@@@std@@@std@@@std@@QAEXXZ
	?_Allocate@_Default_allocate_traits@std@@SAPAXI@Z
	?_Assign_rv_contents_with_alloc_always_equal@?$basic_string@DU?$char_traits@D@std@@V?$allocator@D@2@@std@@QAEX$$QAV12@U?$integral_constant@_N$00@2@@Z
	?_Begin@?$_Hash@V?$_Umap_traits@HU_BUILDABLE_STRUCTURE@@V?$_Uhash_compare@HU?$hash@H@std@@U?$equal_to@H@2@@std@@V?$allocator@U?$pair@$$CBHU_BUILDABLE_STRUCTURE@@@std@@@3@$0A@@std@@@std@@IAE?AV?$_List_unchecked_iterator@V?$_List_val@U?$_List_simple_types@U?$pair@$$CBHU_BUILDABLE_STRUCTURE@@@std@@@std@@@std@@@2@I@Z
	?_Begin@?$_Hash@V?$_Umap_traits@HU_DROPPED_MARINE_ITEM@@V?$_Uhash_compare@HU?$hash@H@std@@U?$equal_to@H@2@@std@@V?$allocator@U?$pair@$$CBHU_DROPPED_MARINE_ITEM@@@std@@@3@$0A@@std@@@std@@IAE?AV?$_List_unchecked_iterator@V?$_List_val@U?$_List_simple_types@U?$pair@$$CBHU_DROPPED_MARINE_ITEM@@@std@@@std@@@std@@@2@I@Z
	?_Begin@?$_Hash@V?$_Umap_traits@V?$basic_string@DU?$char_traits@D@std@@V?$allocator@D@2@@std@@U_BOT_SKILL@@V?$_Uhash_compare@V?$basic_string@DU?$char_traits@D@std@@V?$allocator@D@2@@std@@U?$hash@V?$basic_string@DU?$char_traits@D@std@@V?$allocator@D@2@@std@@@2@U?$equal_to@V?$basic_string@DU?$char_traits@D@std@@V?$allocator@D@2@@std@@@2@@2@V?$allocator@U?$pair@$$CBV?$basic_string@DU?$char_traits@D@std@@V?$allocator@D@2@@std@@U_BOT_SKILL@@@std@@@2@$0A@@std@@@std@@IAE?AV?$_List_unchecked_iterator@V?$_List_val@U?$_List_simple_types@U?$pair@$$CBV?$basic_string@DU?$char_traits@D@std@@V?$allocator@D@2@@std@@U_BOT_SKILL@@@std@@@std@@@std@@@2@I@Z
	?_Begin@?$_Hash@V?$_Umap_traits@V?$basic_string@DU?$char_traits@D@std@@V?$allocator@D@2@@std@@U_TEAMSIZEDEFINITIONS@@V?$_Uhash_compare@V?$basic_string@DU?$char_traits@D@std@@V?$allocator@D@2@@std@@U?$hash@V?$basic_string@DU?$char_traits@D@std@@V?$allocator@D@2@@std@@@2@U?$equal_to@V?$basic_string@DU?$char_traits@D@std@@V?$allocator@D@2@@std@@@2@@2@V?$allocator@U?$pair@$$CBV?$basic_string@DU?$char_traits@D@std@@V?$allocator@D@2@@std@@U_TEAMSIZEDEFINITIONS@@@std@@@2@$0A@@std@@@std@@IAE?AV?$_List_unchecked_iterator@V?$_List_val@U?$_List_simple_types@U?$pair@$$CBV?$basic_string@DU?$char_traits@D@std@@V?$allocator@D@2@@std@@U_TEAMSIZEDEFINITIONS@@@std@@@std@@@std@@@2@I@Z
	?_Buy@?$vector@V?$_List_unchecked_iterator@V?$_List_val@U?$_List_simple_types@U?$pair@$$CBHU_BUILDABLE_STRUCTURE@@@std@@@std@@@std@@@std@@V?$allocator@V?$_List_unchecked_iterator@V?$_List_val@U?$_List_simple_types@U?$pair@$$CBHU_BUILDABLE_STRUCTURE@@@std@@@std@@@std@@@std@@@2@@std@@AAE_NI@Z
	?_Buy@?$vector@V?$_List_unchecked_iterator@V?$_List_val@U?$_List_simple_types@U?$pair@$$CBHU_DROPPED_MARINE_ITEM@@@std@@@std@@@std@@@std@@V?$allocator@V?$_List_unchecked_iterator@V?$_List_val@U?$_List_simple_types@U?$pair@$$CBHU_DROPPED_MARINE_ITEM@@@std@@@std@@@std@@@std@@@2@@std@@AAE_NI@Z
	?_Buy@?$vector@V?$_List_unchecked_iterator@V?$_List_val@U?$_List_simple_types@U?$pair@$$CBV?$basic_string@DU?$char_traits@D@std@@V?$allocator@D@2@@std@@U_BOT_SKILL@@@std@@@std@@@std@@@std@@V?$allocator@V?$_List_unchecked_iterator@V?$_List_val@U?$_List_simple_types@U?$pair@$$CBV?$basic_string@DU?$char_traits@D@std@@V?$allocator@D@2@@std@@U_BOT_SKILL@@@std@@@std@@@std@@@std@@@2@@std@@AAE_NI@Z
	?_Buy@?$vector@V?$_List_unchecked_iterator@V?$_List_val@U?$_List_simple_types@U?$pair@$$CBV?$basic_string@DU?$char_traits@D@std@@V?$allocator@D@2@@std@@U_TEAMSIZEDEFINITIONS@@@std@@@std@@@std@@@std@@V?$allocator@V?$_List_unchecked_iterator@V?$_List_val@U?$_List_simple_types@U?$pair@$$CBV?$basic_string@DU?$char_traits@D@std@@V?$allocator@D@2@@std@@U_TEAMSIZEDEFINITIONS@@@std@@@std@@@std@@@std@@@2@@std@@AAE_NI@Z
	?_Buy@?$vector@W4HiveTechStatus@@V?$allocator@W4HiveTechStatus@@@std@@@std@@AAE_NI@Z
	?_Buyheadnode@?$_List_alloc@U?$_List_base_types@U?$pair@$$CBHU_BUILDABLE_STRUCTURE@@@std@@V?$allocator@U?$pair@$$CBHU_BUILDABLE_STRUCTURE@@@std@@@2@@std@@@std@@QAEPAU?$_List_node@U?$pair@$$CBHU_BUILDABLE_STRUCTURE@@@std@@PAX@2@XZ
	?_Buyheadnode@?$_List_alloc@U?$_List_base_types@U?$pair@$$CBHU_DROPPED_MARINE_ITEM@@@std@@V?$allocator@U?$pair@$$CBHU_DROPPED_MARINE_ITEM@@@std@@@2@@std@@@std@@QAEPAU?$_List_node@U?$pair@$$CBHU_DROPPED_MARINE_ITEM@@@std@@PAX@2@XZ
	?_Buyheadnode@?$_List_alloc@U?$_List_base_types@U?$pair@$$CBV?$basic_string@DU?$char_traits@D@std@@V?$allocator@D@2@@std@@U_BOT_SKILL@@@std@@V?$allocator@U?$pair@$$CBV?$basic_string@DU?$char_traits@D@std@@V?$allocator@D@2@@std@@U_BOT_SKILL@@@std@@@2@@std@@@std@@QAEPAU?$_List_node@U?$pair@$$CBV?$basic_string@DU?$char_traits@D@std@@V?$allocator@D@2@@std@@U_BOT_SKILL@@@std@@PAX@2@XZ
	?_Buyheadnode@?$_List_alloc@U?$_List_base_types@U?$pair@$$CBV?$basic_string@DU?$char_traits@D@std@@V?$allocator@D@2@@std@@U_TEAMSIZEDEFINITIONS@@@std@@V?$allocator@U?$pair@$$CBV?$basic_string@DU?$char_traits@D@std@@V?$allocator@D@2@@std@@U_TEAMSIZEDEFINITIONS@@@std@@@2@@std@@@std@@QAEPAU?$_List_node@U?$pair@$$CBV?$basic_string@DU?$char_traits@D@std@@V?$allocator@D@2@@std@@U_TEAMSIZEDEFINITIONS@@@std@@PAX@2@XZ
	?_Buynode0@?$_List_alloc@U?$_List_base_types@U?$pair@$$CBHU_BUILDABLE_STRUCTURE@@@std@@V?$allocator@U?$pair@$$CBHU_BUILDABLE_STRUCTURE@@@std@@@2@@std@@@std@@QAEPAU?$_List_node@U?$pair@$$CBHU_BUILDABLE_STRUCTURE@@@std@@PAX@2@PAU32@0@Z
	?_Buynode0@?$_List_alloc@U?$_List_base_types@U?$pair@$$CBHU_DROPPED_MARINE_ITEM@@@std@@V?$allocator@U?$pair@$$CBHU_DROPPED_MARINE_ITEM@@@std@@@2@@std@@@std@@QAEPAU?$_List_node@U?$pair@$$CBHU_DROPPED_MARINE_ITEM@@@std@@PAX@2@PAU32@0@Z
	?_Buynode0@?$_List_alloc@U?$_List_base_types@U?$pair@$$CBV?$basic_string@DU?$char_traits@D@std@@V?$allocator@D@2@@std@@U_BOT_SKILL@@@std@@V?$allocator@U?$pair@$$CBV?$basic_string@DU?$char_traits@D@std@@V?$allocator@D@2@@std@@U_BOT_SKILL@@@std@@@2@@std@@@std@@QAEPAU?$_List_node@U?$pair@$$CBV?$basic_string@DU?$char_traits@D@std@@V?$allocator@D@2@@std@@U_BOT_SKILL@@@std@@PAX@2@PAU32@0@Z
	?_Buynode0@?$_List_alloc@U?$_List_base_types@U?$pair@$$CBV?$basic_string@DU?$char_traits@D@std@@V?$allocator@D@2@@std@@U_TEAMSIZEDEFINITIONS@@@std@@V?$allocator@U?$pair@$$CBV?$basic_string@DU?$char_traits@D@std@@V?$allocator@D@2@@std@@U_TEAMSIZEDEFINITIONS@@@std@@@2@@std@@@std@@QAEPAU?$_List_node@U?$pair@$$CBV?$basic_string@DU?$char_traits@D@std@@V?$allocator@D@2@@std@@U_TEAMSIZEDEFINITIONS@@@std@@PAX@2@PAU32@0@Z
	?_Calculate_growth@?$basic_string@DU?$char_traits@D@std@@V?$allocator@D@2@@std@@QBEII@Z
	?_Calculate_growth@?$vector@V?$_List_unchecked_iterator@V?$_List_val@U?$_List_simple_types@U?$pair@$$CBHU_BUILDABLE_STRUCTURE@@@std@@@std@@@std@@@std@@V?$allocator@V?$_List_unchecked_iterator@V?$_List_val@U?$_List_simple_types@U?$pair@$$CBHU_BUILDABLE_STRUCTURE@@@std@@@std@@@std@@@std@@@2@@std@@ABEII@Z
	?_Calculate_growth@?$vector@V?$_List_unchecked_iterator@V?$_List_val@U?$_List_simple_types@U?$pair@$$CBHU_DROPPED_MARINE_ITEM@@@std@@@std@@@std@@@std@@V?$allocator@V?$_List_unchecked_iterator@V?$_List_val@U?$_List_simple_types@U?$pair@$$CBHU_DROPPED_MARINE_ITEM@@@std@@@std@@@std@@@std@@@2@@std@@ABEII@Z
	?_Calculate_growth@?$vector@V?$_List_unchecked_iterator@V?$_List_val@U?$_List_simple_types@U?$pair@$$CBV?$basic_string@DU?$char_traits@D@std@@V?$allocator@D@2@@std@@U_BOT_SKILL@@@std@@@std@@@std@@@std@@V?$allocator@V?$_List_unchecked_iterator@V?$_List_val@U?$_List_simple_types@U?$pair@$$CBV?$basic_string@DU?$char_traits@D@std@@V?$allocator@D@2@@std@@U_BOT_SKILL@@@std@@@std@@@std@@@std@@@2@@std@@ABEII@Z
	?_Calculate_growth@?$vector@V?$_List_unchecked_iterator@V?$_List_val@U?$_List_simple_types@U?$pair@$$CBV?$basic_string@DU?$char_traits@D@std@@V?$allocator@D@2@@std@@U_TEAMSIZEDEFINITIONS@@@std@@@std@@@std@@@std@@V?$allocator@V?$_List_unchecked_iterator@V?$_List_val@U?$_List_simple_types@U?$pair@$$CBV?$basic_string@DU?$char_traits@D@std@@V?$allocator@D@2@@std@@U_TEAMSIZEDEFINITIONS@@@std@@@std@@@std@@@std@@@2@@std@@ABEII@Z
	?_Change_array@?$vector@V?$_List_unchecked_iterator@V?$_List_val@U?$_List_simple_types@U?$pair@$$CBHU_BUILDABLE_STRUCTURE@@@std@@@std@@@std@@@std@@V?$allocator@V?$_List_unchecked_iterator@V?$_List_val@U?$_List_simple_types@U?$pair@$$CBHU_BUILDABLE_STRUCTURE@@@std@@@std@@@std@@@std@@@2@@std@@AAEXQAV?$_List_unchecked_iterator@V?$_List_val@U?$_List_simple_types@U?$pair@$$CBHU_BUILDABLE_STRUCTURE@@@std@@@std@@@std@@@2@II@Z
	?_Change_array@?$vector@V?$_List_unchecked_iterator@V?$_List_val@U?$_List_simple_types@U?$pair@$$CBHU_DROPPED_MARINE_ITEM@@@std@@@std@@@std@@@std@@V?$allocator@V?$_List_unchecked_iterator@V?$_List_val@U?$_List_simple_types@U?$pair@$$CBHU_DROPPED_MARINE_ITEM@@@std@@@std@@@std@@@std@@@2@@std@@AAEXQAV?$_List_unchecked_iterator@V?$_List_val@U?$_List_simple_types@U?$pair@$$CBHU_DROPPED_MARINE_ITEM@@@std@@@std@@@std@@@2@II@Z
	?_Change_array@?$vector@V?$_List_unchecked_iterator@V?$_List_val@U?$_List_simple_types@U?$pair@$$CBV?$basic_string@DU?$char_traits@D@std@@V?$allocator@D@2@@std@@U_BOT_SKILL@@@std@@@std@@@std@@@std@@V?$allocator@V?$_List_unchecked_iterator@V?$_List_val@U?$_List_simple_types@U?$pair@$$CBV?$basic_string@DU?$char_traits@D@std@@V?$allocator@D@2@@std@@U_BOT_SKILL@@@std@@@std@@@std@@@std@@@2@@std@@AAEXQAV?$_List_unchecked_iterator@V?$_List_val@U?$_List_simple_types@U?$pair@$$CBV?$basic_string@DU?$char_traits@D@std@@V?$allocator@D@2@@std@@U_BOT_SKILL@@@std@@@std@@@std@@@2@II@Z
	?_Change_array@?$vector@V?$_List_unchecked_iterator@V?$_List_val@U?$_List_simple_types@U?$pair@$$CBV?$basic_string@DU?$char_traits@D@std@@V?$allocator@D@2@@std@@U_TEAMSIZEDEFINITIONS@@@std@@@std@@@std@@@std@@V?$allocator@V?$_List_unchecked_iterator@V?$_List_val@U?$_List_simple_types@U?$pair@$$CBV?$basic_string@DU?$char_traits@D@std@@V?$allocator@D@2@@std@@U_TEAMSIZEDEFINITIONS@@@std@@@std@@@std@@@std@@@2@@std@@AAEXQAV?$_List_unchecked_iterator@V?$_List_val@U?$_List_simple_types@U?$pair@$$CBV?$basic_string@DU?$char_traits@D@std@@V?$allocator@D@2@@std@@U_TEAMSIZEDEFINITIONS@@@std@@@std@@@std@@@2@II@Z
	?_Check_offset@?$_String_val@U?$_Simple_types@D@std@@@std@@QBEXI@Z
	?_Check_size@?$_Hash@V?$_Umap_traits@HU_BUILDABLE_STRUCTURE@@V?$_Uhash_compare@HU?$hash@H@std@@U?$equal_to@H@2@@std@@V?$allocator@U?$pair@$$CBHU_BUILDABLE_STRUCTURE@@@std@@@3@$0A@@std@@@std@@IAEXXZ
	?_Check_size@?$_Hash@V?$_Umap_traits@HU_DROPPED_MARINE_ITEM@@V?$_Uhash_compare@HU?$hash@H@std@@U?$equal_to@H@2@@std@@V?$allocator@U?$pair@$$CBHU_DROPPED_MARINE_ITEM@@@std@@@3@$0A@@std@@@std@@IAEXXZ
	?_Check_size@?$_Hash@V?$_Umap_traits@V?$basic_string@DU?$char_traits@D@std@@V?$allocator@D@2@@std@@U_BOT_SKILL@@V?$_Uhash_compare@V?$basic_string@DU?$char_traits@D@std@@V?$allocator@D@2@@std@@U?$hash@V?$basic_string@DU?$char_traits@D@std@@V?$allocator@D@2@@std@@@2@U?$equal_to@V?$basic_string@DU?$char_traits@D@std@@V?$allocator@D@2@@std@@@2@@2@V?$allocator@U?$pair@$$CBV?$basic_string@DU?$char_traits@D@std@@V?$allocator@D@2@@std@@U_BOT_SKILL@@@std@@@2@$0A@@std@@@std@@IAEXXZ
	?_Check_size@?$_Hash@V?$_Umap_traits@V?$basic_string@DU?$char_traits@D@std@@V?$allocator@D@2@@std@@U_TEAMSIZEDEFINITIONS@@V?$_Uhash_compare@V?$basic_string@DU?$char_traits@D@std@@V?$allocator@D@2@@std@@U?$hash@V?$basic_string@DU?$char_traits@D@std@@V?$allocator@D@2@@std@@@2@U?$equal_to@V?$basic_string@DU?$char_traits@D@std@@V?$allocator@D@2@@std@@@2@@2@V?$allocator@U?$pair@$$CBV?$basic_string@DU?$char_traits@D@std@@V?$allocator@D@2@@std@@U_TEAMSIZEDEFINITIONS@@@std@@@2@$0A@@std@@@std@@IAEXXZ
	?_Clamp_suffix_size@?$_String_val@U?$_Simple_types@D@std@@@std@@QBEIII@Z
	?_Clrcont@_Iterator_base12@std@@QAEXXZ
	?_Compat@?$_String_const_iterator@V?$_String_val@U?$_Simple_types@D@std@@@std@@@std@@QBEXABV12@@Z
	?_Compat@?$_Vector_const_iterator@V?$_Vector_val@U?$_Simple_types@W4HiveTechStatus@@@std@@@std@@@std@@QBEXABV12@@Z
	?_Construct_lv_contents@?$basic_string@DU?$char_traits@D@std@@V?$allocator@D@2@@std@@QAEXABV12@@Z
	?_Copy_alloc@?$_String_alloc@U?$_String_base_types@DV?$allocator@D@std@@@std@@@std@@QAEXABV?$allocator@D@2@@Z
	?_Destroy@?$vector@V?$_List_unchecked_iterator@V?$_List_val@U?$_List_simple_types@U?$pair@$$CBHU_BUILDABLE_STRUCTURE@@@std@@@std@@@std@@@std@@V?$allocator@V?$_List_unchecked_iterator@V?$_List_val@U?$_List_simple_types@U?$pair@$$CBHU_BUILDABLE_STRUCTURE@@@std@@@std@@@std@@@std@@@2@@std@@AAEXPAV?$_List_unchecked_iterator@V?$_List_val@U?$_List_simple_types@U?$pair@$$CBHU_BUILDABLE_STRUCTURE@@@std@@@std@@@std@@@2@0@Z
	?_Destroy@?$vector@V?$_List_unchecked_iterator@V?$_List_val@U?$_List_simple_types@U?$pair@$$CBHU_DROPPED_MARINE_ITEM@@@std@@@std@@@std@@@std@@V?$allocator@V?$_List_unchecked_iterator@V?$_List_val@U?$_List_simple_types@U?$pair@$$CBHU_DROPPED_MARINE_ITEM@@@std@@@std@@@std@@@std@@@2@@std@@AAEXPAV?$_List_unchecked_iterator@V?$_List_val@U?$_List_simple_types@U?$pair@$$CBHU_DROPPED_MARINE_ITEM@@@std@@@std@@@std@@@2@0@Z
	?_Destroy@?$vector@V?$_List_unchecked_iterator@V?$_List_val@U?$_List_simple_types@U?$pair@$$CBV?$basic_string@DU?$char_traits@D@std@@V?$allocator@D@2@@std@@U_BOT_SKILL@@@std@@@std@@@std@@@std@@V?$allocator@V?$_List_unchecked_iterator@V?$_List_val@U?$_List_simple_types@U?$pair@$$CBV?$basic_string@DU?$char_traits@D@std@@V?$allocator@D@2@@std@@U_BOT_SKILL@@@std@@@std@@@std@@@std@@@2@@std@@AAEXPAV?$_List_unchecked_iterator@V?$_List_val@U?$_List_simple_types@U?$pair@$$CBV?$basic_string@DU?$char_traits@D@std@@V?$allocator@D@2@@std@@U_BOT_SKILL@@@std@@@std@@@std@@@2@0@Z
	?_Destroy@?$vector@V?$_List_unchecked_iterator@V?$_List_val@U?$_List_simple_types@U?$pair@$$CBV?$basic_string@DU?$char_traits@D@std@@V?$allocator@D@2@@std@@U_TEAMSIZEDEFINITIONS@@@std@@@std@@@std@@@std@@V?$allocator@V?$_List_unchecked_iterator@V?$_List_val@U?$_List_simple_types@U?$pair@$$CBV?$basic_string@DU?$char_traits@D@std@@V?$allocator@D@2@@std@@U_TEAMSIZEDEFINITIONS@@@std@@@std@@@std@@@std@@@2@@std@@AAEXPAV?$_List_unchecked_iterator@V?$_List_val@U?$_List_simple_types@U?$pair@$$CBV?$basic_string@DU?$char_traits@D@std@@V?$allocator@D@2@@std@@U_TEAMSIZEDEFINITIONS@@@std@@@std@@@std@@@2@0@Z
	?_Destroy@?$vector@W4HiveTechStatus@@V?$allocator@W4HiveTechStatus@@@std@@@std@@AAEXPAW4HiveTechStatus@@0@Z
	?_Destroy_if_node@?$_Hash@V?$_Umap_traits@HU_BUILDABLE_STRUCTURE@@V?$_Uhash_compare@HU?$hash@H@std@@U?$equal_to@H@2@@std@@V?$allocator@U?$pair@$$CBHU_BUILDABLE_STRUCTURE@@@std@@@3@$0A@@std@@@std@@IAEXV?$_List_unchecked_iterator@V?$_List_val@U?$_List_simple_types@U?$pair@$$CBHU_BUILDABLE_STRUCTURE@@@std@@@std@@@std@@@2@@Z
	?_Destroy_if_node@?$_Hash@V?$_Umap_traits@HU_DROPPED_MARINE_ITEM@@V?$_Uhash_compare@HU?$hash@H@std@@U?$equal_to@H@2@@std@@V?$allocator@U?$pair@$$CBHU_DROPPED_MARINE_ITEM@@@std@@@3@$0A@@std@@@std@@IAEXV?$_List_unchecked_iterator@V?$_List_val@U?$_List_simple_types@U?$pair@$$CBHU_DROPPED_MARINE_ITEM@@@std@@@std@@@std@@@2@@Z
	?_Destroy_if_node@?$_Hash@V?$_Umap_traits@V?$basic_string@DU?$char_traits@D@std@@V?$allocator@D@2@@std@@U_BOT_SKILL@@V?$_Uhash_compare@V?$basic_string@DU?$char_traits@D@std@@V?$allocator@D@2@@std@@U?$hash@V?$basic_string@DU?$char_traits@D@std@@V?$allocator@D@2@@std@@@2@U?$equal_to@V?$basic_string@DU?$char_traits@D@std@@V?$allocator@D@2@@std@@@2@@2@V?$allocator@U?$pair@$$CBV?$basic_string@DU?$char_traits@D@std@@V?$allocator@D@2@@std@@U_BOT_SKILL@@@std@@@2@$0A@@std@@@std@@IAEXV?$_List_unchecked_iterator@V?$_List_val@U?$_List_simple_types@U?$pair@$$CBV?$basic_string@DU?$char_traits@D@std@@V?$allocator@D@2@@std@@U_BOT_SKILL@@@std@@@std@@@std@@@2@@Z
	?_Destroy_if_node@?$_Hash@V?$_Umap_traits@V?$basic_string@DU?$char_traits@D@std@@V?$allocator@D@2@@std@@U_TEAMSIZEDEFINITIONS@@V?$_Uhash_compare@V?$basic_string@DU?$char_traits@D@std@@V?$allocator@D@2@@std@@U?$hash@V?$basic_string@DU?$char_traits@D@std@@V?$allocator@D@2@@std@@@2@U?$equal_to@V?$basic_string@DU?$char_traits@D@std@@V?$allocator@D@2@@std@@@2@@2@V?$allocator@U?$pair@$$CBV?$basic_string@DU?$char_traits@D@std@@V?$allocator@D@2@@std@@U_TEAMSIZEDEFINITIONS@@@std@@@2@$0A@@std@@@std@@IAEXV?$_List_unchecked_iterator@V?$_List_val@U?$_List_simple_types@U?$pair@$$CBV?$basic_string@DU?$char_traits@D@std@@V?$allocator@D@2@@std@@U_TEAMSIZEDEFINITIONS@@@std@@@std@@@std@@@2@@Z
	?_Do_hash@?$hash@H@std@@SAIABH@Z
	?_End@?$_Hash@V?$_Umap_traits@HU_BUILDABLE_STRUCTURE@@V?$_Uhash_compare@HU?$hash@H@std@@U?$equal_to@H@2@@std@@V?$allocator@U?$pair@$$CBHU_BUILDABLE_STRUCTURE@@@std@@@3@$0A@@std@@@std@@IAE?AV?$_List_unchecked_iterator@V?$_List_val@U?$_List_simple_types@U?$pair@$$CBHU_BUILDABLE_STRUCTURE@@@std@@@std@@@std@@@2@I@Z
	?_End@?$_Hash@V?$_Umap_traits@HU_DROPPED_MARINE_ITEM@@V?$_Uhash_compare@HU?$hash@H@std@@U?$equal_to@H@2@@std@@V?$allocator@U?$pair@$$CBHU_DROPPED_MARINE_ITEM@@@std@@@3@$0A@@std@@@std@@IAE?AV?$_List_unchecked_iterator@V?$_List_val@U?$_List_simple_types@U?$pair@$$CBHU_DROPPED_MARINE_ITEM@@@std@@@std@@@std@@@2@I@Z
	?_End@?$_Hash@V?$_Umap_traits@V?$basic_string@DU?$char_traits@D@std@@V?$allocator@D@2@@std@@U_BOT_SKILL@@V?$_Uhash_compare@V?$basic_string@DU?$char_traits@D@std@@V?$allocator@D@2@@std@@U?$hash@V?$basic_string@DU?$char_traits@D@std@@V?$allocator@D@2@@std@@@2@U?$equal_to@V?$basic_string@DU?$char_traits@D@std@@V?$allocator@D@2@@std@@@2@@2@V?$allocator@U?$pair@$$CBV?$basic_string@DU?$char_traits@D@std@@V?$allocator@D@2@@std@@U_BOT_SKILL@@@std@@@2@$0A@@std@@@std@@IAE?AV?$_List_unchecked_iterator@V?$_List_val@U?$_List_simple_types@U?$pair@$$CBV?$basic_string@DU?$char_traits@D@std@@V?$allocator@D@2@@std@@U_BOT_SKILL@@@std@@@std@@@std@@@2@I@Z
	?_End@?$_Hash@V?$_Umap_traits@V?$basic_string@DU?$char_traits@D@std@@V?$allocator@D@2@@std@@U_TEAMSIZEDEFINITIONS@@V?$_Uhash_compare@V?$basic_string@DU?$char_traits@D@std@@V?$allocator@D@2@@std@@U?$hash@V?$basic_string@DU?$char_traits@D@std@@V?$allocator@D@2@@std@@@2@U?$equal_to@V?$basic_string@DU?$char_traits@D@std@@V?$allocator@D@2@@std@@@2@@2@V?$allocator@U?$pair@$$CBV?$basic_string@DU?$char_traits@D@std@@V?$allocator@D@2@@std@@U_TEAMSIZEDEFINITIONS@@@std@@@2@$0A@@std@@@std@@IAE?AV?$_List_unchecked_iterator@V?$_List_val@U?$_List_simple_types@U?$pair@$$CBV?$basic_string@DU?$char_traits@D@std@@V?$allocator@D@2@@std@@U_TEAMSIZEDEFINITIONS@@@std@@@std@@@std@@@2@I@Z
	?_Endwrite@?$basic_filebuf@DU?$char_traits@D@std@@@std@@IAE_NXZ
	?_Eos@?$basic_string@DU?$char_traits@D@std@@V?$allocator@D@2@@std@@QAEXI@Z
	?_Equal@?$basic_string@DU?$char_traits@D@std@@V?$allocator@D@2@@std@@QBE_NABV12@@Z
	?_Erase_bucket@?$_Hash@V?$_Umap_traits@HU_BUILDABLE_STRUCTURE@@V?$_Uhash_compare@HU?$hash@H@std@@U?$equal_to@H@2@@std@@V?$allocator@U?$pair@$$CBHU_BUILDABLE_STRUCTURE@@@std@@@3@$0A@@std@@@std@@IAEXV?$_List_iterator@V?$_List_val@U?$_List_simple_types@U?$pair@$$CBHU_BUILDABLE_STRUCTURE@@@std@@@std@@@std@@@2@I@Z
	?_Erase_bucket@?$_Hash@V?$_Umap_traits@HU_DROPPED_MARINE_ITEM@@V?$_Uhash_compare@HU?$hash@H@std@@U?$equal_to@H@2@@std@@V?$allocator@U?$pair@$$CBHU_DROPPED_MARINE_ITEM@@@std@@@3@$0A@@std@@@std@@IAEXV?$_List_iterator@V?$_List_val@U?$_List_simple_types@U?$pair@$$CBHU_DROPPED_MARINE_ITEM@@@std@@@std@@@std@@@2@I@Z
	?_Erase_bucket@?$_Hash@V?$_Umap_traits@V?$basic_string@DU?$char_traits@D@std@@V?$allocator@D@2@@std@@U_BOT_SKILL@@V?$_Uhash_compare@V?$basic_string@DU?$char_traits@D@std@@V?$allocator@D@2@@std@@U?$hash@V?$basic_string@DU?$char_traits@D@std@@V?$allocator@D@2@@std@@@2@U?$equal_to@V?$basic_string@DU?$char_traits@D@std@@V?$allocator@D@2@@std@@@2@@2@V?$allocator@U?$pair@$$CBV?$basic_string@DU?$char_traits@D@std@@V?$allocator@D@2@@std@@U_BOT_SKILL@@@std@@@2@$0A@@std@@@std@@IAEXV?$_List_iterator@V?$_List_val@U?$_List_simple_types@U?$pair@$$CBV?$basic_string@DU?$char_traits@D@std@@V?$allocator@D@2@@std@@U_BOT_SKILL@@@std@@@std@@@std@@@2@I@Z
	?_Erase_bucket@?$_Hash@V?$_Umap_traits@V?$basic_string@DU?$char_traits@D@std@@V?$allocator@D@2@@std@@U_TEAMSIZEDEFINITIONS@@V?$_Uhash_compare@V?$basic_string@DU?$char_traits@D@std@@V?$allocator@D@2@@std@@U?$hash@V?$basic_string@DU?$char_traits@D@std@@V?$allocator@D@2@@std@@@2@U?$equal_to@V?$basic_string@DU?$char_traits@D@std@@V?$allocator@D@2@@std@@@2@@2@V?$allocator@U?$pair@$$CBV?$basic_string@DU?$char_traits@D@std@@V?$allocator@D@2@@std@@U_TEAMSIZEDEFINITIONS@@@std@@@2@$0A@@std@@@std@@IAEXV?$_List_iterator@V?$_List_val@U?$_List_simple_types@U?$pair@$$CBV?$basic_string@DU?$char_traits@D@std@@V?$allocator@D@2@@std@@U_TEAMSIZEDEFINITIONS@@@std@@@std@@@std@@@2@I@Z
	?_Fnv1a_append_bytes@std@@YAIIQBEI@Z
	?_Free_proxy@?$_List_alloc@U?$_List_base_types@U?$pair@$$CBHU_BUILDABLE_STRUCTURE@@@std@@V?$allocator@U?$pair@$$CBHU_BUILDABLE_STRUCTURE@@@std@@@2@@std@@@std@@QAEXXZ
	?_Free_proxy@?$_List_alloc@U?$_List_base_types@U?$pair@$$CBHU_DROPPED_MARINE_ITEM@@@std@@V?$allocator@U?$pair@$$CBHU_DROPPED_MARINE_ITEM@@@std@@@2@@std@@@std@@QAEXXZ
	?_Free_proxy@?$_List_alloc@U?$_List_base_types@U?$pair@$$CBV?$basic_string@DU?$char_traits@D@std@@V?$allocator@D@2@@std@@U_BOT_SKILL@@@std@@V?$allocator@U?$pair@$$CBV?$basic_string@DU?$char_traits@D@std@@V?$allocator@D@2@@std@@U_BOT_SKILL@@@std@@@2@@std@@@std@@QAEXXZ
	?_Free_proxy@?$_List_alloc@U?$_List_base_types@U?$pair@$$CBV?$basic_string@DU?$char_traits@D@std@@V?$allocator@D@2@@std@@U_TEAMSIZEDEFINITIONS@@@std@@V?$allocator@U?$pair@$$CBV?$basic_string@DU?$char_traits@D@std@@V?$allocator@D@2@@std@@U_TEAMSIZEDEFINITIONS@@@std@@@2@@std@@@std@@QAEXXZ
	?_Free_proxy@?$_String_alloc@U?$_String_base_types@DV?$allocator@D@std@@@std@@@std@@QAEXXZ
	?_Free_proxy@?$_Vector_alloc@U?$_Vec_base_types@V?$_List_unchecked_iterator@V?$_List_val@U?$_List_simple_types@U?$pair@$$CBHU_BUILDABLE_STRUCTURE@@@std@@@std@@@std@@@std@@V?$allocator@V?$_List_unchecked_iterator@V?$_List_val@U?$_List_simple_types@U?$pair@$$CBHU_BUILDABLE_STRUCTURE@@@std@@@std@@@std@@@std@@@2@@std@@@std@@QAEXXZ
	?_Free_proxy@?$_Vector_alloc@U?$_Vec_base_types@V?$_List_unchecked_iterator@V?$_List_val@U?$_List_simple_types@U?$pair@$$CBHU_DROPPED_MARINE_ITEM@@@std@@@std@@@std@@@std@@V?$allocator@V?$_List_unchecked_iterator@V?$_List_val@U?$_List_simple_types@U?$pair@$$CBHU_DROPPED_MARINE_ITEM@@@std@@@std@@@std@@@std@@@2@@std@@@std@@QAEXXZ
	?_Free_proxy@?$_Vector_alloc@U?$_Vec_base_types@V?$_List_unchecked_iterator@V?$_List_val@U?$_List_simple_types@U?$pair@$$CBV?$basic_string@DU?$char_traits@D@std@@V?$allocator@D@2@@std@@U_BOT_SKILL@@@std@@@std@@@std@@@std@@V?$allocator@V?$_List_unchecked_iterator@V?$_List_val@U?$_List_simple_types@U?$pair@$$CBV?$basic_string@DU?$char_traits@D@std@@V?$allocator@D@2@@std@@U_BOT_SKILL@@@std@@@std@@@std@@@std@@@2@@std@@@std@@QAEXXZ
	?_Free_proxy@?$_Vector_alloc@U?$_Vec_base_types@V?$_List_unchecked_iterator@V?$_List_val@U?$_List_simple_types@U?$pair@$$CBV?$basic_string@DU?$char_traits@D@std@@V?$allocator@D@2@@std@@U_TEAMSIZEDEFINITIONS@@@std@@@std@@@std@@@std@@V?$allocator@V?$_List_unchecked_iterator@V?$_List_val@U?$_List_simple_types@U?$pair@$$CBV?$basic_string@DU?$char_traits@D@std@@V?$allocator@D@2@@std@@U_TEAMSIZEDEFINITIONS@@@std@@@std@@@std@@@std@@@2@@std@@@std@@QAEXXZ
	?_Free_proxy@?$_Vector_alloc@U?$_Vec_base_types@W4HiveTechStatus@@V?$allocator@W4HiveTechStatus@@@std@@@std@@@std@@QAEXXZ
	?_Freeheadnode@?$_List_alloc@U?$_List_base_types@U?$pair@$$CBHU_BUILDABLE_STRUCTURE@@@std@@V?$allocator@U?$pair@$$CBHU_BUILDABLE_STRUCTURE@@@std@@@2@@std@@@std@@QAEXPAU?$_List_node@U?$pair@$$CBHU_BUILDABLE_STRUCTURE@@@std@@PAX@2@@Z
	?_Freeheadnode@?$_List_alloc@U?$_List_base_types@U?$pair@$$CBHU_DROPPED_MARINE_ITEM@@@std@@V?$allocator@U?$pair@$$CBHU_DROPPED_MARINE_ITEM@@@std@@@2@@std@@@std@@QAEXPAU?$_List_node@U?$pair@$$CBHU_DROPPED_MARINE_ITEM@@@std@@PAX@2@@Z
	?_Freeheadnode@?$_List_alloc@U?$_List_base_types@U?$pair@$$CBV?$basic_string@DU?$char_traits@D@std@@V?$allocator@D@2@@std@@U_BOT_SKILL@@@std@@V?$allocator@U?$pair@$$CBV?$basic_string@DU?$char_traits@D@std@@V?$allocator@D@2@@std@@U_BOT_SKILL@@@std@@@2@@std@@@std@@QAEXPAU?$_List_node@U?$pair@$$CBV?$basic_string@DU?$char_traits@D@std@@V?$allocator@D@2@@std@@U_BOT_SKILL@@@std@@PAX@2@@Z
	?_Freeheadnode@?$_List_alloc@U?$_List_base_types@U?$pair@$$CBV?$basic_string@DU?$char_traits@D@std@@V?$allocator@D@2@@std@@U_TEAMSIZEDEFINITIONS@@@std@@V?$allocator@U?$pair@$$CBV?$basic_string@DU?$char_traits@D@std@@V?$allocator@D@2@@std@@U_TEAMSIZEDEFINITIONS@@@std@@@2@@std@@@std@@QAEXPAU?$_List_node@U?$pair@$$CBV?$basic_string@DU?$char_traits@D@std@@V?$allocator@D@2@@std@@U_TEAMSIZEDEFINITIONS@@@std@@PAX@2@@Z
	?_Freenode@?$_List_buy@U?$pair@$$CBHU_BUILDABLE_STRUCTURE@@@std@@V?$allocator@U?$pair@$$CBHU_BUILDABLE_STRUCTURE@@@std@@@2@@std@@QAEXPAU?$_List_node@U?$pair@$$CBHU_BUILDABLE_STRUCTURE@@@std@@PAX@2@@Z
	?_Freenode@?$_List_buy@U?$pair@$$CBHU_DROPPED_MARINE_ITEM@@@std@@V?$allocator@U?$pair@$$CBHU_DROPPED_MARINE_ITEM@@@std@@@2@@std@@QAEXPAU?$_List_node@U?$pair@$$CBHU_DROPPED_MARINE_ITEM@@@std@@PAX@2@@Z
	?_Freenode@?$_List_buy@U?$pair@$$CBV?$basic_string@DU?$char_traits@D@std@@V?$allocator@D@2@@std@@U_BOT_SKILL@@@std@@V?$allocator@U?$pair@$$CBV?$basic_string@DU?$char_traits@D@std@@V?$allocator@D@2@@std@@U_BOT_SKILL@@@std@@@2@@std@@QAEXPAU?$_List_node@U?$pair@$$CBV?$basic_string@DU?$char_traits@D@std@@V?$allocator@D@2@@std@@U_BOT_SKILL@@@std@@PAX@2@@Z
	?_Freenode@?$_List_buy@U?$pair@$$CBV?$basic_string@DU?$char_traits@D@std@@V?$allocator@D@2@@std@@U_TEAMSIZEDEFINITIONS@@@std@@V?$allocator@U?$pair@$$CBV?$basic_string@DU?$char_traits@D@std@@V?$allocator@D@2@@std@@U_TEAMSIZEDEFINITIONS@@@std@@@2@@std@@QAEXPAU?$_List_node@U?$pair@$$CBV?$basic_string@DU?$char_traits@D@std@@V?$allocator@D@2@@std@@U_TEAMSIZEDEFINITIONS@@@std@@PAX@2@@Z
	?_Get_data@?$_List_alloc@U?$_List_base_types@U?$pair@$$CBHU_BUILDABLE_STRUCTURE@@@std@@V?$allocator@U?$pair@$$CBHU_BUILDABLE_STRUCTURE@@@std@@@2@@std@@@std@@QAEAAV?$_List_val@U?$_List_simple_types@U?$pair@$$CBHU_BUILDABLE_STRUCTURE@@@std@@@std@@@2@XZ
	?_Get_data@?$_List_alloc@U?$_List_base_types@U?$pair@$$CBHU_BUILDABLE_STRUCTURE@@@std@@V?$allocator@U?$pair@$$CBHU_BUILDABLE_STRUCTURE@@@std@@@2@@std@@@std@@QBEABV?$_List_val@U?$_List_simple_types@U?$pair@$$CBHU_BUILDABLE_STRUCTURE@@@std@@@std@@@2@XZ
	?_Get_data@?$_List_alloc@U?$_List_base_types@U?$pair@$$CBHU_DROPPED_MARINE_ITEM@@@std@@V?$allocator@U?$pair@$$CBHU_DROPPED_MARINE_ITEM@@@std@@@2@@std@@@std@@QAEAAV?$_List_val@U?$_List_simple_types@U?$pair@$$CBHU_DROPPED_MARINE_ITEM@@@std@@@std@@@2@XZ
	?_Get_data@?$_List_alloc@U?$_List_base_types@U?$pair@$$CBHU_DROPPED_MARINE_ITEM@@@std@@V?$allocator@U?$pair@$$CBHU_DROPPED_MARINE_ITEM@@@std@@@2@@std@@@std@@QBEABV?$_List_val@U?$_List_simple_types@U?$pair@$$CBHU_DROPPED_MARINE_ITEM@@@std@@@std@@@2@XZ
	?_Get_data@?$_List_alloc@U?$_List_base_types@U?$pair@$$CBV?$basic_string@DU?$char_traits@D@std@@V?$allocator@D@2@@std@@U_BOT_SKILL@@@std@@V?$allocator@U?$pair@$$CBV?$basic_string@DU?$char_traits@D@std@@V?$allocator@D@2@@std@@U_BOT_SKILL@@@std@@@2@@std@@@std@@QAEAAV?$_List_val@U?$_List_simple_types@U?$pair@$$CBV?$basic_string@DU?$char_traits@D@std@@V?$allocator@D@2@@std@@U_BOT_SKILL@@@std@@@std@@@2@XZ
	?_Get_data@?$_List_alloc@U?$_List_base_types@U?$pair@$$CBV?$basic_string@DU?$char_traits@D@std@@V?$allocator@D@2@@std@@U_BOT_SKILL@@@std@@V?$allocator@U?$pair@$$CBV?$basic_string@DU?$char_traits@D@std@@V?$allocator@D@2@@std@@U_BOT_SKILL@@@std@@@2@@std@@@std@@QBEABV?$_List_val@U?$_List_simple_types@U?$pair@$$CBV?$basic_string@DU?$char_traits@D@std@@V?$allocator@D@2@@std@@U_BOT_SKILL@@@std@@@std@@@2@XZ
	?_Get_data@?$_List_alloc@U?$_List_base_types@U?$pair@$$CBV?$basic_string@DU?$char_traits@D@std@@V?$allocator@D@2@@std@@U_TEAMSIZEDEFINITIONS@@@std@@V?$allocator@U?$pair@$$CBV?$basic_string@DU?$char_traits@D@std@@V?$allocator@D@2@@std@@U_TEAMSIZEDEFINITIONS@@@std@@@2@@std@@@std@@QAEAAV?$_List_val@U?$_List_simple_types@U?$pair@$$CBV?$basic_string@DU?$char_traits@D@std@@V?$allocator@D@2@@std@@U_TEAMSIZEDEFINITIONS@@@std@@@std@@@2@XZ
	?_Get_data@?$_List_alloc@U?$_List_base_types@U?$pair@$$CBV?$basic_string@DU?$char_traits@D@std@@V?$allocator@D@2@@std@@U_TEAMSIZEDEFINITIONS@@@std@@V?$allocator@U?$pair@$$CBV?$basic_string@DU?$char_traits@D@std@@V?$allocator@D@2@@std@@U_TEAMSIZEDEFINITIONS@@@std@@@2@@std@@@std@@QBEABV?$_List_val@U?$_List_simple_types@U?$pair@$$CBV?$basic_string@DU?$char_traits@D@std@@V?$allocator@D@2@@std@@U_TEAMSIZEDEFINITIONS@@@std@@@std@@@2@XZ
	?_Get_data@?$_String_alloc@U?$_String_base_types@DV?$allocator@D@std@@@std@@@std@@QAEAAV?$_String_val@U?$_Simple_types@D@std@@@2@XZ
	?_Get_data@?$_String_alloc@U?$_String_base_types@DV?$allocator@D@std@@@std@@@std@@QBEABV?$_String_val@U?$_Simple_types@D@std@@@2@XZ
	?_Get_data@?$_Vector_alloc@U?$_Vec_base_types@V?$_List_unchecked_iterator@V?$_List_val@U?$_List_simple_types@U?$pair@$$CBHU_BUILDABLE_STRUCTURE@@@std@@@std@@@std@@@std@@V?$allocator@V?$_List_unchecked_iterator@V?$_List_val@U?$_List_simple_types@U?$pair@$$CBHU_BUILDABLE_STRUCTURE@@@std@@@std@@@std@@@std@@@2@@std@@@std@@QAEAAV?$_Vector_val@U?$_Simple_types@V?$_List_unchecked_iterator@V?$_List_val@U?$_List_simple_types@U?$pair@$$CBHU_BUILDABLE_STRUCTURE@@@std@@@std@@@std@@@std@@@std@@@2@XZ
	?_Get_data@?$_Vector_alloc@U?$_Vec_base_types@V?$_List_unchecked_iterator@V?$_List_val@U?$_List_simple_types@U?$pair@$$CBHU_BUILDABLE_STRUCTURE@@@std@@@std@@@std@@@std@@V?$allocator@V?$_List_unchecked_iterator@V?$_List_val@U?$_List_simple_types@U?$pair@$$CBHU_BUILDABLE_STRUCTURE@@@std@@@std@@@std@@@std@@@2@@std@@@std@@QBEABV?$_Vector_val@U?$_Simple_types@V?$_List_unchecked_iterator@V?$_List_val@U?$_List_simple_types@U?$pair@$$CBHU_BUILDABLE_STRUCTURE@@@std@@@std@@@std@@@std@@@std@@@2@XZ
	?_Get_data@?$_Vector_alloc@U?$_Vec_base_types@V?$_List_unchecked_iterator@V?$_List_val@U?$_List_simple_types@U?$pair@$$CBHU_DROPPED_MARINE_ITEM@@@std@@@std@@@std@@@std@@V?$allocator@V?$_List_unchecked_iterator@V?$_List_val@U?$_List_simple_types@U?$pair@$$CBHU_DROPPED_MARINE_ITEM@@@std@@@std@@@std@@@std@@@2@@std@@@std@@QAEAAV?$_Vector_val@U?$_Simple_types@V?$_List_unchecked_iterator@V?$_List_val@U?$_List_simple_types@U?$pair@$$CBHU_DROPPED_MARINE_ITEM@@@std@@@std@@@std@@@std@@@std@@@2@XZ
	?_Get_data@?$_Vector_alloc@U?$_Vec_base_types@V?$_List_unchecked_iterator@V?$_List_val@U?$_List_simple_types@U?$pair@$$CBHU_DROPPED_MARINE_ITEM@@@std@@@std@@@std@@@std@@V?$allocator@V?$_List_unchecked_iterator@V?$_List_val@U?$_List_simple_types@U?$pair@$$CBHU_DROPPED_MARINE_ITEM@@@std@@@std@@@std@@@std@@@2@@std@@@std@@QBEABV?$_Vector_val@U?$_Simple_types@V?$_List_unchecked_iterator@V?$_List_val@U?$_List_simple_types@U?$pair@$$CBHU_DROPPED_MARINE_ITEM@@@std@@@std@@@std@@@std@@@std@@@2@XZ
	?_Get_data@?$_Vector_alloc@U?$_Vec_base_types@V?$_List_unchecked_iterator@V?$_List_val@U?$_List_simple_types@U?$pair@$$CBV?$basic_string@DU?$char_traits@D@std@@V?$allocator@D@2@@std@@U_BOT_SKILL@@@std@@@std@@@std@@@std@@V?$allocator@V?$_List_unchecked_iterator@V?$_List_val@U?$_List_simple_types@U?$pair@$$CBV?$basic_string@DU?$char_traits@D@std@@V?$allocator@D@2@@std@@U_BOT_SKILL@@@std@@@std@@@std@@@std@@@2@@std@@@std@@QAEAAV?$_Vector_val@U?$_Simple_types@V?$_List_unchecked_iterator@V?$_List_val@U?$_List_simple_types@U?$pair@$$CBV?$basic_string@DU?$char_traits@D@std@@V?$allocator@D@2@@std@@U_BOT_SKILL@@@std@@@std@@@std@@@std@@@std@@@2@XZ
	?_Get_data@?$_Vector_alloc@U?$_Vec_base_types@V?$_List_unchecked_iterator@V?$_List_val@U?$_List_simple_types@U?$pair@$$CBV?$basic_string@DU?$char_traits@D@std@@V?$allocator@D@2@@std@@U_BOT_SKILL@@@std@@@std@@@std@@@std@@V?$allocator@V?$_List_unchecked_iterator@V?$_List_val@U?$_List_simple_types@U?$pair@$$CBV?$basic_string@DU?$char_traits@D@std@@V?$allocator@D@2@@std@@U_BOT_SKILL@@@std@@@std@@@std@@@std@@@2@@std@@@std@@QBEABV?$_Vector_val@U?$_Simple_types@V?$_List_unchecked_iterator@V?$_List_val@U?$_List_simple_types@U?$pair@$$CBV?$basic_string@DU?$char_traits@D@std@@V?$allocator@D@2@@std@@U_BOT_SKILL@@@std@@@std@@@std@@@std@@@std@@@2@XZ
	?_Get_data@?$_Vector_alloc@U?$_Vec_base_types@V?$_List_unchecked_iterator@V?$_List_val@U?$_List_simple_types@U?$pair@$$CBV?$basic_string@DU?$char_traits@D@std@@V?$allocator@D@2@@std@@U_TEAMSIZEDEFINITIONS@@@std@@@std@@@std@@@std@@V?$allocator@V?$_List_unchecked_iterator@V?$_List_val@U?$_List_simple_types@U?$pair@$$CBV?$basic_string@DU?$char_traits@D@std@@V?$allocator@D@2@@std@@U_TEAMSIZEDEFINITIONS@@@std@@@std@@@std@@@std@@@2@@std@@@std@@QAEAAV?$_Vector_val@U?$_Simple_types@V?$_List_unchecked_iterator@V?$_List_val@U?$_List_simple_types@U?$pair@$$CBV?$basic_string@DU?$char_traits@D@std@@V?$allocator@D@2@@std@@U_TEAMSIZEDEFINITIONS@@@std@@@std@@@std@@@std@@@std@@@2@XZ
	?_Get_data@?$_Vector_alloc@U?$_Vec_base_types@V?$_List_unchecked_iterator@V?$_List_val@U?$_List_simple_types@U?$pair@$$CBV?$basic_string@DU?$char_traits@D@std@@V?$allocator@D@2@@std@@U_TEAMSIZEDEFINITIONS@@@std@@@std@@@std@@@std@@V?$allocator@V?$_List_unchecked_iterator@V?$_List_val@U?$_List_simple_types@U?$pair@$$CBV?$basic_string@DU?$char_traits@D@std@@V?$allocator@D@2@@std@@U_TEAMSIZEDEFINITIONS@@@std@@@std@@@std@@@std@@@2@@std@@@std@@QBEABV?$_Vector_val@U?$_Simple_types@V?$_List_unchecked_iterator@V?$_List_val@U?$_List_simple_types@U?$pair@$$CBV?$basic_string@DU?$char_traits@D@std@@V?$allocator@D@2@@std@@U_TEAMSIZEDEFINITIONS@@@std@@@std@@@std@@@std@@@std@@@2@XZ
	?_Get_data@?$_Vector_alloc@U?$_Vec_base_types@W4HiveTechStatus@@V?$allocator@W4HiveTechStatus@@@std@@@std@@@std@@QAEAAV?$_Vector_val@U?$_Simple_types@W4HiveTechStatus@@@std@@@2@XZ
	?_Get_data@?$_Vector_alloc@U?$_Vec_base_types@W4HiveTechStatus@@V?$allocator@W4HiveTechStatus@@@std@@@std@@@std@@QBEABV?$_Vector_val@U?$_Simple_types@W4HiveTechStatus@@@std@@@2@XZ
	?_Get_first@?$_Compressed_pair@U?$default_delete@V_Facet_base@std@@@std@@PAV_Facet_base@2@$00@std@@QAEAAU?$default_delete@V_Facet_base@std@@@2@XZ
	?_Get_first@?$_Compressed_pair@U?$equal_to@H@std@@M$00@std@@QBEABU?$equal_to@H@2@XZ
	?_Get_first@?$_Compressed_pair@U?$equal_to@V?$basic_string@DU?$char_traits@D@std@@V?$allocator@D@2@@std@@@std@@M$00@std@@QBEABU?$equal_to@V?$basic_string@DU?$char_traits@D@std@@V?$allocator@D@2@@std@@@2@XZ
	?_Get_first@?$_Compressed_pair@U?$hash@H@std@@V?$_Compressed_pair@U?$equal_to@H@std@@M$00@2@$00@std@@QBEABU?$hash@H@2@XZ
	?_Get_first@?$_Compressed_pair@U?$hash@V?$basic_string@DU?$char_traits@D@std@@V?$allocator@D@2@@std@@@std@@V?$_Compressed_pair@U?$equal_to@V?$basic_string@DU?$char_traits@D@std@@V?$allocator@D@2@@std@@@std@@M$00@2@$00@std@@QBEABU?$hash@V?$basic_string@DU?$char_traits@D@std@@V?$allocator@D@2@@std@@@2@XZ
	?_Get_first@?$_Compressed_pair@V?$allocator@D@std@@V?$_String_val@U?$_Simple_types@D@std@@@2@$00@std@@QAEAAV?$allocator@D@2@XZ
	?_Get_first@?$_Compressed_pair@V?$allocator@D@std@@V?$_String_val@U?$_Simple_types@D@std@@@2@$00@std@@QBEABV?$allocator@D@2@XZ
	?_Get_first@?$_Compressed_pair@V?$allocator@U?$_List_node@U?$pair@$$CBHU_BUILDABLE_STRUCTURE@@@std@@PAX@std@@@std@@V?$_List_val@U?$_List_simple_types@U?$pair@$$CBHU_BUILDABLE_STRUCTURE@@@std@@@std@@@2@$00@std@@QAEAAV?$allocator@U?$_List_node@U?$pair@$$CBHU_BUILDABLE_STRUCTURE@@@std@@PAX@std@@@2@XZ
	?_Get_first@?$_Compressed_pair@V?$allocator@U?$_List_node@U?$pair@$$CBHU_BUILDABLE_STRUCTURE@@@std@@PAX@std@@@std@@V?$_List_val@U?$_List_simple_types@U?$pair@$$CBHU_BUILDABLE_STRUCTURE@@@std@@@std@@@2@$00@std@@QBEABV?$allocator@U?$_List_node@U?$pair@$$CBHU_BUILDABLE_STRUCTURE@@@std@@PAX@std@@@2@XZ
	?_Get_first@?$_Compressed_pair@V?$allocator@U?$_List_node@U?$pair@$$CBHU_DROPPED_MARINE_ITEM@@@std@@PAX@std@@@std@@V?$_List_val@U?$_List_simple_types@U?$pair@$$CBHU_DROPPED_MARINE_ITEM@@@std@@@std@@@2@$00@std@@QAEAAV?$allocator@U?$_List_node@U?$pair@$$CBHU_DROPPED_MARINE_ITEM@@@std@@PAX@std@@@2@XZ
	?_Get_first@?$_Compressed_pair@V?$allocator@U?$_List_node@U?$pair@$$CBHU_DROPPED_MARINE_ITEM@@@std@@PAX@std@@@std@@V?$_List_val@U?$_List_simple_types@U?$pair@$$CBHU_DROPPED_MARINE_ITEM@@@std@@@std@@@2@$00@std@@QBEABV?$allocator@U?$_List_node@U?$pair@$$CBHU_DROPPED_MARINE_ITEM@@@std@@PAX@std@@@2@XZ
	?_Get_first@?$_Compressed_pair@V?$allocator@U?$_List_node@U?$pair@$$CBV?$basic_string@DU?$char_traits@D@std@@V?$allocator@D@2@@std@@U_BOT_SKILL@@@std@@PAX@std@@@std@@V?$_List_val@U?$_List_simple_types@U?$pair@$$CBV?$basic_string@DU?$char_traits@D@std@@V?$allocator@D@2@@std@@U_BOT_SKILL@@@std@@@std@@@2@$00@std@@QAEAAV?$allocator@U?$_List_node@U?$pair@$$CBV?$basic_string@DU?$char_traits@D@std@@V?$allocator@D@2@@std@@U_BOT_SKILL@@@std@@PAX@std@@@2@XZ
	?_Get_first@?$_Compressed_pair@V?$allocator@U?$_List_node@U?$pair@$$CBV?$basic_string@DU?$char_traits@D@std@@V?$allocator@D@2@@std@@U_BOT_SKILL@@@std@@PAX@std@@@std@@V?$_List_val@U?$_List_simple_types@U?$pair@$$CBV?$basic_string@DU?$char_traits@D@std@@V?$allocator@D@2@@std@@U_BOT_SKILL@@@std@@@std@@@2@$00@std@@QBEABV?$allocator@U?$_List_node@U?$pair@$$CBV?$basic_string@DU?$char_traits@D@std@@V?$allocator@D@2@@std@@U_BOT_SKILL@@@std@@PAX@std@@@2@XZ
	?_Get_first@?$_Compressed_pair@V?$allocator@U?$_List_node@U?$pair@$$CBV?$basic_string@DU?$char_traits@D@std@@V?$allocator@D@2@@std@@U_TEAMSIZEDEFINITIONS@@@std@@PAX@std@@@std@@V?$_List_val@U?$_List_simple_types@U?$pair@$$CBV?$basic_string@DU?$char_traits@D@std@@V?$allocator@D@2@@std@@U_TEAMSIZEDEFINITIONS@@@std@@@std@@@2@$00@std@@QAEAAV?$allocator@U?$_List_node@U?$pair@$$CBV?$basic_string@DU?$char_traits@D@std@@V?$allocator@D@2@@std@@U_TEAMSIZEDEFINITIONS@@@std@@PAX@std@@@2@XZ
	?_Get_first@?$_Compressed_pair@V?$allocator@U?$_List_node@U?$pair@$$CBV?$basic_string@DU?$char_traits@D@std@@V?$allocator@D@2@@std@@U_TEAMSIZEDEFINITIONS@@@std@@PAX@std@@@std@@V?$_List_val@U?$_List_simple_types@U?$pair@$$CBV?$basic_string@DU?$char_traits@D@std@@V?$allocator@D@2@@std@@U_TEAMSIZEDEFINITIONS@@@std@@@std@@@2@$00@std@@QBEABV?$allocator@U?$_List_node@U?$pair@$$CBV?$basic_string@DU?$char_traits@D@std@@V?$allocator@D@2@@std@@U_TEAMSIZEDEFINITIONS@@@std@@PAX@std@@@2@XZ
	?_Get_first@?$_Compressed_pair@V?$allocator@V?$_List_unchecked_iterator@V?$_List_val@U?$_List_simple_types@U?$pair@$$CBHU_BUILDABLE_STRUCTURE@@@std@@@std@@@std@@@std@@@std@@V?$_Vector_val@U?$_Simple_types@V?$_List_unchecked_iterator@V?$_List_val@U?$_List_simple_types@U?$pair@$$CBHU_BUILDABLE_STRUCTURE@@@std@@@std@@@std@@@std@@@std@@@2@$00@std@@QAEAAV?$allocator@V?$_List_unchecked_iterator@V?$_List_val@U?$_List_simple_types@U?$pair@$$CBHU_BUILDABLE_STRUCTURE@@@std@@@std@@@std@@@std@@@2@XZ
	?_Get_first@?$_Compressed_pair@V?$allocator@V?$_List_unchecked_iterator@V?$_List_val@U?$_List_simple_types@U?$pair@$$CBHU_BUILDABLE_STRUCTURE@@@std@@@std@@@std@@@std@@@std@@V?$_Vector_val@U?$_Simple_types@V?$_List_unchecked_iterator@V?$_List_val@U?$_List_simple_types@U?$pair@$$CBHU_BUILDABLE_STRUCTURE@@@std@@@std@@@std@@@std@@@std@@@2@$00@std@@QBEABV?$allocator@V?$_List_unchecked_iterator@V?$_List_val@U?$_List_simple_types@U?$pair@$$CBHU_BUILDABLE_STRUCTURE@@@std@@@std@@@std@@@std@@@2@XZ
	?_Get_first@?$_Compressed_pair@V?$allocator@V?$_List_unchecked_iterator@V?$_List_val@U?$_List_simple_types@U?$pair@$$CBHU_DROPPED_MARINE_ITEM@@@std@@@std@@@std@@@std@@@std@@V?$_Vector_val@U?$_Simple_types@V?$_List_unchecked_iterator@V?$_List_val@U?$_List_simple_types@U?$pair@$$CBHU_DROPPED_MARINE_ITEM@@@std@@@std@@@std@@@std@@@std@@@2@$00@std@@QAEAAV?$allocator@V?$_List_unchecked_iterator@V?$_List_val@U?$_List_simple_types@U?$pair@$$CBHU_DROPPED_MARINE_ITEM@@@std@@@std@@@std@@@std@@@2@XZ
	?_Get_first@?$_Compressed_pair@V?$allocator@V?$_List_unchecked_iterator@V?$_List_val@U?$_List_simple_types@U?$pair@$$CBHU_DROPPED_MARINE_ITEM@@@std@@@std@@@std@@@std@@@std@@V?$_Vector_val@U?$_Simple_types@V?$_List_unchecked_iterator@V?$_List_val@U?$_List_simple_types@U?$pair@$$CBHU_DROPPED_MARINE_ITEM@@@std@@@std@@@std@@@std@@@std@@@2@$00@std@@QBEABV?$allocator@V?$_List_unchecked_iterator@V?$_List_val@U?$_List_simple_types@U?$pair@$$CBHU_DROPPED_MARINE_ITEM@@@std@@@std@@@std@@@std@@@2@XZ
	?_Get_first@?$_Compressed_pair@V?$allocator@V?$_List_unchecked_iterator@V?$_List_val@U?$_List_simple_types@U?$pair@$$CBV?$basic_string@DU?$char_traits@D@std@@V?$allocator@D@2@@std@@U_BOT_SKILL@@@std@@@std@@@std@@@std@@@std@@V?$_Vector_val@U?$_Simple_types@V?$_List_unchecked_iterator@V?$_List_val@U?$_List_simple_types@U?$pair@$$CBV?$basic_string@DU?$char_traits@D@std@@V?$allocator@D@2@@std@@U_BOT_SKILL@@@std@@@std@@@std@@@std@@@std@@@2@$00@std@@QAEAAV?$allocator@V?$_List_unchecked_iterator@V?$_List_val@U?$_List_simple_types@U?$pair@$$CBV?$basic_string@DU?$char_traits@D@std@@V?$allocator@D@2@@std@@U_BOT_SKILL@@@std@@@std@@@std@@@std@@@2@XZ
	?_Get_first@?$_Compressed_pair@V?$allocator@V?$_List_unchecked_iterator@V?$_List_val@U?$_List_simple_types@U?$pair@$$CBV?$basic_string@DU?$char_traits@D@std@@V?$allocator@D@2@@std@@U_BOT_SKILL@@@std@@@std@@@std@@@std@@@std@@V?$_Vector_val@U?$_Simple_types@V?$_List_unchecked_iterator@V?$_List_val@U?$_List_simple_types@U?$pair@$$CBV?$basic_string@DU?$char_traits@D@std@@V?$allocator@D@2@@std@@U_BOT_SKILL@@@std@@@std@@@std@@@std@@@std@@@2@$00@std@@QBEABV?$allocator@V?$_List_unchecked_iterator@V?$_List_val@U?$_List_simple_types@U?$pair@$$CBV?$basic_string@DU?$char_traits@D@std@@V?$allocator@D@2@@std@@U_BOT_SKILL@@@std@@@std@@@std@@@std@@@2@XZ
	?_Get_first@?$_Compressed_pair@V?$allocator@V?$_List_unchecked_iterator@V?$_List_val@U?$_List_simple_types@U?$pair@$$CBV?$basic_string@DU?$char_traits@D@std@@V?$allocator@D@2@@std@@U_TEAMSIZEDEFINITIONS@@@std@@@std@@@std@@@std@@@std@@V?$_Vector_val@U?$_Simple_types@V?$_List_unchecked_iterator@V?$_List_val@U?$_List_simple_types@U?$pair@$$CBV?$basic_string@DU?$char_traits@D@std@@V?$allocator@D@2@@std@@U_TEAMSIZEDEFINITIONS@@@std@@@std@@@std@@@std@@@std@@@2@$00@std@@QAEAAV?$allocator@V?$_List_unchecked_iterator@V?$_List_val@U?$_List_simple_types@U?$pair@$$CBV?$basic_string@DU?$char_traits@D@std@@V?$allocator@D@2@@std@@U_TEAMSIZEDEFINITIONS@@@std@@@std@@@std@@@std@@@2@XZ
	?_Get_first@?$_Compressed_pair@V?$allocator@V?$_List_unchecked_iterator@V?$_List_val@U?$_List_simple_types@U?$pair@$$CBV?$basic_string@DU?$char_traits@D@std@@V?$allocator@D@2@@std@@U_TEAMSIZEDEFINITIONS@@@std@@@std@@@std@@@std@@@std@@V?$_Vector_val@U?$_Simple_types@V?$_List_unchecked_iterator@V?$_List_val@U?$_List_simple_types@U?$pair@$$CBV?$basic_string@DU?$char_traits@D@std@@V?$allocator@D@2@@std@@U_TEAMSIZEDEFINITIONS@@@std@@@std@@@std@@@std@@@std@@@2@$00@std@@QBEABV?$allocator@V?$_List_unchecked_iterator@V?$_List_val@U?$_List_simple_types@U?$pair@$$CBV?$basic_string@DU?$char_traits@D@std@@V?$allocator@D@2@@std@@U_TEAMSIZEDEFINITIONS@@@std@@@std@@@std@@@std@@@2@XZ
	?_Get_first@?$_Compressed_pair@V?$allocator@W4HiveTechStatus@@@std@@V?$_Vector_val@U?$_Simple_types@W4HiveTechStatus@@@std@@@2@$00@std@@QAEAAV?$allocator@W4HiveTechStatus@@@2@XZ
	?_Get_first@?$_Compressed_pair@V?$allocator@W4HiveTechStatus@@@std@@V?$_Vector_val@U?$_Simple_types@W4HiveTechStatus@@@std@@@2@$00@std@@QBEABV?$allocator@W4HiveTechStatus@@@2@XZ
	?_Get_max_bucket_size@?$_Uhash_compare@HU?$hash@H@std@@U?$equal_to@H@2@@std@@QAEAAMXZ
	?_Get_max_bucket_size@?$_Uhash_compare@HU?$hash@H@std@@U?$equal_to@H@2@@std@@QBEABMXZ
	?_Get_max_bucket_size@?$_Uhash_compare@V?$basic_string@DU?$char_traits@D@std@@V?$allocator@D@2@@std@@U?$hash@V?$basic_string@DU?$char_traits@D@std@@V?$allocator@D@2@@std@@@2@U?$equal_to@V?$basic_string@DU?$char_traits@D@std@@V?$allocator@D@2@@std@@@2@@std@@QAEAAMXZ
	?_Get_max_bucket_size@?$_Uhash_compare@V?$basic_string@DU?$char_traits@D@std@@V?$allocator@D@2@@std@@U?$hash@V?$basic_string@DU?$char_traits@D@std@@V?$allocator@D@2@@std@@@2@U?$equal_to@V?$basic_string@DU?$char_traits@D@std@@V?$allocator@D@2@@std@@@2@@std@@QBEABMXZ
	?_Get_second@?$_Compressed_pair@U?$default_delete@V_Facet_base@std@@@std@@PAV_Facet_base@2@$00@std@@QAEAAPAV_Facet_base@2@XZ
	?_Get_second@?$_Compressed_pair@U?$default_delete@V_Facet_base@std@@@std@@PAV_Facet_base@2@$00@std@@QBEABQAV_Facet_base@2@XZ
	?_Get_second@?$_Compressed_pair@U?$equal_to@H@std@@M$00@std@@QAEAAMXZ
	?_Get_second@?$_Compressed_pair@U?$equal_to@H@std@@M$00@std@@QBEABMXZ
	?_Get_second@?$_Compressed_pair@U?$equal_to@V?$basic_string@DU?$char_traits@D@std@@V?$allocator@D@2@@std@@@std@@M$00@std@@QAEAAMXZ
	?_Get_second@?$_Compressed_pair@U?$equal_to@V?$basic_string@DU?$char_traits@D@std@@V?$allocator@D@2@@std@@@std@@M$00@std@@QBEABMXZ
	?_Get_second@?$_Compressed_pair@U?$hash@H@std@@V?$_Compressed_pair@U?$equal_to@H@std@@M$00@2@$00@std@@QAEAAV?$_Compressed_pair@U?$equal_to@H@std@@M$00@2@XZ
	?_Get_second@?$_Compressed_pair@U?$hash@H@std@@V?$_Compressed_pair@U?$equal_to@H@std@@M$00@2@$00@std@@QBEABV?$_Compressed_pair@U?$equal_to@H@std@@M$00@2@XZ
	?_Get_second@?$_Compressed_pair@U?$hash@V?$basic_string@DU?$char_traits@D@std@@V?$allocator@D@2@@std@@@std@@V?$_Compressed_pair@U?$equal_to@V?$basic_string@DU?$char_traits@D@std@@V?$allocator@D@2@@std@@@std@@M$00@2@$00@std@@QAEAAV?$_Compressed_pair@U?$equal_to@V?$basic_string@DU?$char_traits@D@std@@V?$allocator@D@2@@std@@@std@@M$00@2@XZ
	?_Get_second@?$_Compressed_pair@U?$hash@V?$basic_string@DU?$char_traits@D@std@@V?$allocator@D@2@@std@@@std@@V?$_Compressed_pair@U?$equal_to@V?$basic_string@DU?$char_traits@D@std@@V?$allocator@D@2@@std@@@std@@M$00@2@$00@std@@QBEABV?$_Compressed_pair@U?$equal_to@V?$basic_string@DU?$char_traits@D@std@@V?$allocator@D@2@@std@@@std@@M$00@2@XZ
	?_Get_second@?$_Compressed_pair@V?$allocator@D@std@@V?$_String_val@U?$_Simple_types@D@std@@@2@$00@std@@QAEAAV?$_String_val@U?$_Simple_types@D@std@@@2@XZ
	?_Get_second@?$_Compressed_pair@V?$allocator@D@std@@V?$_String_val@U?$_Simple_types@D@std@@@2@$00@std@@QBEABV?$_String_val@U?$_Simple_types@D@std@@@2@XZ
	?_Get_second@?$_Compressed_pair@V?$allocator@U?$_List_node@U?$pair@$$CBHU_BUILDABLE_STRUCTURE@@@std@@PAX@std@@@std@@V?$_List_val@U?$_List_simple_types@U?$pair@$$CBHU_BUILDABLE_STRUCTURE@@@std@@@std@@@2@$00@std@@QAEAAV?$_List_val@U?$_List_simple_types@U?$pair@$$CBHU_BUILDABLE_STRUCTURE@@@std@@@std@@@2@XZ
	?_Get_second@?$_Compressed_pair@V?$allocator@U?$_List_node@U?$pair@$$CBHU_BUILDABLE_STRUCTURE@@@std@@PAX@std@@@std@@V?$_List_val@U?$_List_simple_types@U?$pair@$$CBHU_BUILDABLE_STRUCTURE@@@std@@@std@@@2@$00@std@@QBEABV?$_List_val@U?$_List_simple_types@U?$pair@$$CBHU_BUILDABLE_STRUCTURE@@@std@@@std@@@2@XZ
	?_Get_second@?$_Compressed_pair@V?$allocator@U?$_List_node@U?$pair@$$CBHU_DROPPED_MARINE_ITEM@@@std@@PAX@std@@@std@@V?$_List_val@U?$_List_simple_types@U?$pair@$$CBHU_DROPPED_MARINE_ITEM@@@std@@@std@@@2@$00@std@@QAEAAV?$_List_val@U?$_List_simple_types@U?$pair@$$CBHU_DROPPED_MARINE_ITEM@@@std@@@std@@@2@XZ
	?_Get_second@?$_Compressed_pair@V?$allocator@U?$_List_node@U?$pair@$$CBHU_DROPPED_MARINE_ITEM@@@std@@PAX@std@@@std@@V?$_List_val@U?$_List_simple_types@U?$pair@$$CBHU_DROPPED_MARINE_ITEM@@@std@@@std@@@2@$00@std@@QBEABV?$_List_val@U?$_List_simple_types@U?$pair@$$CBHU_DROPPED_MARINE_ITEM@@@std@@@std@@@2@XZ
	?_Get_second@?$_Compressed_pair@V?$allocator@U?$_List_node@U?$pair@$$CBV?$basic_string@DU?$char_traits@D@std@@V?$allocator@D@2@@std@@U_BOT_SKILL@@@std@@PAX@std@@@std@@V?$_List_val@U?$_List_simple_types@U?$pair@$$CBV?$basic_string@DU?$char_traits@D@std@@V?$allocator@D@2@@std@@U_BOT_SKILL@@@std@@@std@@@2@$00@std@@QAEAAV?$_List_val@U?$_List_simple_types@U?$pair@$$CBV?$basic_string@DU?$char_traits@D@std@@V?$allocator@D@2@@std@@U_BOT_SKILL@@@std@@@std@@@2@XZ
	?_Get_second@?$_Compressed_pair@V?$allocator@U?$_List_node@U?$pair@$$CBV?$basic_string@DU?$char_traits@D@std@@V?$allocator@D@2@@std@@U_BOT_SKILL@@@std@@PAX@std@@@std@@V?$_List_val@U?$_List_simple_types@U?$pair@$$CBV?$basic_string@DU?$char_traits@D@std@@V?$allocator@D@2@@std@@U_BOT_SKILL@@@std@@@std@@@2@$00@std@@QBEABV?$_List_val@U?$_List_simple_types@U?$pair@$$CBV?$basic_string@DU?$char_traits@D@std@@V?$allocator@D@2@@std@@U_BOT_SKILL@@@std@@@std@@@2@XZ
	?_Get_second@?$_Compressed_pair@V?$allocator@U?$_List_node@U?$pair@$$CBV?$basic_string@DU?$char_traits@D@std@@V?$allocator@D@2@@std@@U_TEAMSIZEDEFINITIONS@@@std@@PAX@std@@@std@@V?$_List_val@U?$_List_simple_types@U?$pair@$$CBV?$basic_string@DU?$char_traits@D@std@@V?$allocator@D@2@@std@@U_TEAMSIZEDEFINITIONS@@@std@@@std@@@2@$00@std@@QAEAAV?$_List_val@U?$_List_simple_types@U?$pair@$$CBV?$basic_string@DU?$char_traits@D@std@@V?$allocator@D@2@@std@@U_TEAMSIZEDEFINITIONS@@@std@@@std@@@2@XZ
	?_Get_second@?$_Compressed_pair@V?$allocator@U?$_List_node@U?$pair@$$CBV?$basic_string@DU?$char_traits@D@std@@V?$allocator@D@2@@std@@U_TEAMSIZEDEFINITIONS@@@std@@PAX@std@@@std@@V?$_List_val@U?$_List_simple_types@U?$pair@$$CBV?$basic_string@DU?$char_traits@D@std@@V?$allocator@D@2@@std@@U_TEAMSIZEDEFINITIONS@@@std@@@std@@@2@$00@std@@QBEABV?$_List_val@U?$_List_simple_types@U?$pair@$$CBV?$basic_string@DU?$char_traits@D@std@@V?$allocator@D@2@@std@@U_TEAMSIZEDEFINITIONS@@@std@@@std@@@2@XZ
	?_Get_second@?$_Compressed_pair@V?$allocator@V?$_List_unchecked_iterator@V?$_List_val@U?$_List_simple_types@U?$pair@$$CBHU_BUILDABLE_STRUCTURE@@@std@@@std@@@std@@@std@@@std@@V?$_Vector_val@U?$_Simple_types@V?$_List_unchecked_iterator@V?$_List_val@U?$_List_simple_types@U?$pair@$$CBHU_BUILDABLE_STRUCTURE@@@std@@@std@@@std@@@std@@@std@@@2@$00@std@@QAEAAV?$_Vector_val@U?$_Simple_types@V?$_List_unchecked_iterator@V?$_List_val@U?$_List_simple_types@U?$pair@$$CBHU_BUILDABLE_STRUCTURE@@@std@@@std@@@std@@@std@@@std@@@2@XZ
	?_Get_second@?$_Compressed_pair@V?$allocator@V?$_List_unchecked_iterator@V?$_List_val@U?$_List_simple_types@U?$pair@$$CBHU_BUILDABLE_STRUCTURE@@@std@@@std@@@std@@@std@@@std@@V?$_Vector_val@U?$_Simple_types@V?$_List_unchecked_iterator@V?$_List_val@U?$_List_simple_types@U?$pair@$$CBHU_BUILDABLE_STRUCTURE@@@std@@@std@@@std@@@std@@@std@@@2@$00@std@@QBEABV?$_Vector_val@U?$_Simple_types@V?$_List_unchecked_iterator@V?$_List_val@U?$_List_simple_types@U?$pair@$$CBHU_BUILDABLE_STRUCTURE@@@std@@@std@@@std@@@std@@@std@@@2@XZ
	?_Get_second@?$_Compressed_pair@V?$allocator@V?$_List_unchecked_iterator@V?$_List_val@U?$_List_simple_types@U?$pair@$$CBHU_DROPPED_MARINE_ITEM@@@std@@@std@@@std@@@std@@@std@@V?$_Vector_val@U?$_Simple_types@V?$_List_unchecked_iterator@V?$_List_val@U?$_List_simple_types@U?$pair@$$CBHU_DROPPED_MARINE_ITEM@@@std@@@std@@@std@@@std@@@std@@@2@$00@std@@QAEAAV?$_Vector_val@U?$_Simple_types@V?$_List_unchecked_iterator@V?$_List_val@U?$_List_simple_types@U?$pair@$$CBHU_DROPPED_MARINE_ITEM@@@std@@@std@@@std@@@std@@@std@@@2@XZ
	?_Get_second@?$_Compressed_pair@V?$allocator@V?$_List_unchecked_iterator@V?$_List_val@U?$_List_simple_types@U?$pair@$$CBHU_DROPPED_MARINE_ITEM@@@std@@@std@@@std@@@std@@@std@@V?$_Vector_val@U?$_Simple_types@V?$_List_unchecked_iterator@V?$_List_val@U?$_List_simple_types@U?$pair@$$CBHU_DROPPED_MARINE_ITEM@@@std@@@std@@@std@@@std@@@std@@@2@$00@std@@QBEABV?$_Vector_val@U?$_Simple_types@V?$_List_unchecked_iterator@V?$_List_val@U?$_List_simple_types@U?$pair@$$CBHU_DROPPED_MARINE_ITEM@@@std@@@std@@@std@@@std@@@std@@@2@XZ
	?_Get_second@?$_Compressed_pair@V?$allocator@V?$_List_unchecked_iterator@V?$_List_val@U?$_List_simple_types@U?$pair@$$CBV?$basic_string@DU?$char_traits@D@std@@V?$allocator@D@2@@std@@U_BOT_SKILL@@@std@@@std@@@std@@@std@@@std@@V?$_Vector_val@U?$_Simple_types@V?$_List_unchecked_iterator@V?$_List_val@U?$_List_simple_types@U?$pair@$$CBV?$basic_string@DU?$char_traits@D@std@@V?$allocator@D@2@@std@@U_BOT_SKILL@@@std@@@std@@@std@@@std@@@std@@@2@$00@std@@QAEAAV?$_Vector_val@U?$_Simple_types@V?$_List_unchecked_iterator@V?$_List_val@U?$_List_simple_types@U?$pair@$$CBV?$basic_string@DU?$char_traits@D@std@@V?$allocator@D@2@@std@@U_BOT_SKILL@@@std@@@std@@@std@@@std@@@std@@@2@XZ
	?_Get_second@?$_Compressed_pair@V?$allocator@V?$_List_unchecked_iterator@V?$_List_val@U?$_List_simple_types@U?$pair@$$CBV?$basic_string@DU?$char_traits@D@std@@V?$allocator@D@2@@std@@U_BOT_SKILL@@@std@@@std@@@std@@@std@@@std@@V?$_Vector_val@U?$_Simple_types@V?$_List_unchecked_iterator@V?$_List_val@U?$_List_simple_types@U?$pair@$$CBV?$basic_string@DU?$char_traits@D@std@@V?$allocator@D@2@@std@@U_BOT_SKILL@@@std@@@std@@@std@@@std@@@std@@@2@$00@std@@QBEABV?$_Vector_val@U?$_Simple_types@V?$_List_unchecked_iterator@V?$_List_val@U?$_List_simple_types@U?$pair@$$CBV?$basic_string@DU?$char_traits@D@std@@V?$allocator@D@2@@std@@U_BOT_SKILL@@@std@@@std@@@std@@@std@@@std@@@2@XZ
	?_Get_second@?$_Compressed_pair@V?$allocator@V?$_List_unchecked_iterator@V?$_List_val@U?$_List_simple_types@U?$pair@$$CBV?$basic_string@DU?$char_traits@D@std@@V?$allocator@D@2@@std@@U_TEAMSIZEDEFINITIONS@@@std@@@std@@@std@@@std@@@std@@V?$_Vector_val@U?$_Simple_types@V?$_List_unchecked_iterator@V?$_List_val@U?$_List_simple_types@U?$pair@$$CBV?$basic_string@DU?$char_traits@D@std@@V?$allocator@D@2@@std@@U_TEAMSIZEDEFINITIONS@@@std@@@std@@@std@@@std@@@std@@@2@$00@std@@QAEAAV?$_Vector_val@U?$_Simple_types@V?$_List_unchecked_iterator@V?$_List_val@U?$_List_simple_types@U?$pair@$$CBV?$basic_string@DU?$char_traits@D@std@@V?$allocator@D@2@@std@@U_TEAMSIZEDEFINITIONS@@@std@@@std@@@std@@@std@@@std@@@2@XZ
	?_Get_second@?$_Compressed_pair@V?$allocator@V?$_List_unchecked_iterator@V?$_List_val@U?$_List_simple_types@U?$pair@$$CBV?$basic_string@DU?$char_traits@D@std@@V?$allocator@D@2@@std@@U_TEAMSIZEDEFINITIONS@@@std@@@std@@@std@@@std@@@std@@V?$_Vector_val@U?$_Simple_types@V?$_List_unchecked_iterator@V?$_List_val@U?$_List_simple_types@U?$pair@$$CBV?$basic_string@DU?$char_traits@D@std@@V?$allocator@D@2@@std@@U_TEAMSIZEDEFINITIONS@@@std@@@std@@@std@@@std@@@std@@@2@$00@std@@QBEABV?$_Vector_val@U?$_Simple_types@V?$_List_unchecked_iterator@V?$_List_val@U?$_List_simple_types@U?$pair@$$CBV?$basic_string@DU?$char_traits@D@std@@V?$allocator@D@2@@std@@U_TEAMSIZEDEFINITIONS@@@std@@@std@@@std@@@std@@@std@@@2@XZ
	?_Get_second@?$_Compressed_pair@V?$allocator@W4HiveTechStatus@@@std@@V?$_Vector_val@U?$_Simple_types@W4HiveTechStatus@@@std@@@2@$00@std@@QAEAAV?$_Vector_val@U?$_Simple_types@W4HiveTechStatus@@@std@@@2@XZ
	?_Get_second@?$_Compressed_pair@V?$allocator@W4HiveTechStatus@@@std@@V?$_Vector_val@U?$_Simple_types@W4HiveTechStatus@@@std@@@2@$00@std@@QBEABV?$_Vector_val@U?$_Simple_types@W4HiveTechStatus@@@std@@@2@XZ
	?_Getal@?$_List_alloc@U?$_List_base_types@U?$pair@$$CBHU_BUILDABLE_STRUCTURE@@@std@@V?$allocator@U?$pair@$$CBHU_BUILDABLE_STRUCTURE@@@std@@@2@@std@@@std@@QAEAAV?$allocator@U?$_List_node@U?$pair@$$CBHU_BUILDABLE_STRUCTURE@@@std@@PAX@std@@@2@XZ
	?_Getal@?$_List_alloc@U?$_List_base_types@U?$pair@$$CBHU_BUILDABLE_STRUCTURE@@@std@@V?$allocator@U?$pair@$$CBHU_BUILDABLE_STRUCTURE@@@std@@@2@@std@@@std@@QBEABV?$allocator@U?$_List_node@U?$pair@$$CBHU_BUILDABLE_STRUCTURE@@@std@@PAX@std@@@2@XZ
	?_Getal@?$_List_alloc@U?$_List_base_types@U?$pair@$$CBHU_DROPPED_MARINE_ITEM@@@std@@V?$allocator@U?$pair@$$CBHU_DROPPED_MARINE_ITEM@@@std@@@2@@std@@@std@@QAEAAV?$allocator@U?$_List_node@U?$pair@$$CBHU_DROPPED_MARINE_ITEM@@@std@@PAX@std@@@2@XZ
	?_Getal@?$_List_alloc@U?$_List_base_types@U?$pair@$$CBHU_DROPPED_MARINE_ITEM@@@std@@V?$allocator@U?$pair@$$CBHU_DROPPED_MARINE_ITEM@@@std@@@2@@std@@@std@@QBEABV?$allocator@U?$_List_node@U?$pair@$$CBHU_DROPPED_MARINE_ITEM@@@std@@PAX@std@@@2@XZ
	?_Getal@?$_List_alloc@U?$_List_base_types@U?$pair@$$CBV?$basic_string@DU?$char_traits@D@std@@V?$allocator@D@2@@std@@U_BOT_SKILL@@@std@@V?$allocator@U?$pair@$$CBV?$basic_string@DU?$char_traits@D@std@@V?$allocator@D@2@@std@@U_BOT_SKILL@@@std@@@2@@std@@@std@@QAEAAV?$allocator@U?$_List_node@U?$pair@$$CBV?$basic_string@DU?$char_traits@D@std@@V?$allocator@D@2@@std@@U_BOT_SKILL@@@std@@PAX@std@@@2@XZ
	?_Getal@?$_List_alloc@U?$_List_base_types@U?$pair@$$CBV?$basic_string@DU?$char_traits@D@std@@V?$allocator@D@2@@std@@U_BOT_SKILL@@@std@@V?$allocator@U?$pair@$$CBV?$basic_string@DU?$char_traits@D@std@@V?$allocator@D@2@@std@@U_BOT_SKILL@@@std@@@2@@std@@@std@@QBEABV?$allocator@U?$_List_node@U?$pair@$$CBV?$basic_string@DU?$char_traits@D@std@@V?$allocator@D@2@@std@@U_BOT_SKILL@@@std@@PAX@std@@@2@XZ
	?_Getal@?$_List_alloc@U?$_List_base_types@U?$pair@$$CBV?$basic_string@DU?$char_traits@D@std@@V?$allocator@D@2@@std@@U_TEAMSIZEDEFINITIONS@@@std@@V?$allocator@U?$pair@$$CBV?$basic_string@DU?$char_traits@D@std@@V?$allocator@D@2@@std@@U_TEAMSIZEDEFINITIONS@@@std@@@2@@std@@@std@@QAEAAV?$allocator@U?$_List_node@U?$pair@$$CBV?$basic_string@DU?$char_traits@D@std@@V?$allocator@D@2@@std@@U_TEAMSIZEDEFINITIONS@@@std@@PAX@std@@@2@XZ
	?_Getal@?$_List_alloc@U?$_List_base_types@U?$pair@$$CBV?$basic_string@DU?$char_traits@D@std@@V?$allocator@D@2@@std@@U_TEAMSIZEDEFINITIONS@@@std@@V?$allocator@U?$pair@$$CBV?$basic_string@DU?$char_traits@D@std@@V?$allocator@D@2@@std@@U_TEAMSIZEDEFINITIONS@@@std@@@2@@std@@@std@@QBEABV?$allocator@U?$_List_node@U?$pair@$$CBV?$basic_string@DU?$char_traits@D@std@@V?$allocator@D@2@@std@@U_TEAMSIZEDEFINITIONS@@@std@@PAX@std@@@2@XZ
	?_Getal@?$_String_alloc@U?$_String_base_types@DV?$allocator@D@std@@@std@@@std@@QAEAAV?$allocator@D@2@XZ
	?_Getal@?$_String_alloc@U?$_String_base_types@DV?$allocator@D@std@@@std@@@std@@QBEABV?$allocator@D@2@XZ
	?_Getal@?$_Vector_alloc@U?$_Vec_base_types@V?$_List_unchecked_iterator@V?$_List_val@U?$_List_simple_types@U?$pair@$$CBHU_BUILDABLE_STRUCTURE@@@std@@@std@@@std@@@std@@V?$allocator@V?$_List_unchecked_iterator@V?$_List_val@U?$_List_simple_types@U?$pair@$$CBHU_BUILDABLE_STRUCTURE@@@std@@@std@@@std@@@std@@@2@@std@@@std@@QAEAAV?$allocator@V?$_List_unchecked_iterator@V?$_List_val@U?$_List_simple_types@U?$pair@$$CBHU_BUILDABLE_STRUCTURE@@@std@@@std@@@std@@@std@@@2@XZ
	?_Getal@?$_Vector_alloc@U?$_Vec_base_types@V?$_List_unchecked_iterator@V?$_List_val@U?$_List_simple_types@U?$pair@$$CBHU_BUILDABLE_STRUCTURE@@@std@@@std@@@std@@@std@@V?$allocator@V?$_List_unchecked_iterator@V?$_List_val@U?$_List_simple_types@U?$pair@$$CBHU_BUILDABLE_STRUCTURE@@@std@@@std@@@std@@@std@@@2@@std@@@std@@QBEABV?$allocator@V?$_List_unchecked_iterator@V?$_List_val@U?$_List_simple_types@U?$pair@$$CBHU_BUILDABLE_STRUCTURE@@@std@@@std@@@std@@@std@@@2@XZ
	?_Getal@?$_Vector_alloc@U?$_Vec_base_types@V?$_List_unchecked_iterator@V?$_List_val@U?$_List_simple_types@U?$pair@$$CBHU_DROPPED_MARINE_ITEM@@@std@@@std@@@std@@@std@@V?$allocator@V?$_List_unchecked_iterator@V?$_List_val@U?$_List_simple_types@U?$pair@$$CBHU_DROPPED_MARINE_ITEM@@@std@@@std@@@std@@@std@@@2@@std@@@std@@QAEAAV?$allocator@V?$_List_unchecked_iterator@V?$_List_val@U?$_List_simple_types@U?$pair@$$CBHU_DROPPED_MARINE_ITEM@@@std@@@std@@@std@@@std@@@2@XZ
	?_Getal@?$_Vector_alloc@U?$_Vec_base_types@V?$_List_unchecked_iterator@V?$_List_val@U?$_List_simple_types@U?$pair@$$CBHU_DROPPED_MARINE_ITEM@@@std@@@std@@@std@@@std@@V?$allocator@V?$_List_unchecked_iterator@V?$_List_val@U?$_List_simple_types@U?$pair@$$CBHU_DROPPED_MARINE_ITEM@@@std@@@std@@@std@@@std@@@2@@std@@@std@@QBEABV?$allocator@V?$_List_unchecked_iterator@V?$_List_val@U?$_List_simple_types@U?$pair@$$CBHU_DROPPED_MARINE_ITEM@@@std@@@std@@@std@@@std@@@2@XZ
	?_Getal@?$_Vector_alloc@U?$_Vec_base_types@V?$_List_unchecked_iterator@V?$_List_val@U?$_List_simple_types@U?$pair@$$CBV?$basic_string@DU?$char_traits@D@std@@V?$allocator@D@2@@std@@U_BOT_SKILL@@@std@@@std@@@std@@@std@@V?$allocator@V?$_List_unchecked_iterator@V?$_List_val@U?$_List_simple_types@U?$pair@$$CBV?$basic_string@DU?$char_traits@D@std@@V?$allocator@D@2@@std@@U_BOT_SKILL@@@std@@@std@@@std@@@std@@@2@@std@@@std@@QAEAAV?$allocator@V?$_List_unchecked_iterator@V?$_List_val@U?$_List_simple_types@U?$pair@$$CBV?$basic_string@DU?$char_traits@D@std@@V?$allocator@D@2@@std@@U_BOT_SKILL@@@std@@@std@@@std@@@std@@@2@XZ
	?_Getal@?$_Vector_alloc@U?$_Vec_base_types@V?$_List_unchecked_iterator@V?$_List_val@U?$_List_simple_types@U?$pair@$$CBV?$basic_string@DU?$char_traits@D@std@@V?$allocator@D@2@@std@@U_BOT_SKILL@@@std@@@std@@@std@@@std@@V?$allocator@V?$_List_unchecked_iterator@V?$_List_val@U?$_List_simple_types@U?$pair@$$CBV?$basic_string@DU?$char_traits@D@std@@V?$allocator@D@2@@std@@U_BOT_SKILL@@@std@@@std@@@std@@@std@@@2@@std@@@std@@QBEABV?$allocator@V?$_List_unchecked_iterator@V?$_List_val@U?$_List_simple_types@U?$pair@$$CBV?$basic_string@DU?$char_traits@D@std@@V?$allocator@D@2@@std@@U_BOT_SKILL@@@std@@@std@@@std@@@std@@@2@XZ
	?_Getal@?$_Vector_alloc@U?$_Vec_base_types@V?$_List_unchecked_iterator@V?$_List_val@U?$_List_simple_types@U?$pair@$$CBV?$basic_string@DU?$char_traits@D@std@@V?$allocator@D@2@@std@@U_TEAMSIZEDEFINITIONS@@@std@@@std@@@std@@@std@@V?$allocator@V?$_List_unchecked_iterator@V?$_List_val@U?$_List_simple_types@U?$pair@$$CBV?$basic_string@DU?$char_traits@D@std@@V?$allocator@D@2@@std@@U_TEAMSIZEDEFINITIONS@@@std@@@std@@@std@@@std@@@2@@std@@@std@@QAEAAV?$allocator@V?$_List_unchecked_iterator@V?$_List_val@U?$_List_simple_types@U?$pair@$$CBV?$basic_string@DU?$char_traits@D@std@@V?$allocator@D@2@@std@@U_TEAMSIZEDEFINITIONS@@@std@@@std@@@std@@@std@@@2@XZ
	?_Getal@?$_Vector_alloc@U?$_Vec_base_types@V?$_List_unchecked_iterator@V?$_List_val@U?$_List_simple_types@U?$pair@$$CBV?$basic_string@DU?$char_traits@D@std@@V?$allocator@D@2@@std@@U_TEAMSIZEDEFINITIONS@@@std@@@std@@@std@@@std@@V?$allocator@V?$_List_unchecked_iterator@V?$_List_val@U?$_List_simple_types@U?$pair@$$CBV?$basic_string@DU?$char_traits@D@std@@V?$allocator@D@2@@std@@U_TEAMSIZEDEFINITIONS@@@std@@@std@@@std@@@std@@@2@@std@@@std@@QBEABV?$allocator@V?$_List_unchecked_iterator@V?$_List_val@U?$_List_simple_types@U?$pair@$$CBV?$basic_string@DU?$char_traits@D@std@@V?$allocator@D@2@@std@@U_TEAMSIZEDEFINITIONS@@@std@@@std@@@std@@@std@@@2@XZ
	?_Getal@?$_Vector_alloc@U?$_Vec_base_types@W4HiveTechStatus@@V?$allocator@W4HiveTechStatus@@@std@@@std@@@std@@QAEAAV?$allocator@W4HiveTechStatus@@@2@XZ
	?_Getal@?$_Vector_alloc@U?$_Vec_base_types@W4HiveTechStatus@@V?$allocator@W4HiveTechStatus@@@std@@@std@@@std@@QBEABV?$allocator@W4HiveTechStatus@@@2@XZ
	?_Getcont@_Iterator_base12@std@@QBEPBU_Container_base12@2@XZ
	?_Getfacet@locale@std@@QBEPBVfacet@12@I@Z
	?_Gethash@?$_Uhash_compare@HU?$hash@H@std@@U?$equal_to@H@2@@std@@QBEABU?$hash@H@2@XZ
	?_Gethash@?$_Uhash_compare@V?$basic_string@DU?$char_traits@D@std@@V?$allocator@D@2@@std@@U?$hash@V?$basic_string@DU?$char_traits@D@std@@V?$allocator@D@2@@std@@@2@U?$equal_to@V?$basic_string@DU?$char_traits@D@std@@V?$allocator@D@2@@std@@@2@@std@@QBEABU?$hash@V?$basic_string@DU?$char_traits@D@std@@V?$allocator@D@2@@std@@@2@XZ
	?_Getkeyeq@?$_Uhash_compare@HU?$hash@H@std@@U?$equal_to@H@2@@std@@QBEABU?$equal_to@H@2@XZ
	?_Getkeyeq@?$_Uhash_compare@V?$basic_string@DU?$char_traits@D@std@@V?$allocator@D@2@@std@@U?$hash@V?$basic_string@DU?$char_traits@D@std@@V?$allocator@D@2@@std@@@2@U?$equal_to@V?$basic_string@DU?$char_traits@D@std@@V?$allocator@D@2@@std@@@2@@std@@QBEABU?$equal_to@V?$basic_string@DU?$char_traits@D@std@@V?$allocator@D@2@@std@@@2@XZ
	?_Getpfirst@?$_List_alloc@U?$_List_base_types@U?$pair@$$CBHU_BUILDABLE_STRUCTURE@@@std@@V?$allocator@U?$pair@$$CBHU_BUILDABLE_STRUCTURE@@@std@@@2@@std@@@std@@QBEPAPAU_Iterator_base12@2@XZ
	?_Getpfirst@?$_List_alloc@U?$_List_base_types@U?$pair@$$CBHU_DROPPED_MARINE_ITEM@@@std@@V?$allocator@U?$pair@$$CBHU_DROPPED_MARINE_ITEM@@@std@@@2@@std@@@std@@QBEPAPAU_Iterator_base12@2@XZ
	?_Getpfirst@?$_List_alloc@U?$_List_base_types@U?$pair@$$CBV?$basic_string@DU?$char_traits@D@std@@V?$allocator@D@2@@std@@U_BOT_SKILL@@@std@@V?$allocator@U?$pair@$$CBV?$basic_string@DU?$char_traits@D@std@@V?$allocator@D@2@@std@@U_BOT_SKILL@@@std@@@2@@std@@@std@@QBEPAPAU_Iterator_base12@2@XZ
	?_Getpfirst@?$_List_alloc@U?$_List_base_types@U?$pair@$$CBV?$basic_string@DU?$char_traits@D@std@@V?$allocator@D@2@@std@@U_TEAMSIZEDEFINITIONS@@@std@@V?$allocator@U?$pair@$$CBV?$basic_string@DU?$char_traits@D@std@@V?$allocator@D@2@@std@@U_TEAMSIZEDEFINITIONS@@@std@@@2@@std@@@std@@QBEPAPAU_Iterator_base12@2@XZ
	?_Getpfirst@?$_Vector_alloc@U?$_Vec_base_types@W4HiveTechStatus@@V?$allocator@W4HiveTechStatus@@@std@@@std@@@std@@QBEPAPAU_Iterator_base12@2@XZ
	?_Getpfirst@_Container_base12@std@@QBEPAPAU_Iterator_base12@2@XZ
	?_Getpnext@_Iterator_base12@std@@QAEPAPAU12@XZ
	?_Getstate@?$basic_stringbuf@DU?$char_traits@D@std@@V?$allocator@D@2@@std@@CAHH@Z
	?_Hashval@?$_Hash@V?$_Umap_traits@HU_BUILDABLE_STRUCTURE@@V?$_Uhash_compare@HU?$hash@H@std@@U?$equal_to@H@2@@std@@V?$allocator@U?$pair@$$CBHU_BUILDABLE_STRUCTURE@@@std@@@3@$0A@@std@@@std@@IBEIABH@Z
	?_Hashval@?$_Hash@V?$_Umap_traits@HU_DROPPED_MARINE_ITEM@@V?$_Uhash_compare@HU?$hash@H@std@@U?$equal_to@H@2@@std@@V?$allocator@U?$pair@$$CBHU_DROPPED_MARINE_ITEM@@@std@@@3@$0A@@std@@@std@@IBEIABH@Z
	?_Hashval@?$_Hash@V?$_Umap_traits@V?$basic_string@DU?$char_traits@D@std@@V?$allocator@D@2@@std@@U_BOT_SKILL@@V?$_Uhash_compare@V?$basic_string@DU?$char_traits@D@std@@V?$allocator@D@2@@std@@U?$hash@V?$basic_string@DU?$char_traits@D@std@@V?$allocator@D@2@@std@@@2@U?$equal_to@V?$basic_string@DU?$char_traits@D@std@@V?$allocator@D@2@@std@@@2@@2@V?$allocator@U?$pair@$$CBV?$basic_string@DU?$char_traits@D@std@@V?$allocator@D@2@@std@@U_BOT_SKILL@@@std@@@2@$0A@@std@@@std@@IBEIABV?$basic_string@DU?$char_traits@D@std@@V?$allocator@D@2@@2@@Z
	?_Hashval@?$_Hash@V?$_Umap_traits@V?$basic_string@DU?$char_traits@D@std@@V?$allocator@D@2@@std@@U_TEAMSIZEDEFINITIONS@@V?$_Uhash_compare@V?$basic_string@DU?$char_traits@D@std@@V?$allocator@D@2@@std@@U?$hash@V?$basic_string@DU?$char_traits@D@std@@V?$allocator@D@2@@std@@@2@U?$equal_to@V?$basic_string@DU?$char_traits@D@std@@V?$allocator@D@2@@std@@@2@@2@V?$allocator@U?$pair@$$CBV?$basic_string@DU?$char_traits@D@std@@V?$allocator@D@2@@std@@U_TEAMSIZEDEFINITIONS@@@std@@@2@$0A@@std@@@std@@IBEIABV?$basic_string@DU?$char_traits@D@std@@V?$allocator@D@2@@2@@Z
	?_Incsize@?$list@U?$pair@$$CBHU_BUILDABLE_STRUCTURE@@@std@@V?$allocator@U?$pair@$$CBHU_BUILDABLE_STRUCTURE@@@std@@@2@@std@@QAEXI@Z
	?_Incsize@?$list@U?$pair@$$CBHU_DROPPED_MARINE_ITEM@@@std@@V?$allocator@U?$pair@$$CBHU_DROPPED_MARINE_ITEM@@@std@@@2@@std@@QAEXI@Z
	?_Incsize@?$list@U?$pair@$$CBV?$basic_string@DU?$char_traits@D@std@@V?$allocator@D@2@@std@@U_BOT_SKILL@@@std@@V?$allocator@U?$pair@$$CBV?$basic_string@DU?$char_traits@D@std@@V?$allocator@D@2@@std@@U_BOT_SKILL@@@std@@@2@@std@@QAEXI@Z
	?_Incsize@?$list@U?$pair@$$CBV?$basic_string@DU?$char_traits@D@std@@V?$allocator@D@2@@std@@U_TEAMSIZEDEFINITIONS@@@std@@V?$allocator@U?$pair@$$CBV?$basic_string@DU?$char_traits@D@std@@V?$allocator@D@2@@std@@U_TEAMSIZEDEFINITIONS@@@std@@@2@@std@@QAEXI@Z
	?_Init@?$_Hash@V?$_Umap_traits@HU_BUILDABLE_STRUCTURE@@V?$_Uhash_compare@HU?$hash@H@std@@U?$equal_to@H@2@@std@@V?$allocator@U?$pair@$$CBHU_BUILDABLE_STRUCTURE@@@std@@@3@$0A@@std@@@std@@IAEXI@Z
	?_Init@?$_Hash@V?$_Umap_traits@HU_DROPPED_MARINE_ITEM@@V?$_Uhash_compare@HU?$hash@H@std@@U?$equal_to@H@2@@std@@V?$allocator@U?$pair@$$CBHU_DROPPED_MARINE_ITEM@@@std@@@3@$0A@@std@@@std@@IAEXI@Z
	?_Init@?$_Hash@V?$_Umap_traits@V?$basic_string@DU?$char_traits@D@std@@V?$allocator@D@2@@std@@U_BOT_SKILL@@V?$_Uhash_compare@V?$basic_string@DU?$char_traits@D@std@@V?$allocator@D@2@@std@@U?$hash@V?$basic_string@DU?$char_traits@D@std@@V?$allocator@D@2@@std@@@2@U?$equal_to@V?$basic_string@DU?$char_traits@D@std@@V?$allocator@D@2@@std@@@2@@2@V?$allocator@U?$pair@$$CBV?$basic_string@DU?$char_traits@D@std@@V?$allocator@D@2@@std@@U_BOT_SKILL@@@std@@@2@$0A@@std@@@std@@IAEXI@Z
	?_Init@?$_Hash@V?$_Umap_traits@V?$basic_string@DU?$char_traits@D@std@@V?$allocator@D@2@@std@@U_TEAMSIZEDEFINITIONS@@V?$_Uhash_compare@V?$basic_string@DU?$char_traits@D@std@@V?$allocator@D@2@@std@@U?$hash@V?$basic_string@DU?$char_traits@D@std@@V?$allocator@D@2@@std@@@2@U?$equal_to@V?$basic_string@DU?$char_traits@D@std@@V?$allocator@D@2@@std@@@2@@2@V?$allocator@U?$pair@$$CBV?$basic_string@DU?$char_traits@D@std@@V?$allocator@D@2@@std@@U_TEAMSIZEDEFINITIONS@@@std@@@2@$0A@@std@@@std@@IAEXI@Z
	?_Init@?$basic_filebuf@DU?$char_traits@D@std@@@std@@IAEXPAU_iobuf@@W4_Initfl@12@@Z
	?_Init@?$basic_stringbuf@DU?$char_traits@D@std@@V?$allocator@D@2@@std@@IAEXPBDIH@Z
	?_Initcvt@?$basic_filebuf@DU?$char_traits@D@std@@@std@@IAEXABV?$codecvt@DDU_Mbstatet@@@2@@Z
	?_Insert_bucket@?$_Hash@V?$_Umap_traits@HU_BUILDABLE_STRUCTURE@@V?$_Uhash_compare@HU?$hash@H@std@@U?$equal_to@H@2@@std@@V?$allocator@U?$pair@$$CBHU_BUILDABLE_STRUCTURE@@@std@@@3@$0A@@std@@@std@@IAEXV?$_List_unchecked_iterator@V?$_List_val@U?$_List_simple_types@U?$pair@$$CBHU_BUILDABLE_STRUCTURE@@@std@@@std@@@std@@@2@0I@Z
	?_Insert_bucket@?$_Hash@V?$_Umap_traits@HU_DROPPED_MARINE_ITEM@@V?$_Uhash_compare@HU?$hash@H@std@@U?$equal_to@H@2@@std@@V?$allocator@U?$pair@$$CBHU_DROPPED_MARINE_ITEM@@@std@@@3@$0A@@std@@@std@@IAEXV?$_List_unchecked_iterator@V?$_List_val@U?$_List_simple_types@U?$pair@$$CBHU_DROPPED_MARINE_ITEM@@@std@@@std@@@std@@@2@0I@Z
	?_Insert_bucket@?$_Hash@V?$_Umap_traits@V?$basic_string@DU?$char_traits@D@std@@V?$allocator@D@2@@std@@U_BOT_SKILL@@V?$_Uhash_compare@V?$basic_string@DU?$char_traits@D@std@@V?$allocator@D@2@@std@@U?$hash@V?$basic_string@DU?$char_traits@D@std@@V?$allocator@D@2@@std@@@2@U?$equal_to@V?$basic_string@DU?$char_traits@D@std@@V?$allocator@D@2@@std@@@2@@2@V?$allocator@U?$pair@$$CBV?$basic_string@DU?$char_traits@D@std@@V?$allocator@D@2@@std@@U_BOT_SKILL@@@std@@@2@$0A@@std@@@std@@IAEXV?$_List_unchecked_iterator@V?$_List_val@U?$_List_simple_types@U?$pair@$$CBV?$basic_string@DU?$char_traits@D@std@@V?$allocator@D@2@@std@@U_BOT_SKILL@@@std@@@std@@@std@@@2@0I@Z
	?_Insert_bucket@?$_Hash@V?$_Umap_traits@V?$basic_string@DU?$char_traits@D@std@@V?$allocator@D@2@@std@@U_TEAMSIZEDEFINITIONS@@V?$_Uhash_compare@V?$basic_string@DU?$char_traits@D@std@@V?$allocator@D@2@@std@@U?$hash@V?$basic_string@DU?$char_traits@D@std@@V?$allocator@D@2@@std@@@2@U?$equal_to@V?$basic_string@DU?$char_traits@D@std@@V?$allocator@D@2@@std@@@2@@2@V?$allocator@U?$pair@$$CBV?$basic_string@DU?$char_traits@D@std@@V?$allocator@D@2@@std@@U_TEAMSIZEDEFINITIONS@@@std@@@2@$0A@@std@@@std@@IAEXV?$_List_unchecked_iterator@V?$_List_val@U?$_List_simple_types@U?$pair@$$CBV?$basic_string@DU?$char_traits@D@std@@V?$allocator@D@2@@std@@U_TEAMSIZEDEFINITIONS@@@std@@@std@@@std@@@2@0I@Z
	?_Large_string_engaged@?$_String_val@U?$_Simple_types@D@std@@@std@@QBE_NXZ
	?_Lock@?$basic_filebuf@DU?$char_traits@D@std@@@std@@UAEXXZ
	?_Make_iter@?$_Hash@V?$_Umap_traits@HU_BUILDABLE_STRUCTURE@@V?$_Uhash_compare@HU?$hash@H@std@@U?$equal_to@H@2@@std@@V?$allocator@U?$pair@$$CBHU_BUILDABLE_STRUCTURE@@@std@@@3@$0A@@std@@@std@@QBE?AV?$_List_iterator@V?$_List_val@U?$_List_simple_types@U?$pair@$$CBHU_BUILDABLE_STRUCTURE@@@std@@@std@@@std@@@2@V?$_List_const_iterator@V?$_List_val@U?$_List_simple_types@U?$pair@$$CBHU_BUILDABLE_STRUCTURE@@@std@@@std@@@std@@@2@@Z
	?_Make_iter@?$_Hash@V?$_Umap_traits@HU_BUILDABLE_STRUCTURE@@V?$_Uhash_compare@HU?$hash@H@std@@U?$equal_to@H@2@@std@@V?$allocator@U?$pair@$$CBHU_BUILDABLE_STRUCTURE@@@std@@@3@$0A@@std@@@std@@QBE?AV?$_List_iterator@V?$_List_val@U?$_List_simple_types@U?$pair@$$CBHU_BUILDABLE_STRUCTURE@@@std@@@std@@@std@@@2@V?$_List_unchecked_const_iterator@V?$_List_val@U?$_List_simple_types@U?$pair@$$CBHU_BUILDABLE_STRUCTURE@@@std@@@std@@@std@@U_Iterator_base0@2@@2@@Z
	?_Make_iter@?$_Hash@V?$_Umap_traits@HU_DROPPED_MARINE_ITEM@@V?$_Uhash_compare@HU?$hash@H@std@@U?$equal_to@H@2@@std@@V?$allocator@U?$pair@$$CBHU_DROPPED_MARINE_ITEM@@@std@@@3@$0A@@std@@@std@@QBE?AV?$_List_iterator@V?$_List_val@U?$_List_simple_types@U?$pair@$$CBHU_DROPPED_MARINE_ITEM@@@std@@@std@@@std@@@2@V?$_List_const_iterator@V?$_List_val@U?$_List_simple_types@U?$pair@$$CBHU_DROPPED_MARINE_ITEM@@@std@@@std@@@std@@@2@@Z
	?_Make_iter@?$_Hash@V?$_Umap_traits@HU_DROPPED_MARINE_ITEM@@V?$_Uhash_compare@HU?$hash@H@std@@U?$equal_to@H@2@@std@@V?$allocator@U?$pair@$$CBHU_DROPPED_MARINE_ITEM@@@std@@@3@$0A@@std@@@std@@QBE?AV?$_List_iterator@V?$_List_val@U?$_List_simple_types@U?$pair@$$CBHU_DROPPED_MARINE_ITEM@@@std@@@std@@@std@@@2@V?$_List_unchecked_const_iterator@V?$_List_val@U?$_List_simple_types@U?$pair@$$CBHU_DROPPED_MARINE_ITEM@@@std@@@std@@@std@@U_Iterator_base0@2@@2@@Z
	?_Make_iter@?$_Hash@V?$_Umap_traits@V?$basic_string@DU?$char_traits@D@std@@V?$allocator@D@2@@std@@U_BOT_SKILL@@V?$_Uhash_compare@V?$basic_string@DU?$char_traits@D@std@@V?$allocator@D@2@@std@@U?$hash@V?$basic_string@DU?$char_traits@D@std@@V?$allocator@D@2@@std@@@2@U?$equal_to@V?$basic_string@DU?$char_traits@D@std@@V?$allocator@D@2@@std@@@2@@2@V?$allocator@U?$pair@$$CBV?$basic_string@DU?$char_traits@D@std@@V?$allocator@D@2@@std@@U_BOT_SKILL@@@std@@@2@$0A@@std@@@std@@QBE?AV?$_List_iterator@V?$_List_val@U?$_List_simple_types@U?$pair@$$CBV?$basic_string@DU?$char_traits@D@std@@V?$allocator@D@2@@std@@U_BOT_SKILL@@@std@@@std@@@std@@@2@V?$_List_const_iterator@V?$_List_val@U?$_List_simple_types@U?$pair@$$CBV?$basic_string@DU?$char_traits@D@std@@V?$allocator@D@2@@std@@U_BOT_SKILL@@@std@@@std@@@std@@@2@@Z
	?_Make_iter@?$_Hash@V?$_Umap_traits@V?$basic_string@DU?$char_traits@D@std@@V?$allocator@D@2@@std@@U_BOT_SKILL@@V?$_Uhash_compare@V?$basic_string@DU?$char_traits@D@std@@V?$allocator@D@2@@std@@U?$hash@V?$basic_string@DU?$char_traits@D@std@@V?$allocator@D@2@@std@@@2@U?$equal_to@V?$basic_string@DU?$char_traits@D@std@@V?$allocator@D@2@@std@@@2@@2@V?$allocator@U?$pair@$$CBV?$basic_string@DU?$char_traits@D@std@@V?$allocator@D@2@@std@@U_BOT_SKILL@@@std@@@2@$0A@@std@@@std@@QBE?AV?$_List_iterator@V?$_List_val@U?$_List_simple_types@U?$pair@$$CBV?$basic_string@DU?$char_traits@D@std@@V?$allocator@D@2@@std@@U_BOT_SKILL@@@std@@@std@@@std@@@2@V?$_List_unchecked_const_iterator@V?$_List_val@U?$_List_simple_types@U?$pair@$$CBV?$basic_string@DU?$char_traits@D@std@@V?$allocator@D@2@@std@@U_BOT_SKILL@@@std@@@std@@@std@@U_Iterator_base0@2@@2@@Z
	?_Make_iter@?$_Hash@V?$_Umap_traits@V?$basic_string@DU?$char_traits@D@std@@V?$allocator@D@2@@std@@U_TEAMSIZEDEFINITIONS@@V?$_Uhash_compare@V?$basic_string@DU?$char_traits@D@std@@V?$allocator@D@2@@std@@U?$hash@V?$basic_string@DU?$char_traits@D@std@@V?$allocator@D@2@@std@@@2@U?$equal_to@V?$basic_string@DU?$char_traits@D@std@@V?$allocator@D@2@@std@@@2@@2@V?$allocator@U?$pair@$$CBV?$basic_string@DU?$char_traits@D@std@@V?$allocator@D@2@@std@@U_TEAMSIZEDEFINITIONS@@@std@@@2@$0A@@std@@@std@@QBE?AV?$_List_iterator@V?$_List_val@U?$_List_simple_types@U?$pair@$$CBV?$basic_string@DU?$char_traits@D@std@@V?$allocator@D@2@@std@@U_TEAMSIZEDEFINITIONS@@@std@@@std@@@std@@@2@V?$_List_const_iterator@V?$_List_val@U?$_List_simple_types@U?$pair@$$CBV?$basic_string@DU?$char_traits@D@std@@V?$allocator@D@2@@std@@U_TEAMSIZEDEFINITIONS@@@std@@@std@@@std@@@2@@Z
	?_Make_iter@?$_Hash@V?$_Umap_traits@V?$basic_string@DU?$char_traits@D@std@@V?$allocator@D@2@@std@@U_TEAMSIZEDEFINITIONS@@V?$_Uhash_compare@V?$basic_string@DU?$char_traits@D@std@@V?$allocator@D@2@@std@@U?$hash@V?$basic_string@DU?$char_traits@D@std@@V?$allocator@D@2@@std@@@2@U?$equal_to@V?$basic_string@DU?$char_traits@D@std@@V?$allocator@D@2@@std@@@2@@2@V?$allocator@U?$pair@$$CBV?$basic_string@DU?$char_traits@D@std@@V?$allocator@D@2@@std@@U_TEAMSIZEDEFINITIONS@@@std@@@2@$0A@@std@@@std@@QBE?AV?$_List_iterator@V?$_List_val@U?$_List_simple_types@U?$pair@$$CBV?$basic_string@DU?$char_traits@D@std@@V?$allocator@D@2@@std@@U_TEAMSIZEDEFINITIONS@@@std@@@std@@@std@@@2@V?$_List_unchecked_const_iterator@V?$_List_val@U?$_List_simple_types@U?$pair@$$CBV?$basic_string@DU?$char_traits@D@std@@V?$allocator@D@2@@std@@U_TEAMSIZEDEFINITIONS@@@std@@@std@@@std@@U_Iterator_base0@2@@2@@Z
	?_Make_iter@?$list@U?$pair@$$CBHU_BUILDABLE_STRUCTURE@@@std@@V?$allocator@U?$pair@$$CBHU_BUILDABLE_STRUCTURE@@@std@@@2@@std@@QBE?AV?$_List_iterator@V?$_List_val@U?$_List_simple_types@U?$pair@$$CBHU_BUILDABLE_STRUCTURE@@@std@@@std@@@std@@@2@V?$_List_const_iterator@V?$_List_val@U?$_List_simple_types@U?$pair@$$CBHU_BUILDABLE_STRUCTURE@@@std@@@std@@@std@@@2@@Z
	?_Make_iter@?$list@U?$pair@$$CBHU_BUILDABLE_STRUCTURE@@@std@@V?$allocator@U?$pair@$$CBHU_BUILDABLE_STRUCTURE@@@std@@@2@@std@@QBE?AV?$_List_iterator@V?$_List_val@U?$_List_simple_types@U?$pair@$$CBHU_BUILDABLE_STRUCTURE@@@std@@@std@@@std@@@2@V?$_List_unchecked_const_iterator@V?$_List_val@U?$_List_simple_types@U?$pair@$$CBHU_BUILDABLE_STRUCTURE@@@std@@@std@@@std@@U_Iterator_base0@2@@2@@Z
	?_Make_iter@?$list@U?$pair@$$CBHU_DROPPED_MARINE_ITEM@@@std@@V?$allocator@U?$pair@$$CBHU_DROPPED_MARINE_ITEM@@@std@@@2@@std@@QBE?AV?$_List_iterator@V?$_List_val@U?$_List_simple_types@U?$pair@$$CBHU_DROPPED_MARINE_ITEM@@@std@@@std@@@std@@@2@V?$_List_const_iterator@V?$_List_val@U?$_List_simple_types@U?$pair@$$CBHU_DROPPED_MARINE_ITEM@@@std@@@std@@@std@@@2@@Z
	?_Make_iter@?$list@U?$pair@$$CBHU_DROPPED_MARINE_ITEM@@@std@@V?$allocator@U?$pair@$$CBHU_DROPPED_MARINE_ITEM@@@std@@@2@@std@@QBE?AV?$_List_iterator@V?$_List_val@U?$_List_simple_types@U?$pair@$$CBHU_DROPPED_MARINE_ITEM@@@std@@@std@@@std@@@2@V?$_List_unchecked_const_iterator@V?$_List_val@U?$_List_simple_types@U?$pair@$$CBHU_DROPPED_MARINE_ITEM@@@std@@@std@@@std@@U_Iterator_base0@2@@2@@Z
	?_Make_iter@?$list@U?$pair@$$CBV?$basic_string@DU?$char_traits@D@std@@V?$allocator@D@2@@std@@U_BOT_SKILL@@@std@@V?$allocator@U?$pair@$$CBV?$basic_string@DU?$char_traits@D@std@@V?$allocator@D@2@@std@@U_BOT_SKILL@@@std@@@2@@std@@QBE?AV?$_List_iterator@V?$_List_val@U?$_List_simple_types@U?$pair@$$CBV?$basic_string@DU?$char_traits@D@std@@V?$allocator@D@2@@std@@U_BOT_SKILL@@@std@@@std@@@std@@@2@V?$_List_const_iterator@V?$_List_val@U?$_List_simple_types@U?$pair@$$CBV?$basic_string@DU?$char_traits@D@std@@V?$allocator@D@2@@std@@U_BOT_SKILL@@@std@@@std@@@std@@@2@@Z
	?_Make_iter@?$list@U?$pair@$$CBV?$basic_string@DU?$char_traits@D@std@@V?$allocator@D@2@@std@@U_BOT_SKILL@@@std@@V?$allocator@U?$pair@$$CBV?$basic_string@DU?$char_traits@D@std@@V?$allocator@D@2@@std@@U_BOT_SKILL@@@std@@@2@@std@@QBE?AV?$_List_iterator@V?$_List_val@U?$_List_simple_types@U?$pair@$$CBV?$basic_string@DU?$char_traits@D@std@@V?$allocator@D@2@@std@@U_BOT_SKILL@@@std@@@std@@@std@@@2@V?$_List_unchecked_const_iterator@V?$_List_val@U?$_List_simple_types@U?$pair@$$CBV?$basic_string@DU?$char_traits@D@std@@V?$allocator@D@2@@std@@U_BOT_SKILL@@@std@@@std@@@std@@U_Iterator_base0@2@@2@@Z
	?_Make_iter@?$list@U?$pair@$$CBV?$basic_string@DU?$char_traits@D@std@@V?$allocator@D@2@@std@@U_TEAMSIZEDEFINITIONS@@@std@@V?$allocator@U?$pair@$$CBV?$basic_string@DU?$char_traits@D@std@@V?$allocator@D@2@@std@@U_TEAMSIZEDEFINITIONS@@@std@@@2@@std@@QBE?AV?$_List_iterator@V?$_List_val@U?$_List_simple_types@U?$pair@$$CBV?$basic_string@DU?$char_traits@D@std@@V?$allocator@D@2@@std@@U_TEAMSIZEDEFINITIONS@@@std@@@std@@@std@@@2@V?$_List_const_iterator@V?$_List_val@U?$_List_simple_types@U?$pair@$$CBV?$basic_string@DU?$char_traits@D@std@@V?$allocator@D@2@@std@@U_TEAMSIZEDEFINITIONS@@@std@@@std@@@std@@@2@@Z
	?_Make_iter@?$list@U?$pair@$$CBV?$basic_string@DU?$char_traits@D@std@@V?$allocator@D@2@@std@@U_TEAMSIZEDEFINITIONS@@@std@@V?$allocator@U?$pair@$$CBV?$basic_string@DU?$char_traits@D@std@@V?$allocator@D@2@@std@@U_TEAMSIZEDEFINITIONS@@@std@@@2@@std@@QBE?AV?$_List_iterator@V?$_List_val@U?$_List_simple_types@U?$pair@$$CBV?$basic_string@DU?$char_traits@D@std@@V?$allocator@D@2@@std@@U_TEAMSIZEDEFINITIONS@@@std@@@std@@@std@@@2@V?$_List_unchecked_const_iterator@V?$_List_val@U?$_List_simple_types@U?$pair@$$CBV?$basic_string@DU?$char_traits@D@std@@V?$allocator@D@2@@std@@U_TEAMSIZEDEFINITIONS@@@std@@@std@@@std@@U_Iterator_base0@2@@2@@Z
	?_Mark@?$_String_bitmap@D$00@std@@QAE_NPBDQBD@Z
	?_Match@?$_String_bitmap@D$00@std@@QBE_ND@Z
	?_Max_bucket_size@?$_Hash@V?$_Umap_traits@HU_BUILDABLE_STRUCTURE@@V?$_Uhash_compare@HU?$hash@H@std@@U?$equal_to@H@2@@std@@V?$allocator@U?$pair@$$CBHU_BUILDABLE_STRUCTURE@@@std@@@3@$0A@@std@@@std@@IAEAAMXZ
	?_Max_bucket_size@?$_Hash@V?$_Umap_traits@HU_BUILDABLE_STRUCTURE@@V?$_Uhash_compare@HU?$hash@H@std@@U?$equal_to@H@2@@std@@V?$allocator@U?$pair@$$CBHU_BUILDABLE_STRUCTURE@@@std@@@3@$0A@@std@@@std@@IBEABMXZ
	?_Max_bucket_size@?$_Hash@V?$_Umap_traits@HU_DROPPED_MARINE_ITEM@@V?$_Uhash_compare@HU?$hash@H@std@@U?$equal_to@H@2@@std@@V?$allocator@U?$pair@$$CBHU_DROPPED_MARINE_ITEM@@@std@@@3@$0A@@std@@@std@@IAEAAMXZ
	?_Max_bucket_size@?$_Hash@V?$_Umap_traits@HU_DROPPED_MARINE_ITEM@@V?$_Uhash_compare@HU?$hash@H@std@@U?$equal_to@H@2@@std@@V?$allocator@U?$pair@$$CBHU_DROPPED_MARINE_ITEM@@@std@@@3@$0A@@std@@@std@@IBEABMXZ
	?_Max_bucket_size@?$_Hash@V?$_Umap_traits@V?$basic_string@DU?$char_traits@D@std@@V?$allocator@D@2@@std@@U_BOT_SKILL@@V?$_Uhash_compare@V?$basic_string@DU?$char_traits@D@std@@V?$allocator@D@2@@std@@U?$hash@V?$basic_string@DU?$char_traits@D@std@@V?$allocator@D@2@@std@@@2@U?$equal_to@V?$basic_string@DU?$char_traits@D@std@@V?$allocator@D@2@@std@@@2@@2@V?$allocator@U?$pair@$$CBV?$basic_string@DU?$char_traits@D@std@@V?$allocator@D@2@@std@@U_BOT_SKILL@@@std@@@2@$0A@@std@@@std@@IAEAAMXZ
	?_Max_bucket_size@?$_Hash@V?$_Umap_traits@V?$basic_string@DU?$char_traits@D@std@@V?$allocator@D@2@@std@@U_BOT_SKILL@@V?$_Uhash_compare@V?$basic_string@DU?$char_traits@D@std@@V?$allocator@D@2@@std@@U?$hash@V?$basic_string@DU?$char_traits@D@std@@V?$allocator@D@2@@std@@@2@U?$equal_to@V?$basic_string@DU?$char_traits@D@std@@V?$allocator@D@2@@std@@@2@@2@V?$allocator@U?$pair@$$CBV?$basic_string@DU?$char_traits@D@std@@V?$allocator@D@2@@std@@U_BOT_SKILL@@@std@@@2@$0A@@std@@@std@@IBEABMXZ
	?_Max_bucket_size@?$_Hash@V?$_Umap_traits@V?$basic_string@DU?$char_traits@D@std@@V?$allocator@D@2@@std@@U_TEAMSIZEDEFINITIONS@@V?$_Uhash_compare@V?$basic_string@DU?$char_traits@D@std@@V?$allocator@D@2@@std@@U?$hash@V?$basic_string@DU?$char_traits@D@std@@V?$allocator@D@2@@std@@@2@U?$equal_to@V?$basic_string@DU?$char_traits@D@std@@V?$allocator@D@2@@std@@@2@@2@V?$allocator@U?$pair@$$CBV?$basic_string@DU?$char_traits@D@std@@V?$allocator@D@2@@std@@U_TEAMSIZEDEFINITIONS@@@std@@@2@$0A@@std@@@std@@IAEAAMXZ
	?_Max_bucket_size@?$_Hash@V?$_Umap_traits@V?$basic_string@DU?$char_traits@D@std@@V?$allocator@D@2@@std@@U_TEAMSIZEDEFINITIONS@@V?$_Uhash_compare@V?$basic_string@DU?$char_traits@D@std@@V?$allocator@D@2@@std@@U?$hash@V?$basic_string@DU?$char_traits@D@std@@V?$allocator@D@2@@std@@@2@U?$equal_to@V?$basic_string@DU?$char_traits@D@std@@V?$allocator@D@2@@std@@@2@@2@V?$allocator@U?$pair@$$CBV?$basic_string@DU?$char_traits@D@std@@V?$allocator@D@2@@std@@U_TEAMSIZEDEFINITIONS@@@std@@@2@$0A@@std@@@std@@IBEABMXZ
	?_Myend@?$_Vector_alloc@U?$_Vec_base_types@V?$_List_unchecked_iterator@V?$_List_val@U?$_List_simple_types@U?$pair@$$CBHU_BUILDABLE_STRUCTURE@@@std@@@std@@@std@@@std@@V?$allocator@V?$_List_unchecked_iterator@V?$_List_val@U?$_List_simple_types@U?$pair@$$CBHU_BUILDABLE_STRUCTURE@@@std@@@std@@@std@@@std@@@2@@std@@@std@@QAEAAPAV?$_List_unchecked_iterator@V?$_List_val@U?$_List_simple_types@U?$pair@$$CBHU_BUILDABLE_STRUCTURE@@@std@@@std@@@std@@@2@XZ
	?_Myend@?$_Vector_alloc@U?$_Vec_base_types@V?$_List_unchecked_iterator@V?$_List_val@U?$_List_simple_types@U?$pair@$$CBHU_BUILDABLE_STRUCTURE@@@std@@@std@@@std@@@std@@V?$allocator@V?$_List_unchecked_iterator@V?$_List_val@U?$_List_simple_types@U?$pair@$$CBHU_BUILDABLE_STRUCTURE@@@std@@@std@@@std@@@std@@@2@@std@@@std@@QBEABQAV?$_List_unchecked_iterator@V?$_List_val@U?$_List_simple_types@U?$pair@$$CBHU_BUILDABLE_STRUCTURE@@@std@@@std@@@std@@@2@XZ
	?_Myend@?$_Vector_alloc@U?$_Vec_base_types@V?$_List_unchecked_iterator@V?$_List_val@U?$_List_simple_types@U?$pair@$$CBHU_DROPPED_MARINE_ITEM@@@std@@@std@@@std@@@std@@V?$allocator@V?$_List_unchecked_iterator@V?$_List_val@U?$_List_simple_types@U?$pair@$$CBHU_DROPPED_MARINE_ITEM@@@std@@@std@@@std@@@std@@@2@@std@@@std@@QAEAAPAV?$_List_unchecked_iterator@V?$_List_val@U?$_List_simple_types@U?$pair@$$CBHU_DROPPED_MARINE_ITEM@@@std@@@std@@@std@@@2@XZ
	?_Myend@?$_Vector_alloc@U?$_Vec_base_types@V?$_List_unchecked_iterator@V?$_List_val@U?$_List_simple_types@U?$pair@$$CBHU_DROPPED_MARINE_ITEM@@@std@@@std@@@std@@@std@@V?$allocator@V?$_List_unchecked_iterator@V?$_List_val@U?$_List_simple_types@U?$pair@$$CBHU_DROPPED_MARINE_ITEM@@@std@@@std@@@std@@@std@@@2@@std@@@std@@QBEABQAV?$_List_unchecked_iterator@V?$_List_val@U?$_List_simple_types@U?$pair@$$CBHU_DROPPED_MARINE_ITEM@@@std@@@std@@@std@@@2@XZ
	?_Myend@?$_Vector_alloc@U?$_Vec_base_types@V?$_List_unchecked_iterator@V?$_List_val@U?$_List_simple_types@U?$pair@$$CBV?$basic_string@DU?$char_traits@D@std@@V?$allocator@D@2@@std@@U_BOT_SKILL@@@std@@@std@@@std@@@std@@V?$allocator@V?$_List_unchecked_iterator@V?$_List_val@U?$_List_simple_types@U?$pair@$$CBV?$basic_string@DU?$char_traits@D@std@@V?$allocator@D@2@@std@@U_BOT_SKILL@@@std@@@std@@@std@@@std@@@2@@std@@@std@@QAEAAPAV?$_List_unchecked_iterator@V?$_List_val@U?$_List_simple_types@U?$pair@$$CBV?$basic_string@DU?$char_traits@D@std@@V?$allocator@D@2@@std@@U_BOT_SKILL@@@std@@@std@@@std@@@2@XZ
	?_Myend@?$_Vector_alloc@U?$_Vec_base_types@V?$_List_unchecked_iterator@V?$_List_val@U?$_List_simple_types@U?$pair@$$CBV?$basic_string@DU?$char_traits@D@std@@V?$allocator@D@2@@std@@U_BOT_SKILL@@@std@@@std@@@std@@@std@@V?$allocator@V?$_List_unchecked_iterator@V?$_List_val@U?$_List_simple_types@U?$pair@$$CBV?$basic_string@DU?$char_traits@D@std@@V?$allocator@D@2@@std@@U_BOT_SKILL@@@std@@@std@@@std@@@std@@@2@@std@@@std@@QBEABQAV?$_List_unchecked_iterator@V?$_List_val@U?$_List_simple_types@U?$pair@$$CBV?$basic_string@DU?$char_traits@D@std@@V?$allocator@D@2@@std@@U_BOT_SKILL@@@std@@@std@@@std@@@2@XZ
	?_Myend@?$_Vector_alloc@U?$_Vec_base_types@V?$_List_unchecked_iterator@V?$_List_val@U?$_List_simple_types@U?$pair@$$CBV?$basic_string@DU?$char_traits@D@std@@V?$allocator@D@2@@std@@U_TEAMSIZEDEFINITIONS@@@std@@@std@@@std@@@std@@V?$allocator@V?$_List_unchecked_iterator@V?$_List_val@U?$_List_simple_types@U?$pair@$$CBV?$basic_string@DU?$char_traits@D@std@@V?$allocator@D@2@@std@@U_TEAMSIZEDEFINITIONS@@@std@@@std@@@std@@@std@@@2@@std@@@std@@QAEAAPAV?$_List_unchecked_iterator@V?$_List_val@U?$_List_simple_types@U?$pair@$$CBV?$basic_string@DU?$char_traits@D@std@@V?$allocator@D@2@@std@@U_TEAMSIZEDEFINITIONS@@@std@@@std@@@std@@@2@XZ
	?_Myend@?$_Vector_alloc@U?$_Vec_base_types@V?$_List_unchecked_iterator@V?$_List_val@U?$_List_simple_types@U?$pair@$$CBV?$basic_string@DU?$char_traits@D@std@@V?$allocator@D@2@@std@@U_TEAMSIZEDEFINITIONS@@@std@@@std@@@std@@@std@@V?$allocator@V?$_List_unchecked_iterator@V?$_List_val@U?$_List_simple_types@U?$pair@$$CBV?$basic_string@DU?$char_traits@D@std@@V?$allocator@D@2@@std@@U_TEAMSIZEDEFINITIONS@@@std@@@std@@@std@@@std@@@2@@std@@@std@@QBEABQAV?$_List_unchecked_iterator@V?$_List_val@U?$_List_simple_types@U?$pair@$$CBV?$basic_string@DU?$char_traits@D@std@@V?$allocator@D@2@@std@@U_TEAMSIZEDEFINITIONS@@@std@@@std@@@std@@@2@XZ
	?_Myend@?$_Vector_alloc@U?$_Vec_base_types@W4HiveTechStatus@@V?$allocator@W4HiveTechStatus@@@std@@@std@@@std@@QAEAAPAW4HiveTechStatus@@XZ
	?_Myend@?$_Vector_alloc@U?$_Vec_base_types@W4HiveTechStatus@@V?$allocator@W4HiveTechStatus@@@std@@@std@@@std@@QBEABQAW4HiveTechStatus@@XZ
	?_Myfirst@?$_Vector_alloc@U?$_Vec_base_types@V?$_List_unchecked_iterator@V?$_List_val@U?$_List_simple_types@U?$pair@$$CBHU_BUILDABLE_STRUCTURE@@@std@@@std@@@std@@@std@@V?$allocator@V?$_List_unchecked_iterator@V?$_List_val@U?$_List_simple_types@U?$pair@$$CBHU_BUILDABLE_STRUCTURE@@@std@@@std@@@std@@@std@@@2@@std@@@std@@QAEAAPAV?$_List_unchecked_iterator@V?$_List_val@U?$_List_simple_types@U?$pair@$$CBHU_BUILDABLE_STRUCTURE@@@std@@@std@@@std@@@2@XZ
	?_Myfirst@?$_Vector_alloc@U?$_Vec_base_types@V?$_List_unchecked_iterator@V?$_List_val@U?$_List_simple_types@U?$pair@$$CBHU_BUILDABLE_STRUCTURE@@@std@@@std@@@std@@@std@@V?$allocator@V?$_List_unchecked_iterator@V?$_List_val@U?$_List_simple_types@U?$pair@$$CBHU_BUILDABLE_STRUCTURE@@@std@@@std@@@std@@@std@@@2@@std@@@std@@QBEABQAV?$_List_unchecked_iterator@V?$_List_val@U?$_List_simple_types@U?$pair@$$CBHU_BUILDABLE_STRUCTURE@@@std@@@std@@@std@@@2@XZ
	?_Myfirst@?$_Vector_alloc@U?$_Vec_base_types@V?$_List_unchecked_iterator@V?$_List_val@U?$_List_simple_types@U?$pair@$$CBHU_DROPPED_MARINE_ITEM@@@std@@@std@@@std@@@std@@V?$allocator@V?$_List_unchecked_iterator@V?$_List_val@U?$_List_simple_types@U?$pair@$$CBHU_DROPPED_MARINE_ITEM@@@std@@@std@@@std@@@std@@@2@@std@@@std@@QAEAAPAV?$_List_unchecked_iterator@V?$_List_val@U?$_List_simple_types@U?$pair@$$CBHU_DROPPED_MARINE_ITEM@@@std@@@std@@@std@@@2@XZ
	?_Myfirst@?$_Vector_alloc@U?$_Vec_base_types@V?$_List_unchecked_iterator@V?$_List_val@U?$_List_simple_types@U?$pair@$$CBHU_DROPPED_MARINE_ITEM@@@std@@@std@@@std@@@std@@V?$allocator@V?$_List_unchecked_iterator@V?$_List_val@U?$_List_simple_types@U?$pair@$$CBHU_DROPPED_MARINE_ITEM@@@std@@@std@@@std@@@std@@@2@@std@@@std@@QBEABQAV?$_List_unchecked_iterator@V?$_List_val@U?$_List_simple_types@U?$pair@$$CBHU_DROPPED_MARINE_ITEM@@@std@@@std@@@std@@@2@XZ
	?_Myfirst@?$_Vector_alloc@U?$_Vec_base_types@V?$_List_unchecked_iterator@V?$_List_val@U?$_List_simple_types@U?$pair@$$CBV?$basic_string@DU?$char_traits@D@std@@V?$allocator@D@2@@std@@U_BOT_SKILL@@@std@@@std@@@std@@@std@@V?$allocator@V?$_List_unchecked_iterator@V?$_List_val@U?$_List_simple_types@U?$pair@$$CBV?$basic_string@DU?$char_traits@D@std@@V?$allocator@D@2@@std@@U_BOT_SKILL@@@std@@@std@@@std@@@std@@@2@@std@@@std@@QAEAAPAV?$_List_unchecked_iterator@V?$_List_val@U?$_List_simple_types@U?$pair@$$CBV?$basic_string@DU?$char_traits@D@std@@V?$allocator@D@2@@std@@U_BOT_SKILL@@@std@@@std@@@std@@@2@XZ
	?_Myfirst@?$_Vector_alloc@U?$_Vec_base_types@V?$_List_unchecked_iterator@V?$_List_val@U?$_List_simple_types@U?$pair@$$CBV?$basic_string@DU?$char_traits@D@std@@V?$allocator@D@2@@std@@U_BOT_SKILL@@@std@@@std@@@std@@@std@@V?$allocator@V?$_List_unchecked_iterator@V?$_List_val@U?$_List_simple_types@U?$pair@$$CBV?$basic_string@DU?$char_traits@D@std@@V?$allocator@D@2@@std@@U_BOT_SKILL@@@std@@@std@@@std@@@std@@@2@@std@@@std@@QBEABQAV?$_List_unchecked_iterator@V?$_List_val@U?$_List_simple_types@U?$pair@$$CBV?$basic_string@DU?$char_traits@D@std@@V?$allocator@D@2@@std@@U_BOT_SKILL@@@std@@@std@@@std@@@2@XZ
	?_Myfirst@?$_Vector_alloc@U?$_Vec_base_types@V?$_List_unchecked_iterator@V?$_List_val@U?$_List_simple_types@U?$pair@$$CBV?$basic_string@DU?$char_traits@D@std@@V?$allocator@D@2@@std@@U_TEAMSIZEDEFINITIONS@@@std@@@std@@@std@@@std@@V?$allocator@V?$_List_unchecked_iterator@V?$_List_val@U?$_List_simple_types@U?$pair@$$CBV?$basic_string@DU?$char_traits@D@std@@V?$allocator@D@2@@std@@U_TEAMSIZEDEFINITIONS@@@std@@@std@@@std@@@std@@@2@@std@@@std@@QAEAAPAV?$_List_unchecked_iterator@V?$_List_val@U?$_List_simple_types@U?$pair@$$CBV?$basic_string@DU?$char_traits@D@std@@V?$allocator@D@2@@std@@U_TEAMSIZEDEFINITIONS@@@std@@@std@@@std@@@2@XZ
	?_Myfirst@?$_Vector_alloc@U?$_Vec_base_types@V?$_List_unchecked_iterator@V?$_List_val@U?$_List_simple_types@U?$pair@$$CBV?$basic_string@DU?$char_traits@D@std@@V?$allocator@D@2@@std@@U_TEAMSIZEDEFINITIONS@@@std@@@std@@@std@@@std@@V?$allocator@V?$_List_unchecked_iterator@V?$_List_val@U?$_List_simple_types@U?$pair@$$CBV?$basic_string@DU?$char_traits@D@std@@V?$allocator@D@2@@std@@U_TEAMSIZEDEFINITIONS@@@std@@@std@@@std@@@std@@@2@@std@@@std@@QBEABQAV?$_List_unchecked_iterator@V?$_List_val@U?$_List_simple_types@U?$pair@$$CBV?$basic_string@DU?$char_traits@D@std@@V?$allocator@D@2@@std@@U_TEAMSIZEDEFINITIONS@@@std@@@std@@@std@@@2@XZ
	?_Myfirst@?$_Vector_alloc@U?$_Vec_base_types@W4HiveTechStatus@@V?$allocator@W4HiveTechStatus@@@std@@@std@@@std@@QAEAAPAW4HiveTechStatus@@XZ
	?_Myfirst@?$_Vector_alloc@U?$_Vec_base_types@W4HiveTechStatus@@V?$allocator@W4HiveTechStatus@@@std@@@std@@@std@@QBEABQAW4HiveTechStatus@@XZ
	?_Myhead@?$_List_alloc@U?$_List_base_types@U?$pair@$$CBHU_BUILDABLE_STRUCTURE@@@std@@V?$allocator@U?$pair@$$CBHU_BUILDABLE_STRUCTURE@@@std@@@2@@std@@@std@@QAEAAPAU?$_List_node@U?$pair@$$CBHU_BUILDABLE_STRUCTURE@@@std@@PAX@2@XZ
	?_Myhead@?$_List_alloc@U?$_List_base_types@U?$pair@$$CBHU_DROPPED_MARINE_ITEM@@@std@@V?$allocator@U?$pair@$$CBHU_DROPPED_MARINE_ITEM@@@std@@@2@@std@@@std@@QAEAAPAU?$_List_node@U?$pair@$$CBHU_DROPPED_MARINE_ITEM@@@std@@PAX@2@XZ
	?_Myhead@?$_List_alloc@U?$_List_base_types@U?$pair@$$CBV?$basic_string@DU?$char_traits@D@std@@V?$allocator@D@2@@std@@U_BOT_SKILL@@@std@@V?$allocator@U?$pair@$$CBV?$basic_string@DU?$char_traits@D@std@@V?$allocator@D@2@@std@@U_BOT_SKILL@@@std@@@2@@std@@@std@@QAEAAPAU?$_List_node@U?$pair@$$CBV?$basic_string@DU?$char_traits@D@std@@V?$allocator@D@2@@std@@U_BOT_SKILL@@@std@@PAX@2@XZ
	?_Myhead@?$_List_alloc@U?$_List_base_types@U?$pair@$$CBV?$basic_string@DU?$char_traits@D@std@@V?$allocator@D@2@@std@@U_TEAMSIZEDEFINITIONS@@@std@@V?$allocator@U?$pair@$$CBV?$basic_string@DU?$char_traits@D@std@@V?$allocator@D@2@@std@@U_TEAMSIZEDEFINITIONS@@@std@@@2@@std@@@std@@QAEAAPAU?$_List_node@U?$pair@$$CBV?$basic_string@DU?$char_traits@D@std@@V?$allocator@D@2@@std@@U_TEAMSIZEDEFINITIONS@@@std@@PAX@2@XZ
	?_Mylast@?$_Vector_alloc@U?$_Vec_base_types@V?$_List_unchecked_iterator@V?$_List_val@U?$_List_simple_types@U?$pair@$$CBHU_BUILDABLE_STRUCTURE@@@std@@@std@@@std@@@std@@V?$allocator@V?$_List_unchecked_iterator@V?$_List_val@U?$_List_simple_types@U?$pair@$$CBHU_BUILDABLE_STRUCTURE@@@std@@@std@@@std@@@std@@@2@@std@@@std@@QAEAAPAV?$_List_unchecked_iterator@V?$_List_val@U?$_List_simple_types@U?$pair@$$CBHU_BUILDABLE_STRUCTURE@@@std@@@std@@@std@@@2@XZ
	?_Mylast@?$_Vector_alloc@U?$_Vec_base_types@V?$_List_unchecked_iterator@V?$_List_val@U?$_List_simple_types@U?$pair@$$CBHU_BUILDABLE_STRUCTURE@@@std@@@std@@@std@@@std@@V?$allocator@V?$_List_unchecked_iterator@V?$_List_val@U?$_List_simple_types@U?$pair@$$CBHU_BUILDABLE_STRUCTURE@@@std@@@std@@@std@@@std@@@2@@std@@@std@@QBEABQAV?$_List_unchecked_iterator@V?$_List_val@U?$_List_simple_types@U?$pair@$$CBHU_BUILDABLE_STRUCTURE@@@std@@@std@@@std@@@2@XZ
	?_Mylast@?$_Vector_alloc@U?$_Vec_base_types@V?$_List_unchecked_iterator@V?$_List_val@U?$_List_simple_types@U?$pair@$$CBHU_DROPPED_MARINE_ITEM@@@std@@@std@@@std@@@std@@V?$allocator@V?$_List_unchecked_iterator@V?$_List_val@U?$_List_simple_types@U?$pair@$$CBHU_DROPPED_MARINE_ITEM@@@std@@@std@@@std@@@std@@@2@@std@@@std@@QAEAAPAV?$_List_unchecked_iterator@V?$_List_val@U?$_List_simple_types@U?$pair@$$CBHU_DROPPED_MARINE_ITEM@@@std@@@std@@@std@@@2@XZ
	?_Mylast@?$_Vector_alloc@U?$_Vec_base_types@V?$_List_unchecked_iterator@V?$_List_val@U?$_List_simple_types@U?$pair@$$CBHU_DROPPED_MARINE_ITEM@@@std@@@std@@@std@@@std@@V?$allocator@V?$_List_unchecked_iterator@V?$_List_val@U?$_List_simple_types@U?$pair@$$CBHU_DROPPED_MARINE_ITEM@@@std@@@std@@@std@@@std@@@2@@std@@@std@@QBEABQAV?$_List_unchecked_iterator@V?$_List_val@U?$_List_simple_types@U?$pair@$$CBHU_DROPPED_MARINE_ITEM@@@std@@@std@@@std@@@2@XZ
	?_Mylast@?$_Vector_alloc@U?$_Vec_base_types@V?$_List_unchecked_iterator@V?$_List_val@U?$_List_simple_types@U?$pair@$$CBV?$basic_string@DU?$char_traits@D@std@@V?$allocator@D@2@@std@@U_BOT_SKILL@@@std@@@std@@@std@@@std@@V?$allocator@V?$_List_unchecked_iterator@V?$_List_val@U?$_List_simple_types@U?$pair@$$CBV?$basic_string@DU?$char_traits@D@std@@V?$allocator@D@2@@std@@U_BOT_SKILL@@@std@@@std@@@std@@@std@@@2@@std@@@std@@QAEAAPAV?$_List_unchecked_iterator@V?$_List_val@U?$_List_simple_types@U?$pair@$$CBV?$basic_string@DU?$char_traits@D@std@@V?$allocator@D@2@@std@@U_BOT_SKILL@@@std@@@std@@@std@@@2@XZ
	?_Mylast@?$_Vector_alloc@U?$_Vec_base_types@V?$_List_unchecked_iterator@V?$_List_val@U?$_List_simple_types@U?$pair@$$CBV?$basic_string@DU?$char_traits@D@std@@V?$allocator@D@2@@std@@U_BOT_SKILL@@@std@@@std@@@std@@@std@@V?$allocator@V?$_List_unchecked_iterator@V?$_List_val@U?$_List_simple_types@U?$pair@$$CBV?$basic_string@DU?$char_traits@D@std@@V?$allocator@D@2@@std@@U_BOT_SKILL@@@std@@@std@@@std@@@std@@@2@@std@@@std@@QBEABQAV?$_List_unchecked_iterator@V?$_List_val@U?$_List_simple_types@U?$pair@$$CBV?$basic_string@DU?$char_traits@D@std@@V?$allocator@D@2@@std@@U_BOT_SKILL@@@std@@@std@@@std@@@2@XZ
	?_Mylast@?$_Vector_alloc@U?$_Vec_base_types@V?$_List_unchecked_iterator@V?$_List_val@U?$_List_simple_types@U?$pair@$$CBV?$basic_string@DU?$char_traits@D@std@@V?$allocator@D@2@@std@@U_TEAMSIZEDEFINITIONS@@@std@@@std@@@std@@@std@@V?$allocator@V?$_List_unchecked_iterator@V?$_List_val@U?$_List_simple_types@U?$pair@$$CBV?$basic_string@DU?$char_traits@D@std@@V?$allocator@D@2@@std@@U_TEAMSIZEDEFINITIONS@@@std@@@std@@@std@@@std@@@2@@std@@@std@@QAEAAPAV?$_List_unchecked_iterator@V?$_List_val@U?$_List_simple_types@U?$pair@$$CBV?$basic_string@DU?$char_traits@D@std@@V?$allocator@D@2@@std@@U_TEAMSIZEDEFINITIONS@@@std@@@std@@@std@@@2@XZ
	?_Mylast@?$_Vector_alloc@U?$_Vec_base_types@V?$_List_unchecked_iterator@V?$_List_val@U?$_List_simple_types@U?$pair@$$CBV?$basic_string@DU?$char_traits@D@std@@V?$allocator@D@2@@std@@U_TEAMSIZEDEFINITIONS@@@std@@@std@@@std@@@std@@V?$allocator@V?$_List_unchecked_iterator@V?$_List_val@U?$_List_simple_types@U?$pair@$$CBV?$basic_string@DU?$char_traits@D@std@@V?$allocator@D@2@@std@@U_TEAMSIZEDEFINITIONS@@@std@@@std@@@std@@@std@@@2@@std@@@std@@QBEABQAV?$_List_unchecked_iterator@V?$_List_val@U?$_List_simple_types@U?$pair@$$CBV?$basic_string@DU?$char_traits@D@std@@V?$allocator@D@2@@std@@U_TEAMSIZEDEFINITIONS@@@std@@@std@@@std@@@2@XZ
	?_Mylast@?$_Vector_alloc@U?$_Vec_base_types@W4HiveTechStatus@@V?$allocator@W4HiveTechStatus@@@std@@@std@@@std@@QAEAAPAW4HiveTechStatus@@XZ
	?_Mylast@?$_Vector_alloc@U?$_Vec_base_types@W4HiveTechStatus@@V?$allocator@W4HiveTechStatus@@@std@@@std@@@std@@QBEABQAW4HiveTechStatus@@XZ
	?_Myproxy@?$_List_alloc@U?$_List_base_types@U?$pair@$$CBHU_BUILDABLE_STRUCTURE@@@std@@V?$allocator@U?$pair@$$CBHU_BUILDABLE_STRUCTURE@@@std@@@2@@std@@@std@@QAEAAPAU_Container_proxy@2@XZ
	?_Myproxy@?$_List_alloc@U?$_List_base_types@U?$pair@$$CBHU_DROPPED_MARINE_ITEM@@@std@@V?$allocator@U?$pair@$$CBHU_DROPPED_MARINE_ITEM@@@std@@@2@@std@@@std@@QAEAAPAU_Container_proxy@2@XZ
	?_Myproxy@?$_List_alloc@U?$_List_base_types@U?$pair@$$CBV?$basic_string@DU?$char_traits@D@std@@V?$allocator@D@2@@std@@U_BOT_SKILL@@@std@@V?$allocator@U?$pair@$$CBV?$basic_string@DU?$char_traits@D@std@@V?$allocator@D@2@@std@@U_BOT_SKILL@@@std@@@2@@std@@@std@@QAEAAPAU_Container_proxy@2@XZ
	?_Myproxy@?$_List_alloc@U?$_List_base_types@U?$pair@$$CBV?$basic_string@DU?$char_traits@D@std@@V?$allocator@D@2@@std@@U_TEAMSIZEDEFINITIONS@@@std@@V?$allocator@U?$pair@$$CBV?$basic_string@DU?$char_traits@D@std@@V?$allocator@D@2@@std@@U_TEAMSIZEDEFINITIONS@@@std@@@2@@std@@@std@@QAEAAPAU_Container_proxy@2@XZ
	?_Myproxy@?$_String_alloc@U?$_String_base_types@DV?$allocator@D@std@@@std@@@std@@QAEAAPAU_Container_proxy@2@XZ
	?_Myproxy@?$_Vector_alloc@U?$_Vec_base_types@V?$_List_unchecked_iterator@V?$_List_val@U?$_List_simple_types@U?$pair@$$CBHU_BUILDABLE_STRUCTURE@@@std@@@std@@@std@@@std@@V?$allocator@V?$_List_unchecked_iterator@V?$_List_val@U?$_List_simple_types@U?$pair@$$CBHU_BUILDABLE_STRUCTURE@@@std@@@std@@@std@@@std@@@2@@std@@@std@@QAEAAPAU_Container_proxy@2@XZ
	?_Myproxy@?$_Vector_alloc@U?$_Vec_base_types@V?$_List_unchecked_iterator@V?$_List_val@U?$_List_simple_types@U?$pair@$$CBHU_DROPPED_MARINE_ITEM@@@std@@@std@@@std@@@std@@V?$allocator@V?$_List_unchecked_iterator@V?$_List_val@U?$_List_simple_types@U?$pair@$$CBHU_DROPPED_MARINE_ITEM@@@std@@@std@@@std@@@std@@@2@@std@@@std@@QAEAAPAU_Container_proxy@2@XZ
	?_Myproxy@?$_Vector_alloc@U?$_Vec_base_types@V?$_List_unchecked_iterator@V?$_List_val@U?$_List_simple_types@U?$pair@$$CBV?$basic_string@DU?$char_traits@D@std@@V?$allocator@D@2@@std@@U_BOT_SKILL@@@std@@@std@@@std@@@std@@V?$allocator@V?$_List_unchecked_iterator@V?$_List_val@U?$_List_simple_types@U?$pair@$$CBV?$basic_string@DU?$char_traits@D@std@@V?$allocator@D@2@@std@@U_BOT_SKILL@@@std@@@std@@@std@@@std@@@2@@std@@@std@@QAEAAPAU_Container_proxy@2@XZ
	?_Myproxy@?$_Vector_alloc@U?$_Vec_base_types@V?$_List_unchecked_iterator@V?$_List_val@U?$_List_simple_types@U?$pair@$$CBV?$basic_string@DU?$char_traits@D@std@@V?$allocator@D@2@@std@@U_TEAMSIZEDEFINITIONS@@@std@@@std@@@std@@@std@@V?$allocator@V?$_List_unchecked_iterator@V?$_List_val@U?$_List_simple_types@U?$pair@$$CBV?$basic_string@DU?$char_traits@D@std@@V?$allocator@D@2@@std@@U_TEAMSIZEDEFINITIONS@@@std@@@std@@@std@@@std@@@2@@std@@@std@@QAEAAPAU_Container_proxy@2@XZ
	?_Myproxy@?$_Vector_alloc@U?$_Vec_base_types@W4HiveTechStatus@@V?$allocator@W4HiveTechStatus@@@std@@@std@@@std@@QAEAAPAU_Container_proxy@2@XZ
	?_Myptr@?$_String_val@U?$_Simple_types@D@std@@@std@@QAEPADXZ
	?_Myptr@?$_String_val@U?$_Simple_types@D@std@@@std@@QBEPBDXZ
	?_Myptr@?$_Unique_ptr_base@V_Facet_base@std@@U?$default_delete@V_Facet_base@std@@@2@@std@@QAEAAPAV_Facet_base@2@XZ
	?_Myptr@?$_Unique_ptr_base@V_Facet_base@std@@U?$default_delete@V_Facet_base@std@@@2@@std@@QBEABQAV_Facet_base@2@XZ
	?_Mysize@?$_List_alloc@U?$_List_base_types@U?$pair@$$CBHU_BUILDABLE_STRUCTURE@@@std@@V?$allocator@U?$pair@$$CBHU_BUILDABLE_STRUCTURE@@@std@@@2@@std@@@std@@QAEAAIXZ
	?_Mysize@?$_List_alloc@U?$_List_base_types@U?$pair@$$CBHU_BUILDABLE_STRUCTURE@@@std@@V?$allocator@U?$pair@$$CBHU_BUILDABLE_STRUCTURE@@@std@@@2@@std@@@std@@QBEABIXZ
	?_Mysize@?$_List_alloc@U?$_List_base_types@U?$pair@$$CBHU_DROPPED_MARINE_ITEM@@@std@@V?$allocator@U?$pair@$$CBHU_DROPPED_MARINE_ITEM@@@std@@@2@@std@@@std@@QAEAAIXZ
	?_Mysize@?$_List_alloc@U?$_List_base_types@U?$pair@$$CBHU_DROPPED_MARINE_ITEM@@@std@@V?$allocator@U?$pair@$$CBHU_DROPPED_MARINE_ITEM@@@std@@@2@@std@@@std@@QBEABIXZ
	?_Mysize@?$_List_alloc@U?$_List_base_types@U?$pair@$$CBV?$basic_string@DU?$char_traits@D@std@@V?$allocator@D@2@@std@@U_BOT_SKILL@@@std@@V?$allocator@U?$pair@$$CBV?$basic_string@DU?$char_traits@D@std@@V?$allocator@D@2@@std@@U_BOT_SKILL@@@std@@@2@@std@@@std@@QAEAAIXZ
	?_Mysize@?$_List_alloc@U?$_List_base_types@U?$pair@$$CBV?$basic_string@DU?$char_traits@D@std@@V?$allocator@D@2@@std@@U_BOT_SKILL@@@std@@V?$allocator@U?$pair@$$CBV?$basic_string@DU?$char_traits@D@std@@V?$allocator@D@2@@std@@U_BOT_SKILL@@@std@@@2@@std@@@std@@QBEABIXZ
	?_Mysize@?$_List_alloc@U?$_List_base_types@U?$pair@$$CBV?$basic_string@DU?$char_traits@D@std@@V?$allocator@D@2@@std@@U_TEAMSIZEDEFINITIONS@@@std@@V?$allocator@U?$pair@$$CBV?$basic_string@DU?$char_traits@D@std@@V?$allocator@D@2@@std@@U_TEAMSIZEDEFINITIONS@@@std@@@2@@std@@@std@@QAEAAIXZ
	?_Mysize@?$_List_alloc@U?$_List_base_types@U?$pair@$$CBV?$basic_string@DU?$char_traits@D@std@@V?$allocator@D@2@@std@@U_TEAMSIZEDEFINITIONS@@@std@@V?$allocator@U?$pair@$$CBV?$basic_string@DU?$char_traits@D@std@@V?$allocator@D@2@@std@@U_TEAMSIZEDEFINITIONS@@@std@@@2@@std@@@std@@QBEABIXZ
	?_Orphan_all@?$_List_alloc@U?$_List_base_types@U?$pair@$$CBHU_BUILDABLE_STRUCTURE@@@std@@V?$allocator@U?$pair@$$CBHU_BUILDABLE_STRUCTURE@@@std@@@2@@std@@@std@@QAEXXZ
	?_Orphan_all@?$_List_alloc@U?$_List_base_types@U?$pair@$$CBHU_DROPPED_MARINE_ITEM@@@std@@V?$allocator@U?$pair@$$CBHU_DROPPED_MARINE_ITEM@@@std@@@2@@std@@@std@@QAEXXZ
	?_Orphan_all@?$_List_alloc@U?$_List_base_types@U?$pair@$$CBV?$basic_string@DU?$char_traits@D@std@@V?$allocator@D@2@@std@@U_BOT_SKILL@@@std@@V?$allocator@U?$pair@$$CBV?$basic_string@DU?$char_traits@D@std@@V?$allocator@D@2@@std@@U_BOT_SKILL@@@std@@@2@@std@@@std@@QAEXXZ
	?_Orphan_all@?$_List_alloc@U?$_List_base_types@U?$pair@$$CBV?$basic_string@DU?$char_traits@D@std@@V?$allocator@D@2@@std@@U_TEAMSIZEDEFINITIONS@@@std@@V?$allocator@U?$pair@$$CBV?$basic_string@DU?$char_traits@D@std@@V?$allocator@D@2@@std@@U_TEAMSIZEDEFINITIONS@@@std@@@2@@std@@@std@@QAEXXZ
	?_Orphan_all@?$_String_alloc@U?$_String_base_types@DV?$allocator@D@std@@@std@@@std@@QAEXXZ
	?_Orphan_all@?$_Vector_alloc@U?$_Vec_base_types@V?$_List_unchecked_iterator@V?$_List_val@U?$_List_simple_types@U?$pair@$$CBHU_BUILDABLE_STRUCTURE@@@std@@@std@@@std@@@std@@V?$allocator@V?$_List_unchecked_iterator@V?$_List_val@U?$_List_simple_types@U?$pair@$$CBHU_BUILDABLE_STRUCTURE@@@std@@@std@@@std@@@std@@@2@@std@@@std@@QAEXXZ
	?_Orphan_all@?$_Vector_alloc@U?$_Vec_base_types@V?$_List_unchecked_iterator@V?$_List_val@U?$_List_simple_types@U?$pair@$$CBHU_DROPPED_MARINE_ITEM@@@std@@@std@@@std@@@std@@V?$allocator@V?$_List_unchecked_iterator@V?$_List_val@U?$_List_simple_types@U?$pair@$$CBHU_DROPPED_MARINE_ITEM@@@std@@@std@@@std@@@std@@@2@@std@@@std@@QAEXXZ
	?_Orphan_all@?$_Vector_alloc@U?$_Vec_base_types@V?$_List_unchecked_iterator@V?$_List_val@U?$_List_simple_types@U?$pair@$$CBV?$basic_string@DU?$char_traits@D@std@@V?$allocator@D@2@@std@@U_BOT_SKILL@@@std@@@std@@@std@@@std@@V?$allocator@V?$_List_unchecked_iterator@V?$_List_val@U?$_List_simple_types@U?$pair@$$CBV?$basic_string@DU?$char_traits@D@std@@V?$allocator@D@2@@std@@U_BOT_SKILL@@@std@@@std@@@std@@@std@@@2@@std@@@std@@QAEXXZ
	?_Orphan_all@?$_Vector_alloc@U?$_Vec_base_types@V?$_List_unchecked_iterator@V?$_List_val@U?$_List_simple_types@U?$pair@$$CBV?$basic_string@DU?$char_traits@D@std@@V?$allocator@D@2@@std@@U_TEAMSIZEDEFINITIONS@@@std@@@std@@@std@@@std@@V?$allocator@V?$_List_unchecked_iterator@V?$_List_val@U?$_List_simple_types@U?$pair@$$CBV?$basic_string@DU?$char_traits@D@std@@V?$allocator@D@2@@std@@U_TEAMSIZEDEFINITIONS@@@std@@@std@@@std@@@std@@@2@@std@@@std@@QAEXXZ
	?_Orphan_all@?$_Vector_alloc@U?$_Vec_base_types@W4HiveTechStatus@@V?$allocator@W4HiveTechStatus@@@std@@@std@@@std@@QAEXXZ
	?_Orphan_all@_Container_base12@std@@QAEXXZ
	?_Orphan_me@_Iterator_base12@std@@QAEXXZ
	?_Orphan_ptr@?$list@U?$pair@$$CBHU_BUILDABLE_STRUCTURE@@@std@@V?$allocator@U?$pair@$$CBHU_BUILDABLE_STRUCTURE@@@std@@@2@@std@@QAEXPAU?$_List_node@U?$pair@$$CBHU_BUILDABLE_STRUCTURE@@@std@@PAX@2@@Z
	?_Orphan_ptr@?$list@U?$pair@$$CBHU_DROPPED_MARINE_ITEM@@@std@@V?$allocator@U?$pair@$$CBHU_DROPPED_MARINE_ITEM@@@std@@@2@@std@@QAEXPAU?$_List_node@U?$pair@$$CBHU_DROPPED_MARINE_ITEM@@@std@@PAX@2@@Z
	?_Orphan_ptr@?$list@U?$pair@$$CBV?$basic_string@DU?$char_traits@D@std@@V?$allocator@D@2@@std@@U_BOT_SKILL@@@std@@V?$allocator@U?$pair@$$CBV?$basic_string@DU?$char_traits@D@std@@V?$allocator@D@2@@std@@U_BOT_SKILL@@@std@@@2@@std@@QAEXPAU?$_List_node@U?$pair@$$CBV?$basic_string@DU?$char_traits@D@std@@V?$allocator@D@2@@std@@U_BOT_SKILL@@@std@@PAX@2@@Z
	?_Orphan_ptr@?$list@U?$pair@$$CBV?$basic_string@DU?$char_traits@D@std@@V?$allocator@D@2@@std@@U_TEAMSIZEDEFINITIONS@@@std@@V?$allocator@U?$pair@$$CBV?$basic_string@DU?$char_traits@D@std@@V?$allocator@D@2@@std@@U_TEAMSIZEDEFINITIONS@@@std@@@2@@std@@QAEXPAU?$_List_node@U?$pair@$$CBV?$basic_string@DU?$char_traits@D@std@@V?$allocator@D@2@@std@@U_TEAMSIZEDEFINITIONS@@@std@@PAX@2@@Z
	?_Orphan_range@?$vector@W4HiveTechStatus@@V?$allocator@W4HiveTechStatus@@@std@@@std@@ABEXPAW4HiveTechStatus@@0@Z
	?_Reallocate_exactly@?$vector@V?$_List_unchecked_iterator@V?$_List_val@U?$_List_simple_types@U?$pair@$$CBHU_BUILDABLE_STRUCTURE@@@std@@@std@@@std@@@std@@V?$allocator@V?$_List_unchecked_iterator@V?$_List_val@U?$_List_simple_types@U?$pair@$$CBHU_BUILDABLE_STRUCTURE@@@std@@@std@@@std@@@std@@@2@@std@@AAEXI@Z
	?_Reallocate_exactly@?$vector@V?$_List_unchecked_iterator@V?$_List_val@U?$_List_simple_types@U?$pair@$$CBHU_DROPPED_MARINE_ITEM@@@std@@@std@@@std@@@std@@V?$allocator@V?$_List_unchecked_iterator@V?$_List_val@U?$_List_simple_types@U?$pair@$$CBHU_DROPPED_MARINE_ITEM@@@std@@@std@@@std@@@std@@@2@@std@@AAEXI@Z
	?_Reallocate_exactly@?$vector@V?$_List_unchecked_iterator@V?$_List_val@U?$_List_simple_types@U?$pair@$$CBV?$basic_string@DU?$char_traits@D@std@@V?$allocator@D@2@@std@@U_BOT_SKILL@@@std@@@std@@@std@@@std@@V?$allocator@V?$_List_unchecked_iterator@V?$_List_val@U?$_List_simple_types@U?$pair@$$CBV?$basic_string@DU?$char_traits@D@std@@V?$allocator@D@2@@std@@U_BOT_SKILL@@@std@@@std@@@std@@@std@@@2@@std@@AAEXI@Z
	?_Reallocate_exactly@?$vector@V?$_List_unchecked_iterator@V?$_List_val@U?$_List_simple_types@U?$pair@$$CBV?$basic_string@DU?$char_traits@D@std@@V?$allocator@D@2@@std@@U_TEAMSIZEDEFINITIONS@@@std@@@std@@@std@@@std@@V?$allocator@V?$_List_unchecked_iterator@V?$_List_val@U?$_List_simple_types@U?$pair@$$CBV?$basic_string@DU?$char_traits@D@std@@V?$allocator@D@2@@std@@U_TEAMSIZEDEFINITIONS@@@std@@@std@@@std@@@std@@@2@@std@@AAEXI@Z
	?_Reinsert@?$_Hash@V?$_Umap_traits@HU_BUILDABLE_STRUCTURE@@V?$_Uhash_compare@HU?$hash@H@std@@U?$equal_to@H@2@@std@@V?$allocator@U?$pair@$$CBHU_BUILDABLE_STRUCTURE@@@std@@@3@$0A@@std@@@std@@IAEXXZ
	?_Reinsert@?$_Hash@V?$_Umap_traits@HU_DROPPED_MARINE_ITEM@@V?$_Uhash_compare@HU?$hash@H@std@@U?$equal_to@H@2@@std@@V?$allocator@U?$pair@$$CBHU_DROPPED_MARINE_ITEM@@@std@@@3@$0A@@std@@@std@@IAEXXZ
	?_Reinsert@?$_Hash@V?$_Umap_traits@V?$basic_string@DU?$char_traits@D@std@@V?$allocator@D@2@@std@@U_BOT_SKILL@@V?$_Uhash_compare@V?$basic_string@DU?$char_traits@D@std@@V?$allocator@D@2@@std@@U?$hash@V?$basic_string@DU?$char_traits@D@std@@V?$allocator@D@2@@std@@@2@U?$equal_to@V?$basic_string@DU?$char_traits@D@std@@V?$allocator@D@2@@std@@@2@@2@V?$allocator@U?$pair@$$CBV?$basic_string@DU?$char_traits@D@std@@V?$allocator@D@2@@std@@U_BOT_SKILL@@@std@@@2@$0A@@std@@@std@@IAEXXZ
	?_Reinsert@?$_Hash@V?$_Umap_traits@V?$basic_string@DU?$char_traits@D@std@@V?$allocator@D@2@@std@@U_TEAMSIZEDEFINITIONS@@V?$_Uhash_compare@V?$basic_string@DU?$char_traits@D@std@@V?$allocator@D@2@@std@@U?$hash@V?$basic_string@DU?$char_traits@D@std@@V?$allocator@D@2@@std@@@2@U?$equal_to@V?$basic_string@DU?$char_traits@D@std@@V?$allocator@D@2@@std@@@2@@2@V?$allocator@U?$pair@$$CBV?$basic_string@DU?$char_traits@D@std@@V?$allocator@D@2@@std@@U_TEAMSIZEDEFINITIONS@@@std@@@2@$0A@@std@@@std@@IAEXXZ
	?_Release@?$_Uninitialized_backout_al@PAV?$_List_unchecked_iterator@V?$_List_val@U?$_List_simple_types@U?$pair@$$CBHU_BUILDABLE_STRUCTURE@@@std@@@std@@@std@@@std@@V?$allocator@V?$_List_unchecked_iterator@V?$_List_val@U?$_List_simple_types@U?$pair@$$CBHU_BUILDABLE_STRUCTURE@@@std@@@std@@@std@@@std@@@2@@std@@QAEPAV?$_List_unchecked_iterator@V?$_List_val@U?$_List_simple_types@U?$pair@$$CBHU_BUILDABLE_STRUCTURE@@@std@@@std@@@std@@@2@XZ
	?_Release@?$_Uninitialized_backout_al@PAV?$_List_unchecked_iterator@V?$_List_val@U?$_List_simple_types@U?$pair@$$CBHU_DROPPED_MARINE_ITEM@@@std@@@std@@@std@@@std@@V?$allocator@V?$_List_unchecked_iterator@V?$_List_val@U?$_List_simple_types@U?$pair@$$CBHU_DROPPED_MARINE_ITEM@@@std@@@std@@@std@@@std@@@2@@std@@QAEPAV?$_List_unchecked_iterator@V?$_List_val@U?$_List_simple_types@U?$pair@$$CBHU_DROPPED_MARINE_ITEM@@@std@@@std@@@std@@@2@XZ
	?_Release@?$_Uninitialized_backout_al@PAV?$_List_unchecked_iterator@V?$_List_val@U?$_List_simple_types@U?$pair@$$CBV?$basic_string@DU?$char_traits@D@std@@V?$allocator@D@2@@std@@U_BOT_SKILL@@@std@@@std@@@std@@@std@@V?$allocator@V?$_List_unchecked_iterator@V?$_List_val@U?$_List_simple_types@U?$pair@$$CBV?$basic_string@DU?$char_traits@D@std@@V?$allocator@D@2@@std@@U_BOT_SKILL@@@std@@@std@@@std@@@std@@@2@@std@@QAEPAV?$_List_unchecked_iterator@V?$_List_val@U?$_List_simple_types@U?$pair@$$CBV?$basic_string@DU?$char_traits@D@std@@V?$allocator@D@2@@std@@U_BOT_SKILL@@@std@@@std@@@std@@@2@XZ
	?_Release@?$_Uninitialized_backout_al@PAV?$_List_unchecked_iterator@V?$_List_val@U?$_List_simple_types@U?$pair@$$CBV?$basic_string@DU?$char_traits@D@std@@V?$allocator@D@2@@std@@U_TEAMSIZEDEFINITIONS@@@std@@@std@@@std@@@std@@V?$allocator@V?$_List_unchecked_iterator@V?$_List_val@U?$_List_simple_types@U?$pair@$$CBV?$basic_string@DU?$char_traits@D@std@@V?$allocator@D@2@@std@@U_TEAMSIZEDEFINITIONS@@@std@@@std@@@std@@@std@@@2@@std@@QAEPAV?$_List_unchecked_iterator@V?$_List_val@U?$_List_simple_types@U?$pair@$$CBV?$basic_string@DU?$char_traits@D@std@@V?$allocator@D@2@@std@@U_TEAMSIZEDEFINITIONS@@@std@@@std@@@std@@@2@XZ
	?_Reset_back@?$basic_filebuf@DU?$char_traits@D@std@@@std@@AAEXXZ
	?_Seek_to@?$_String_const_iterator@V?$_String_val@U?$_Simple_types@D@std@@@std@@@std@@QAEXPBD@Z
	?_Seek_to@?$_Vector_const_iterator@V?$_Vector_val@U?$_Simple_types@W4HiveTechStatus@@@std@@@std@@@std@@QAEXPBW4HiveTechStatus@@@Z
	?_Set_back@?$basic_filebuf@DU?$char_traits@D@std@@@std@@AAEXXZ
	?_Swap_all@?$_String_alloc@U?$_String_base_types@DV?$allocator@D@std@@@std@@@std@@QAEXAAV12@@Z
	?_Swap_all@_Container_base12@std@@QAEXAAU12@@Z
	?_Tidy@?$basic_stringbuf@DU?$char_traits@D@std@@V?$allocator@D@2@@std@@IAEXXZ
	?_Tidy@?$list@U?$pair@$$CBHU_BUILDABLE_STRUCTURE@@@std@@V?$allocator@U?$pair@$$CBHU_BUILDABLE_STRUCTURE@@@std@@@2@@std@@QAEXXZ
	?_Tidy@?$list@U?$pair@$$CBHU_DROPPED_MARINE_ITEM@@@std@@V?$allocator@U?$pair@$$CBHU_DROPPED_MARINE_ITEM@@@std@@@2@@std@@QAEXXZ
	?_Tidy@?$list@U?$pair@$$CBV?$basic_string@DU?$char_traits@D@std@@V?$allocator@D@2@@std@@U_BOT_SKILL@@@std@@V?$allocator@U?$pair@$$CBV?$basic_string@DU?$char_traits@D@std@@V?$allocator@D@2@@std@@U_BOT_SKILL@@@std@@@2@@std@@QAEXXZ
	?_Tidy@?$list@U?$pair@$$CBV?$basic_string@DU?$char_traits@D@std@@V?$allocator@D@2@@std@@U_TEAMSIZEDEFINITIONS@@@std@@V?$allocator@U?$pair@$$CBV?$basic_string@DU?$char_traits@D@std@@V?$allocator@D@2@@std@@U_TEAMSIZEDEFINITIONS@@@std@@@2@@std@@QAEXXZ
	?_Tidy@?$vector@V?$_List_unchecked_iterator@V?$_List_val@U?$_List_simple_types@U?$pair@$$CBHU_BUILDABLE_STRUCTURE@@@std@@@std@@@std@@@std@@V?$allocator@V?$_List_unchecked_iterator@V?$_List_val@U?$_List_simple_types@U?$pair@$$CBHU_BUILDABLE_STRUCTURE@@@std@@@std@@@std@@@std@@@2@@std@@AAEXXZ
	?_Tidy@?$vector@V?$_List_unchecked_iterator@V?$_List_val@U?$_List_simple_types@U?$pair@$$CBHU_DROPPED_MARINE_ITEM@@@std@@@std@@@std@@@std@@V?$allocator@V?$_List_unchecked_iterator@V?$_List_val@U?$_List_simple_types@U?$pair@$$CBHU_DROPPED_MARINE_ITEM@@@std@@@std@@@std@@@std@@@2@@std@@AAEXXZ
	?_Tidy@?$vector@V?$_List_unchecked_iterator@V?$_List_val@U?$_List_simple_types@U?$pair@$$CBV?$basic_string@DU?$char_traits@D@std@@V?$allocator@D@2@@std@@U_BOT_SKILL@@@std@@@std@@@std@@@std@@V?$allocator@V?$_List_unchecked_iterator@V?$_List_val@U?$_List_simple_types@U?$pair@$$CBV?$basic_string@DU?$char_traits@D@std@@V?$allocator@D@2@@std@@U_BOT_SKILL@@@std@@@std@@@std@@@std@@@2@@std@@AAEXXZ
	?_Tidy@?$vector@V?$_List_unchecked_iterator@V?$_List_val@U?$_List_simple_types@U?$pair@$$CBV?$basic_string@DU?$char_traits@D@std@@V?$allocator@D@2@@std@@U_TEAMSIZEDEFINITIONS@@@std@@@std@@@std@@@std@@V?$allocator@V?$_List_unchecked_iterator@V?$_List_val@U?$_List_simple_types@U?$pair@$$CBV?$basic_string@DU?$char_traits@D@std@@V?$allocator@D@2@@std@@U_TEAMSIZEDEFINITIONS@@@std@@@std@@@std@@@std@@@2@@std@@AAEXXZ
	?_Tidy@?$vector@W4HiveTechStatus@@V?$allocator@W4HiveTechStatus@@@std@@@std@@AAEXXZ
	?_Tidy_deallocate@?$basic_string@DU?$char_traits@D@std@@V?$allocator@D@2@@std@@QAEXXZ
	?_Tidy_init@?$basic_string@DU?$char_traits@D@std@@V?$allocator@D@2@@std@@QAEXXZ
	?_Ufill@?$vector@V?$_List_unchecked_iterator@V?$_List_val@U?$_List_simple_types@U?$pair@$$CBHU_BUILDABLE_STRUCTURE@@@std@@@std@@@std@@@std@@V?$allocator@V?$_List_unchecked_iterator@V?$_List_val@U?$_List_simple_types@U?$pair@$$CBHU_BUILDABLE_STRUCTURE@@@std@@@std@@@std@@@std@@@2@@std@@AAEPAV?$_List_unchecked_iterator@V?$_List_val@U?$_List_simple_types@U?$pair@$$CBHU_BUILDABLE_STRUCTURE@@@std@@@std@@@std@@@2@PAV32@IABV32@@Z
	?_Ufill@?$vector@V?$_List_unchecked_iterator@V?$_List_val@U?$_List_simple_types@U?$pair@$$CBHU_DROPPED_MARINE_ITEM@@@std@@@std@@@std@@@std@@V?$allocator@V?$_List_unchecked_iterator@V?$_List_val@U?$_List_simple_types@U?$pair@$$CBHU_DROPPED_MARINE_ITEM@@@std@@@std@@@std@@@std@@@2@@std@@AAEPAV?$_List_unchecked_iterator@V?$_List_val@U?$_List_simple_types@U?$pair@$$CBHU_DROPPED_MARINE_ITEM@@@std@@@std@@@std@@@2@PAV32@IABV32@@Z
	?_Ufill@?$vector@V?$_List_unchecked_iterator@V?$_List_val@U?$_List_simple_types@U?$pair@$$CBV?$basic_string@DU?$char_traits@D@std@@V?$allocator@D@2@@std@@U_BOT_SKILL@@@std@@@std@@@std@@@std@@V?$allocator@V?$_List_unchecked_iterator@V?$_List_val@U?$_List_simple_types@U?$pair@$$CBV?$basic_string@DU?$char_traits@D@std@@V?$allocator@D@2@@std@@U_BOT_SKILL@@@std@@@std@@@std@@@std@@@2@@std@@AAEPAV?$_List_unchecked_iterator@V?$_List_val@U?$_List_simple_types@U?$pair@$$CBV?$basic_string@DU?$char_traits@D@std@@V?$allocator@D@2@@std@@U_BOT_SKILL@@@std@@@std@@@std@@@2@PAV32@IABV32@@Z
	?_Ufill@?$vector@V?$_List_unchecked_iterator@V?$_List_val@U?$_List_simple_types@U?$pair@$$CBV?$basic_string@DU?$char_traits@D@std@@V?$allocator@D@2@@std@@U_TEAMSIZEDEFINITIONS@@@std@@@std@@@std@@@std@@V?$allocator@V?$_List_unchecked_iterator@V?$_List_val@U?$_List_simple_types@U?$pair@$$CBV?$basic_string@DU?$char_traits@D@std@@V?$allocator@D@2@@std@@U_TEAMSIZEDEFINITIONS@@@std@@@std@@@std@@@std@@@2@@std@@AAEPAV?$_List_unchecked_iterator@V?$_List_val@U?$_List_simple_types@U?$pair@$$CBV?$basic_string@DU?$char_traits@D@std@@V?$allocator@D@2@@std@@U_TEAMSIZEDEFINITIONS@@@std@@@std@@@std@@@2@PAV32@IABV32@@Z
	?_Umove_if_noexcept1@?$vector@V?$_List_unchecked_iterator@V?$_List_val@U?$_List_simple_types@U?$pair@$$CBHU_BUILDABLE_STRUCTURE@@@std@@@std@@@std@@@std@@V?$allocator@V?$_List_unchecked_iterator@V?$_List_val@U?$_List_simple_types@U?$pair@$$CBHU_BUILDABLE_STRUCTURE@@@std@@@std@@@std@@@std@@@2@@std@@AAEXPAV?$_List_unchecked_iterator@V?$_List_val@U?$_List_simple_types@U?$pair@$$CBHU_BUILDABLE_STRUCTURE@@@std@@@std@@@std@@@2@00U?$integral_constant@_N$00@2@@Z
	?_Umove_if_noexcept1@?$vector@V?$_List_unchecked_iterator@V?$_List_val@U?$_List_simple_types@U?$pair@$$CBHU_DROPPED_MARINE_ITEM@@@std@@@std@@@std@@@std@@V?$allocator@V?$_List_unchecked_iterator@V?$_List_val@U?$_List_simple_types@U?$pair@$$CBHU_DROPPED_MARINE_ITEM@@@std@@@std@@@std@@@std@@@2@@std@@AAEXPAV?$_List_unchecked_iterator@V?$_List_val@U?$_List_simple_types@U?$pair@$$CBHU_DROPPED_MARINE_ITEM@@@std@@@std@@@std@@@2@00U?$integral_constant@_N$00@2@@Z
	?_Umove_if_noexcept1@?$vector@V?$_List_unchecked_iterator@V?$_List_val@U?$_List_simple_types@U?$pair@$$CBV?$basic_string@DU?$char_traits@D@std@@V?$allocator@D@2@@std@@U_BOT_SKILL@@@std@@@std@@@std@@@std@@V?$allocator@V?$_List_unchecked_iterator@V?$_List_val@U?$_List_simple_types@U?$pair@$$CBV?$basic_string@DU?$char_traits@D@std@@V?$allocator@D@2@@std@@U_BOT_SKILL@@@std@@@std@@@std@@@std@@@2@@std@@AAEXPAV?$_List_unchecked_iterator@V?$_List_val@U?$_List_simple_types@U?$pair@$$CBV?$basic_string@DU?$char_traits@D@std@@V?$allocator@D@2@@std@@U_BOT_SKILL@@@std@@@std@@@std@@@2@00U?$integral_constant@_N$00@2@@Z
	?_Umove_if_noexcept1@?$vector@V?$_List_unchecked_iterator@V?$_List_val@U?$_List_simple_types@U?$pair@$$CBV?$basic_string@DU?$char_traits@D@std@@V?$allocator@D@2@@std@@U_TEAMSIZEDEFINITIONS@@@std@@@std@@@std@@@std@@V?$allocator@V?$_List_unchecked_iterator@V?$_List_val@U?$_List_simple_types@U?$pair@$$CBV?$basic_string@DU?$char_traits@D@std@@V?$allocator@D@2@@std@@U_TEAMSIZEDEFINITIONS@@@std@@@std@@@std@@@std@@@2@@std@@AAEXPAV?$_List_unchecked_iterator@V?$_List_val@U?$_List_simple_types@U?$pair@$$CBV?$basic_string@DU?$char_traits@D@std@@V?$allocator@D@2@@std@@U_TEAMSIZEDEFINITIONS@@@std@@@std@@@std@@@2@00U?$integral_constant@_N$00@2@@Z
	?_Umove_if_noexcept@?$vector@V?$_List_unchecked_iterator@V?$_List_val@U?$_List_simple_types@U?$pair@$$CBHU_BUILDABLE_STRUCTURE@@@std@@@std@@@std@@@std@@V?$allocator@V?$_List_unchecked_iterator@V?$_List_val@U?$_List_simple_types@U?$pair@$$CBHU_BUILDABLE_STRUCTURE@@@std@@@std@@@std@@@std@@@2@@std@@AAEXPAV?$_List_unchecked_iterator@V?$_List_val@U?$_List_simple_types@U?$pair@$$CBHU_BUILDABLE_STRUCTURE@@@std@@@std@@@std@@@2@00@Z
	?_Umove_if_noexcept@?$vector@V?$_List_unchecked_iterator@V?$_List_val@U?$_List_simple_types@U?$pair@$$CBHU_DROPPED_MARINE_ITEM@@@std@@@std@@@std@@@std@@V?$allocator@V?$_List_unchecked_iterator@V?$_List_val@U?$_List_simple_types@U?$pair@$$CBHU_DROPPED_MARINE_ITEM@@@std@@@std@@@std@@@std@@@2@@std@@AAEXPAV?$_List_unchecked_iterator@V?$_List_val@U?$_List_simple_types@U?$pair@$$CBHU_DROPPED_MARINE_ITEM@@@std@@@std@@@std@@@2@00@Z
	?_Umove_if_noexcept@?$vector@V?$_List_unchecked_iterator@V?$_List_val@U?$_List_simple_types@U?$pair@$$CBV?$basic_string@DU?$char_traits@D@std@@V?$allocator@D@2@@std@@U_BOT_SKILL@@@std@@@std@@@std@@@std@@V?$allocator@V?$_List_unchecked_iterator@V?$_List_val@U?$_List_simple_types@U?$pair@$$CBV?$basic_string@DU?$char_traits@D@std@@V?$allocator@D@2@@std@@U_BOT_SKILL@@@std@@@std@@@std@@@std@@@2@@std@@AAEXPAV?$_List_unchecked_iterator@V?$_List_val@U?$_List_simple_types@U?$pair@$$CBV?$basic_string@DU?$char_traits@D@std@@V?$allocator@D@2@@std@@U_BOT_SKILL@@@std@@@std@@@std@@@2@00@Z
	?_Umove_if_noexcept@?$vector@V?$_List_unchecked_iterator@V?$_List_val@U?$_List_simple_types@U?$pair@$$CBV?$basic_string@DU?$char_traits@D@std@@V?$allocator@D@2@@std@@U_TEAMSIZEDEFINITIONS@@@std@@@std@@@std@@@std@@V?$allocator@V?$_List_unchecked_iterator@V?$_List_val@U?$_List_simple_types@U?$pair@$$CBV?$basic_string@DU?$char_traits@D@std@@V?$allocator@D@2@@std@@U_TEAMSIZEDEFINITIONS@@@std@@@std@@@std@@@std@@@2@@std@@AAEXPAV?$_List_unchecked_iterator@V?$_List_val@U?$_List_simple_types@U?$pair@$$CBV?$basic_string@DU?$char_traits@D@std@@V?$allocator@D@2@@std@@U_TEAMSIZEDEFINITIONS@@@std@@@std@@@std@@@2@00@Z
	?_Unchecked_begin@?$_Hash@V?$_Umap_traits@HU_BUILDABLE_STRUCTURE@@V?$_Uhash_compare@HU?$hash@H@std@@U?$equal_to@H@2@@std@@V?$allocator@U?$pair@$$CBHU_BUILDABLE_STRUCTURE@@@std@@@3@$0A@@std@@@std@@QAE?AV?$_List_unchecked_iterator@V?$_List_val@U?$_List_simple_types@U?$pair@$$CBHU_BUILDABLE_STRUCTURE@@@std@@@std@@@std@@@2@XZ
	?_Unchecked_begin@?$_Hash@V?$_Umap_traits@HU_DROPPED_MARINE_ITEM@@V?$_Uhash_compare@HU?$hash@H@std@@U?$equal_to@H@2@@std@@V?$allocator@U?$pair@$$CBHU_DROPPED_MARINE_ITEM@@@std@@@3@$0A@@std@@@std@@QAE?AV?$_List_unchecked_iterator@V?$_List_val@U?$_List_simple_types@U?$pair@$$CBHU_DROPPED_MARINE_ITEM@@@std@@@std@@@std@@@2@XZ
	?_Unchecked_begin@?$_Hash@V?$_Umap_traits@V?$basic_string@DU?$char_traits@D@std@@V?$allocator@D@2@@std@@U_BOT_SKILL@@V?$_Uhash_compare@V?$basic_string@DU?$char_traits@D@std@@V?$allocator@D@2@@std@@U?$hash@V?$basic_string@DU?$char_traits@D@std@@V?$allocator@D@2@@std@@@2@U?$equal_to@V?$basic_string@DU?$char_traits@D@std@@V?$allocator@D@2@@std@@@2@@2@V?$allocator@U?$pair@$$CBV?$basic_string@DU?$char_traits@D@std@@V?$allocator@D@2@@std@@U_BOT_SKILL@@@std@@@2@$0A@@std@@@std@@QAE?AV?$_List_unchecked_iterator@V?$_List_val@U?$_List_simple_types@U?$pair@$$CBV?$basic_string@DU?$char_traits@D@std@@V?$allocator@D@2@@std@@U_BOT_SKILL@@@std@@@std@@@std@@@2@XZ
	?_Unchecked_begin@?$_Hash@V?$_Umap_traits@V?$basic_string@DU?$char_traits@D@std@@V?$allocator@D@2@@std@@U_TEAMSIZEDEFINITIONS@@V?$_Uhash_compare@V?$basic_string@DU?$char_traits@D@std@@V?$allocator@D@2@@std@@U?$hash@V?$basic_string@DU?$char_traits@D@std@@V?$allocator@D@2@@std@@@2@U?$equal_to@V?$basic_string@DU?$char_traits@D@std@@V?$allocator@D@2@@std@@@2@@2@V?$allocator@U?$pair@$$CBV?$basic_string@DU?$char_traits@D@std@@V?$allocator@D@2@@std@@U_TEAMSIZEDEFINITIONS@@@std@@@2@$0A@@std@@@std@@QAE?AV?$_List_unchecked_iterator@V?$_List_val@U?$_List_simple_types@U?$pair@$$CBV?$basic_string@DU?$char_traits@D@std@@V?$allocator@D@2@@std@@U_TEAMSIZEDEFINITIONS@@@std@@@std@@@std@@@2@XZ
	?_Unchecked_begin@?$list@U?$pair@$$CBHU_BUILDABLE_STRUCTURE@@@std@@V?$allocator@U?$pair@$$CBHU_BUILDABLE_STRUCTURE@@@std@@@2@@std@@QAE?AV?$_List_unchecked_iterator@V?$_List_val@U?$_List_simple_types@U?$pair@$$CBHU_BUILDABLE_STRUCTURE@@@std@@@std@@@std@@@2@XZ
	?_Unchecked_begin@?$list@U?$pair@$$CBHU_DROPPED_MARINE_ITEM@@@std@@V?$allocator@U?$pair@$$CBHU_DROPPED_MARINE_ITEM@@@std@@@2@@std@@QAE?AV?$_List_unchecked_iterator@V?$_List_val@U?$_List_simple_types@U?$pair@$$CBHU_DROPPED_MARINE_ITEM@@@std@@@std@@@std@@@2@XZ
	?_Unchecked_begin@?$list@U?$pair@$$CBV?$basic_string@DU?$char_traits@D@std@@V?$allocator@D@2@@std@@U_BOT_SKILL@@@std@@V?$allocator@U?$pair@$$CBV?$basic_string@DU?$char_traits@D@std@@V?$allocator@D@2@@std@@U_BOT_SKILL@@@std@@@2@@std@@QAE?AV?$_List_unchecked_iterator@V?$_List_val@U?$_List_simple_types@U?$pair@$$CBV?$basic_string@DU?$char_traits@D@std@@V?$allocator@D@2@@std@@U_BOT_SKILL@@@std@@@std@@@std@@@2@XZ
	?_Unchecked_begin@?$list@U?$pair@$$CBV?$basic_string@DU?$char_traits@D@std@@V?$allocator@D@2@@std@@U_TEAMSIZEDEFINITIONS@@@std@@V?$allocator@U?$pair@$$CBV?$basic_string@DU?$char_traits@D@std@@V?$allocator@D@2@@std@@U_TEAMSIZEDEFINITIONS@@@std@@@2@@std@@QAE?AV?$_List_unchecked_iterator@V?$_List_val@U?$_List_simple_types@U?$pair@$$CBV?$basic_string@DU?$char_traits@D@std@@V?$allocator@D@2@@std@@U_TEAMSIZEDEFINITIONS@@@std@@@std@@@std@@@2@XZ
	?_Unchecked_end@?$_Hash@V?$_Umap_traits@HU_BUILDABLE_STRUCTURE@@V?$_Uhash_compare@HU?$hash@H@std@@U?$equal_to@H@2@@std@@V?$allocator@U?$pair@$$CBHU_BUILDABLE_STRUCTURE@@@std@@@3@$0A@@std@@@std@@QAE?AV?$_List_unchecked_iterator@V?$_List_val@U?$_List_simple_types@U?$pair@$$CBHU_BUILDABLE_STRUCTURE@@@std@@@std@@@std@@@2@XZ
	?_Unchecked_end@?$_Hash@V?$_Umap_traits@HU_DROPPED_MARINE_ITEM@@V?$_Uhash_compare@HU?$hash@H@std@@U?$equal_to@H@2@@std@@V?$allocator@U?$pair@$$CBHU_DROPPED_MARINE_ITEM@@@std@@@3@$0A@@std@@@std@@QAE?AV?$_List_unchecked_iterator@V?$_List_val@U?$_List_simple_types@U?$pair@$$CBHU_DROPPED_MARINE_ITEM@@@std@@@std@@@std@@@2@XZ
	?_Unchecked_end@?$_Hash@V?$_Umap_traits@V?$basic_string@DU?$char_traits@D@std@@V?$allocator@D@2@@std@@U_BOT_SKILL@@V?$_Uhash_compare@V?$basic_string@DU?$char_traits@D@std@@V?$allocator@D@2@@std@@U?$hash@V?$basic_string@DU?$char_traits@D@std@@V?$allocator@D@2@@std@@@2@U?$equal_to@V?$basic_string@DU?$char_traits@D@std@@V?$allocator@D@2@@std@@@2@@2@V?$allocator@U?$pair@$$CBV?$basic_string@DU?$char_traits@D@std@@V?$allocator@D@2@@std@@U_BOT_SKILL@@@std@@@2@$0A@@std@@@std@@QAE?AV?$_List_unchecked_iterator@V?$_List_val@U?$_List_simple_types@U?$pair@$$CBV?$basic_string@DU?$char_traits@D@std@@V?$allocator@D@2@@std@@U_BOT_SKILL@@@std@@@std@@@std@@@2@XZ
	?_Unchecked_end@?$_Hash@V?$_Umap_traits@V?$basic_string@DU?$char_traits@D@std@@V?$allocator@D@2@@std@@U_TEAMSIZEDEFINITIONS@@V?$_Uhash_compare@V?$basic_string@DU?$char_traits@D@std@@V?$allocator@D@2@@std@@U?$hash@V?$basic_string@DU?$char_traits@D@std@@V?$allocator@D@2@@std@@@2@U?$equal_to@V?$basic_string@DU?$char_traits@D@std@@V?$allocator@D@2@@std@@@2@@2@V?$allocator@U?$pair@$$CBV?$basic_string@DU?$char_traits@D@std@@V?$allocator@D@2@@std@@U_TEAMSIZEDEFINITIONS@@@std@@@2@$0A@@std@@@std@@QAE?AV?$_List_unchecked_iterator@V?$_List_val@U?$_List_simple_types@U?$pair@$$CBV?$basic_string@DU?$char_traits@D@std@@V?$allocator@D@2@@std@@U_TEAMSIZEDEFINITIONS@@@std@@@std@@@std@@@2@XZ
	?_Unchecked_end@?$list@U?$pair@$$CBHU_BUILDABLE_STRUCTURE@@@std@@V?$allocator@U?$pair@$$CBHU_BUILDABLE_STRUCTURE@@@std@@@2@@std@@QAE?AV?$_List_unchecked_iterator@V?$_List_val@U?$_List_simple_types@U?$pair@$$CBHU_BUILDABLE_STRUCTURE@@@std@@@std@@@std@@@2@XZ
	?_Unchecked_end@?$list@U?$pair@$$CBHU_DROPPED_MARINE_ITEM@@@std@@V?$allocator@U?$pair@$$CBHU_DROPPED_MARINE_ITEM@@@std@@@2@@std@@QAE?AV?$_List_unchecked_iterator@V?$_List_val@U?$_List_simple_types@U?$pair@$$CBHU_DROPPED_MARINE_ITEM@@@std@@@std@@@std@@@2@XZ
	?_Unchecked_end@?$list@U?$pair@$$CBV?$basic_string@DU?$char_traits@D@std@@V?$allocator@D@2@@std@@U_BOT_SKILL@@@std@@V?$allocator@U?$pair@$$CBV?$basic_string@DU?$char_traits@D@std@@V?$allocator@D@2@@std@@U_BOT_SKILL@@@std@@@2@@std@@QAE?AV?$_List_unchecked_iterator@V?$_List_val@U?$_List_simple_types@U?$pair@$$CBV?$basic_string@DU?$char_traits@D@std@@V?$allocator@D@2@@std@@U_BOT_SKILL@@@std@@@std@@@std@@@2@XZ
	?_Unchecked_end@?$list@U?$pair@$$CBV?$basic_string@DU?$char_traits@D@std@@V?$allocator@D@2@@std@@U_TEAMSIZEDEFINITIONS@@@std@@V?$allocator@U?$pair@$$CBV?$basic_string@DU?$char_traits@D@std@@V?$allocator@D@2@@std@@U_TEAMSIZEDEFINITIONS@@@std@@@2@@std@@QAE?AV?$_List_unchecked_iterator@V?$_List_val@U?$_List_simple_types@U?$pair@$$CBV?$basic_string@DU?$char_traits@D@std@@V?$allocator@D@2@@std@@U_TEAMSIZEDEFINITIONS@@@std@@@std@@@std@@@2@XZ
	?_Unchecked_splice@?$list@U?$pair@$$CBHU_BUILDABLE_STRUCTURE@@@std@@V?$allocator@U?$pair@$$CBHU_BUILDABLE_STRUCTURE@@@std@@@2@@std@@QAEXV?$_List_unchecked_const_iterator@V?$_List_val@U?$_List_simple_types@U?$pair@$$CBHU_BUILDABLE_STRUCTURE@@@std@@@std@@@std@@U_Iterator_base0@2@@2@00@Z
	?_Unchecked_splice@?$list@U?$pair@$$CBHU_DROPPED_MARINE_ITEM@@@std@@V?$allocator@U?$pair@$$CBHU_DROPPED_MARINE_ITEM@@@std@@@2@@std@@QAEXV?$_List_unchecked_const_iterator@V?$_List_val@U?$_List_simple_types@U?$pair@$$CBHU_DROPPED_MARINE_ITEM@@@std@@@std@@@std@@U_Iterator_base0@2@@2@00@Z
	?_Unchecked_splice@?$list@U?$pair@$$CBV?$basic_string@DU?$char_traits@D@std@@V?$allocator@D@2@@std@@U_BOT_SKILL@@@std@@V?$allocator@U?$pair@$$CBV?$basic_string@DU?$char_traits@D@std@@V?$allocator@D@2@@std@@U_BOT_SKILL@@@std@@@2@@std@@QAEXV?$_List_unchecked_const_iterator@V?$_List_val@U?$_List_simple_types@U?$pair@$$CBV?$basic_string@DU?$char_traits@D@std@@V?$allocator@D@2@@std@@U_BOT_SKILL@@@std@@@std@@@std@@U_Iterator_base0@2@@2@00@Z
	?_Unchecked_splice@?$list@U?$pair@$$CBV?$basic_string@DU?$char_traits@D@std@@V?$allocator@D@2@@std@@U_TEAMSIZEDEFINITIONS@@@std@@V?$allocator@U?$pair@$$CBV?$basic_string@DU?$char_traits@D@std@@V?$allocator@D@2@@std@@U_TEAMSIZEDEFINITIONS@@@std@@@2@@std@@QAEXV?$_List_unchecked_const_iterator@V?$_List_val@U?$_List_simple_types@U?$pair@$$CBV?$basic_string@DU?$char_traits@D@std@@V?$allocator@D@2@@std@@U_TEAMSIZEDEFINITIONS@@@std@@@std@@@std@@U_Iterator_base0@2@@2@00@Z
	?_Unlinknode@?$list@U?$pair@$$CBHU_BUILDABLE_STRUCTURE@@@std@@V?$allocator@U?$pair@$$CBHU_BUILDABLE_STRUCTURE@@@std@@@2@@std@@QAEPAU?$_List_node@U?$pair@$$CBHU_BUILDABLE_STRUCTURE@@@std@@PAX@2@V?$_List_const_iterator@V?$_List_val@U?$_List_simple_types@U?$pair@$$CBHU_BUILDABLE_STRUCTURE@@@std@@@std@@@std@@@2@@Z
	?_Unlinknode@?$list@U?$pair@$$CBHU_DROPPED_MARINE_ITEM@@@std@@V?$allocator@U?$pair@$$CBHU_DROPPED_MARINE_ITEM@@@std@@@2@@std@@QAEPAU?$_List_node@U?$pair@$$CBHU_DROPPED_MARINE_ITEM@@@std@@PAX@2@V?$_List_const_iterator@V?$_List_val@U?$_List_simple_types@U?$pair@$$CBHU_DROPPED_MARINE_ITEM@@@std@@@std@@@std@@@2@@Z
	?_Unlinknode@?$list@U?$pair@$$CBV?$basic_string@DU?$char_traits@D@std@@V?$allocator@D@2@@std@@U_BOT_SKILL@@@std@@V?$allocator@U?$pair@$$CBV?$basic_string@DU?$char_traits@D@std@@V?$allocator@D@2@@std@@U_BOT_SKILL@@@std@@@2@@std@@QAEPAU?$_List_node@U?$pair@$$CBV?$basic_string@DU?$char_traits@D@std@@V?$allocator@D@2@@std@@U_BOT_SKILL@@@std@@PAX@2@V?$_List_const_iterator@V?$_List_val@U?$_List_simple_types@U?$pair@$$CBV?$basic_string@DU?$char_traits@D@std@@V?$allocator@D@2@@std@@U_BOT_SKILL@@@std@@@std@@@std@@@2@@Z
	?_Unlinknode@?$list@U?$pair@$$CBV?$basic_string@DU?$char_traits@D@std@@V?$allocator@D@2@@std@@U_TEAMSIZEDEFINITIONS@@@std@@V?$allocator@U?$pair@$$CBV?$basic_string@DU?$char_traits@D@std@@V?$allocator@D@2@@std@@U_TEAMSIZEDEFINITIONS@@@std@@@2@@std@@QAEPAU?$_List_node@U?$pair@$$CBV?$basic_string@DU?$char_traits@D@std@@V?$allocator@D@2@@std@@U_TEAMSIZEDEFINITIONS@@@std@@PAX@2@V?$_List_const_iterator@V?$_List_val@U?$_List_simple_types@U?$pair@$$CBV?$basic_string@DU?$char_traits@D@std@@V?$allocator@D@2@@std@@U_TEAMSIZEDEFINITIONS@@@std@@@std@@@std@@@2@@Z
	?_Unlock@?$basic_filebuf@DU?$char_traits@D@std@@@std@@UAEXXZ
	?_Unwrapped@?$_List_iterator@V?$_List_val@U?$_List_simple_types@U?$pair@$$CBHU_BUILDABLE_STRUCTURE@@@std@@@std@@@std@@@std@@QBE?AV?$_List_unchecked_iterator@V?$_List_val@U?$_List_simple_types@U?$pair@$$CBHU_BUILDABLE_STRUCTURE@@@std@@@std@@@std@@@2@XZ
	?_Unwrapped@?$_List_iterator@V?$_List_val@U?$_List_simple_types@U?$pair@$$CBHU_DROPPED_MARINE_ITEM@@@std@@@std@@@std@@@std@@QBE?AV?$_List_unchecked_iterator@V?$_List_val@U?$_List_simple_types@U?$pair@$$CBHU_DROPPED_MARINE_ITEM@@@std@@@std@@@std@@@2@XZ
	?_Unwrapped@?$_List_iterator@V?$_List_val@U?$_List_simple_types@U?$pair@$$CBV?$basic_string@DU?$char_traits@D@std@@V?$allocator@D@2@@std@@U_BOT_SKILL@@@std@@@std@@@std@@@std@@QBE?AV?$_List_unchecked_iterator@V?$_List_val@U?$_List_simple_types@U?$pair@$$CBV?$basic_string@DU?$char_traits@D@std@@V?$allocator@D@2@@std@@U_BOT_SKILL@@@std@@@std@@@std@@@2@XZ
	?_Unwrapped@?$_List_iterator@V?$_List_val@U?$_List_simple_types@U?$pair@$$CBV?$basic_string@DU?$char_traits@D@std@@V?$allocator@D@2@@std@@U_TEAMSIZEDEFINITIONS@@@std@@@std@@@std@@@std@@QBE?AV?$_List_unchecked_iterator@V?$_List_val@U?$_List_simple_types@U?$pair@$$CBV?$basic_string@DU?$char_traits@D@std@@V?$allocator@D@2@@std@@U_TEAMSIZEDEFINITIONS@@@std@@@std@@@std@@@2@XZ
	?_Unwrapped@?$_String_iterator@V?$_String_val@U?$_Simple_types@D@std@@@std@@@std@@QBEPADXZ
	?_Unwrapped@?$_Vector_iterator@V?$_Vector_val@U?$_Simple_types@W4HiveTechStatus@@@std@@@std@@@std@@QBEPAW4HiveTechStatus@@XZ
	?_Vec_hi@?$_Hash@V?$_Umap_traits@HU_BUILDABLE_STRUCTURE@@V?$_Uhash_compare@HU?$hash@H@std@@U?$equal_to@H@2@@std@@V?$allocator@U?$pair@$$CBHU_BUILDABLE_STRUCTURE@@@std@@@3@$0A@@std@@@std@@IAEAAV?$_List_unchecked_iterator@V?$_List_val@U?$_List_simple_types@U?$pair@$$CBHU_BUILDABLE_STRUCTURE@@@std@@@std@@@std@@@2@I@Z
	?_Vec_hi@?$_Hash@V?$_Umap_traits@HU_DROPPED_MARINE_ITEM@@V?$_Uhash_compare@HU?$hash@H@std@@U?$equal_to@H@2@@std@@V?$allocator@U?$pair@$$CBHU_DROPPED_MARINE_ITEM@@@std@@@3@$0A@@std@@@std@@IAEAAV?$_List_unchecked_iterator@V?$_List_val@U?$_List_simple_types@U?$pair@$$CBHU_DROPPED_MARINE_ITEM@@@std@@@std@@@std@@@2@I@Z
	?_Vec_hi@?$_Hash@V?$_Umap_traits@V?$basic_string@DU?$char_traits@D@std@@V?$allocator@D@2@@std@@U_BOT_SKILL@@V?$_Uhash_compare@V?$basic_string@DU?$char_traits@D@std@@V?$allocator@D@2@@std@@U?$hash@V?$basic_string@DU?$char_traits@D@std@@V?$allocator@D@2@@std@@@2@U?$equal_to@V?$basic_string@DU?$char_traits@D@std@@V?$allocator@D@2@@std@@@2@@2@V?$allocator@U?$pair@$$CBV?$basic_string@DU?$char_traits@D@std@@V?$allocator@D@2@@std@@U_BOT_SKILL@@@std@@@2@$0A@@std@@@std@@IAEAAV?$_List_unchecked_iterator@V?$_List_val@U?$_List_simple_types@U?$pair@$$CBV?$basic_string@DU?$char_traits@D@std@@V?$allocator@D@2@@std@@U_BOT_SKILL@@@std@@@std@@@std@@@2@I@Z
	?_Vec_hi@?$_Hash@V?$_Umap_traits@V?$basic_string@DU?$char_traits@D@std@@V?$allocator@D@2@@std@@U_TEAMSIZEDEFINITIONS@@V?$_Uhash_compare@V?$basic_string@DU?$char_traits@D@std@@V?$allocator@D@2@@std@@U?$hash@V?$basic_string@DU?$char_traits@D@std@@V?$allocator@D@2@@std@@@2@U?$equal_to@V?$basic_string@DU?$char_traits@D@std@@V?$allocator@D@2@@std@@@2@@2@V?$allocator@U?$pair@$$CBV?$basic_string@DU?$char_traits@D@std@@V?$allocator@D@2@@std@@U_TEAMSIZEDEFINITIONS@@@std@@@2@$0A@@std@@@std@@IAEAAV?$_List_unchecked_iterator@V?$_List_val@U?$_List_simple_types@U?$pair@$$CBV?$basic_string@DU?$char_traits@D@std@@V?$allocator@D@2@@std@@U_TEAMSIZEDEFINITIONS@@@std@@@std@@@std@@@2@I@Z
	?_Vec_lo@?$_Hash@V?$_Umap_traits@HU_BUILDABLE_STRUCTURE@@V?$_Uhash_compare@HU?$hash@H@std@@U?$equal_to@H@2@@std@@V?$allocator@U?$pair@$$CBHU_BUILDABLE_STRUCTURE@@@std@@@3@$0A@@std@@@std@@IAEAAV?$_List_unchecked_iterator@V?$_List_val@U?$_List_simple_types@U?$pair@$$CBHU_BUILDABLE_STRUCTURE@@@std@@@std@@@std@@@2@I@Z
	?_Vec_lo@?$_Hash@V?$_Umap_traits@HU_DROPPED_MARINE_ITEM@@V?$_Uhash_compare@HU?$hash@H@std@@U?$equal_to@H@2@@std@@V?$allocator@U?$pair@$$CBHU_DROPPED_MARINE_ITEM@@@std@@@3@$0A@@std@@@std@@IAEAAV?$_List_unchecked_iterator@V?$_List_val@U?$_List_simple_types@U?$pair@$$CBHU_DROPPED_MARINE_ITEM@@@std@@@std@@@std@@@2@I@Z
	?_Vec_lo@?$_Hash@V?$_Umap_traits@V?$basic_string@DU?$char_traits@D@std@@V?$allocator@D@2@@std@@U_BOT_SKILL@@V?$_Uhash_compare@V?$basic_string@DU?$char_traits@D@std@@V?$allocator@D@2@@std@@U?$hash@V?$basic_string@DU?$char_traits@D@std@@V?$allocator@D@2@@std@@@2@U?$equal_to@V?$basic_string@DU?$char_traits@D@std@@V?$allocator@D@2@@std@@@2@@2@V?$allocator@U?$pair@$$CBV?$basic_string@DU?$char_traits@D@std@@V?$allocator@D@2@@std@@U_BOT_SKILL@@@std@@@2@$0A@@std@@@std@@IAEAAV?$_List_unchecked_iterator@V?$_List_val@U?$_List_simple_types@U?$pair@$$CBV?$basic_string@DU?$char_traits@D@std@@V?$allocator@D@2@@std@@U_BOT_SKILL@@@std@@@std@@@std@@@2@I@Z
	?_Vec_lo@?$_Hash@V?$_Umap_traits@V?$basic_string@DU?$char_traits@D@std@@V?$allocator@D@2@@std@@U_TEAMSIZEDEFINITIONS@@V?$_Uhash_compare@V?$basic_string@DU?$char_traits@D@std@@V?$allocator@D@2@@std@@U?$hash@V?$basic_string@DU?$char_traits@D@std@@V?$allocator@D@2@@std@@@2@U?$equal_to@V?$basic_string@DU?$char_traits@D@std@@V?$allocator@D@2@@std@@@2@@2@V?$allocator@U?$pair@$$CBV?$basic_string@DU?$char_traits@D@std@@V?$allocator@D@2@@std@@U_TEAMSIZEDEFINITIONS@@@std@@@2@$0A@@std@@@std@@IAEAAV?$_List_unchecked_iterator@V?$_List_val@U?$_List_simple_types@U?$pair@$$CBV?$basic_string@DU?$char_traits@D@std@@V?$allocator@D@2@@std@@U_TEAMSIZEDEFINITIONS@@@std@@@std@@@std@@@2@I@Z
	?_Verify_offset@?$_String_const_iterator@V?$_String_val@U?$_Simple_types@D@std@@@std@@@std@@QBEXH@Z
	?_Verify_range@std@@YAXABV?$_String_const_iterator@V?$_String_val@U?$_Simple_types@D@std@@@std@@@1@0@Z
	?_Verify_range@std@@YAXABV?$_Vector_const_iterator@V?$_Vector_val@U?$_Simple_types@W4HiveTechStatus@@@std@@@std@@@1@0@Z
	?_Xlen@?$basic_string@DU?$char_traits@D@std@@V?$allocator@D@2@@std@@SAXXZ
	?_Xlength@?$vector@V?$_List_unchecked_iterator@V?$_List_val@U?$_List_simple_types@U?$pair@$$CBHU_BUILDABLE_STRUCTURE@@@std@@@std@@@std@@@std@@V?$allocator@V?$_List_unchecked_iterator@V?$_List_val@U?$_List_simple_types@U?$pair@$$CBHU_BUILDABLE_STRUCTURE@@@std@@@std@@@std@@@std@@@2@@std@@CAXXZ
	?_Xlength@?$vector@V?$_List_unchecked_iterator@V?$_List_val@U?$_List_simple_types@U?$pair@$$CBHU_DROPPED_MARINE_ITEM@@@std@@@std@@@std@@@std@@V?$allocator@V?$_List_unchecked_iterator@V?$_List_val@U?$_List_simple_types@U?$pair@$$CBHU_DROPPED_MARINE_ITEM@@@std@@@std@@@std@@@std@@@2@@std@@CAXXZ
	?_Xlength@?$vector@V?$_List_unchecked_iterator@V?$_List_val@U?$_List_simple_types@U?$pair@$$CBV?$basic_string@DU?$char_traits@D@std@@V?$allocator@D@2@@std@@U_BOT_SKILL@@@std@@@std@@@std@@@std@@V?$allocator@V?$_List_unchecked_iterator@V?$_List_val@U?$_List_simple_types@U?$pair@$$CBV?$basic_string@DU?$char_traits@D@std@@V?$allocator@D@2@@std@@U_BOT_SKILL@@@std@@@std@@@std@@@std@@@2@@std@@CAXXZ
	?_Xlength@?$vector@V?$_List_unchecked_iterator@V?$_List_val@U?$_List_simple_types@U?$pair@$$CBV?$basic_string@DU?$char_traits@D@std@@V?$allocator@D@2@@std@@U_TEAMSIZEDEFINITIONS@@@std@@@std@@@std@@@std@@V?$allocator@V?$_List_unchecked_iterator@V?$_List_val@U?$_List_simple_types@U?$pair@$$CBV?$basic_string@DU?$char_traits@D@std@@V?$allocator@D@2@@std@@U_TEAMSIZEDEFINITIONS@@@std@@@std@@@std@@@std@@@2@@std@@CAXXZ
	?_Xlength@?$vector@W4HiveTechStatus@@V?$allocator@W4HiveTechStatus@@@std@@@std@@CAXXZ
	?_Xran@?$_String_val@U?$_Simple_types@D@std@@@std@@SAXXZ
	?__empty_global_delete@@YAXPAX@Z
	?__empty_global_delete@@YAXPAXI@Z
	?_close@?$basic_filebuf@DU?$char_traits@D@std@@@std@@QAEPAV12@XZ
	?_open@?$basic_filebuf@DU?$char_traits@D@std@@@std@@QAEPAV12@PBDHH@Z
	?addExcludeFlags@dtQueryFilter@@QAEXG@Z
	?alloc@LinearAllocator@@UAEPAXI@Z
	?alloc@dtTileCacheAlloc@@UAEPAXI@Z
	?allocate@?$allocator@D@std@@QAEPADI@Z
	?allocate@?$allocator@U?$_List_node@U?$pair@$$CBHU_BUILDABLE_STRUCTURE@@@std@@PAX@std@@@std@@QAEPAU?$_List_node@U?$pair@$$CBHU_BUILDABLE_STRUCTURE@@@std@@PAX@2@I@Z
	?allocate@?$allocator@U?$_List_node@U?$pair@$$CBHU_DROPPED_MARINE_ITEM@@@std@@PAX@std@@@std@@QAEPAU?$_List_node@U?$pair@$$CBHU_DROPPED_MARINE_ITEM@@@std@@PAX@2@I@Z
	?allocate@?$allocator@U?$_List_node@U?$pair@$$CBV?$basic_string@DU?$char_traits@D@std@@V?$allocator@D@2@@std@@U_BOT_SKILL@@@std@@PAX@std@@@std@@QAEPAU?$_List_node@U?$pair@$$CBV?$basic_string@DU?$char_traits@D@std@@V?$allocator@D@2@@std@@U_BOT_SKILL@@@std@@PAX@2@I@Z
	?allocate@?$allocator@U?$_List_node@U?$pair@$$CBV?$basic_string@DU?$char_traits@D@std@@V?$allocator@D@2@@std@@U_TEAMSIZEDEFINITIONS@@@std@@PAX@std@@@std@@QAEPAU?$_List_node@U?$pair@$$CBV?$basic_string@DU?$char_traits@D@std@@V?$allocator@D@2@@std@@U_TEAMSIZEDEFINITIONS@@@std@@PAX@2@I@Z
	?allocate@?$allocator@U_Container_proxy@std@@@std@@QAEPAU_Container_proxy@2@I@Z
	?allocate@?$allocator@V?$_List_unchecked_iterator@V?$_List_val@U?$_List_simple_types@U?$pair@$$CBHU_BUILDABLE_STRUCTURE@@@std@@@std@@@std@@@std@@@std@@QAEPAV?$_List_unchecked_iterator@V?$_List_val@U?$_List_simple_types@U?$pair@$$CBHU_BUILDABLE_STRUCTURE@@@std@@@std@@@std@@@2@I@Z
	?allocate@?$allocator@V?$_List_unchecked_iterator@V?$_List_val@U?$_List_simple_types@U?$pair@$$CBHU_DROPPED_MARINE_ITEM@@@std@@@std@@@std@@@std@@@std@@QAEPAV?$_List_unchecked_iterator@V?$_List_val@U?$_List_simple_types@U?$pair@$$CBHU_DROPPED_MARINE_ITEM@@@std@@@std@@@std@@@2@I@Z
	?allocate@?$allocator@V?$_List_unchecked_iterator@V?$_List_val@U?$_List_simple_types@U?$pair@$$CBV?$basic_string@DU?$char_traits@D@std@@V?$allocator@D@2@@std@@U_BOT_SKILL@@@std@@@std@@@std@@@std@@@std@@QAEPAV?$_List_unchecked_iterator@V?$_List_val@U?$_List_simple_types@U?$pair@$$CBV?$basic_string@DU?$char_traits@D@std@@V?$allocator@D@2@@std@@U_BOT_SKILL@@@std@@@std@@@std@@@2@I@Z
	?allocate@?$allocator@V?$_List_unchecked_iterator@V?$_List_val@U?$_List_simple_types@U?$pair@$$CBV?$basic_string@DU?$char_traits@D@std@@V?$allocator@D@2@@std@@U_TEAMSIZEDEFINITIONS@@@std@@@std@@@std@@@std@@@std@@QAEPAV?$_List_unchecked_iterator@V?$_List_val@U?$_List_simple_types@U?$pair@$$CBV?$basic_string@DU?$char_traits@D@std@@V?$allocator@D@2@@std@@U_TEAMSIZEDEFINITIONS@@@std@@@std@@@std@@@2@I@Z
	?allocate@?$allocator@W4HiveTechStatus@@@std@@QAEPAW4HiveTechStatus@@I@Z
	?assign@?$basic_string@DU?$char_traits@D@std@@V?$allocator@D@2@@std@@QAEAAV12@ABV12@II@Z
	?assign@?$basic_string@DU?$char_traits@D@std@@V?$allocator@D@2@@std@@QAEAAV12@QBD@Z
	?assign@?$basic_string@DU?$char_traits@D@std@@V?$allocator@D@2@@std@@QAEAAV12@QBDI@Z
	?assign@?$char_traits@D@std@@SAXAADABD@Z
	?assign@?$vector@V?$_List_unchecked_iterator@V?$_List_val@U?$_List_simple_types@U?$pair@$$CBHU_BUILDABLE_STRUCTURE@@@std@@@std@@@std@@@std@@V?$allocator@V?$_List_unchecked_iterator@V?$_List_val@U?$_List_simple_types@U?$pair@$$CBHU_BUILDABLE_STRUCTURE@@@std@@@std@@@std@@@std@@@2@@std@@QAEXIABV?$_List_unchecked_iterator@V?$_List_val@U?$_List_simple_types@U?$pair@$$CBHU_BUILDABLE_STRUCTURE@@@std@@@std@@@std@@@2@@Z
	?assign@?$vector@V?$_List_unchecked_iterator@V?$_List_val@U?$_List_simple_types@U?$pair@$$CBHU_DROPPED_MARINE_ITEM@@@std@@@std@@@std@@@std@@V?$allocator@V?$_List_unchecked_iterator@V?$_List_val@U?$_List_simple_types@U?$pair@$$CBHU_DROPPED_MARINE_ITEM@@@std@@@std@@@std@@@std@@@2@@std@@QAEXIABV?$_List_unchecked_iterator@V?$_List_val@U?$_List_simple_types@U?$pair@$$CBHU_DROPPED_MARINE_ITEM@@@std@@@std@@@std@@@2@@Z
	?assign@?$vector@V?$_List_unchecked_iterator@V?$_List_val@U?$_List_simple_types@U?$pair@$$CBV?$basic_string@DU?$char_traits@D@std@@V?$allocator@D@2@@std@@U_BOT_SKILL@@@std@@@std@@@std@@@std@@V?$allocator@V?$_List_unchecked_iterator@V?$_List_val@U?$_List_simple_types@U?$pair@$$CBV?$basic_string@DU?$char_traits@D@std@@V?$allocator@D@2@@std@@U_BOT_SKILL@@@std@@@std@@@std@@@std@@@2@@std@@QAEXIABV?$_List_unchecked_iterator@V?$_List_val@U?$_List_simple_types@U?$pair@$$CBV?$basic_string@DU?$char_traits@D@std@@V?$allocator@D@2@@std@@U_BOT_SKILL@@@std@@@std@@@std@@@2@@Z
	?assign@?$vector@V?$_List_unchecked_iterator@V?$_List_val@U?$_List_simple_types@U?$pair@$$CBV?$basic_string@DU?$char_traits@D@std@@V?$allocator@D@2@@std@@U_TEAMSIZEDEFINITIONS@@@std@@@std@@@std@@@std@@V?$allocator@V?$_List_unchecked_iterator@V?$_List_val@U?$_List_simple_types@U?$pair@$$CBV?$basic_string@DU?$char_traits@D@std@@V?$allocator@D@2@@std@@U_TEAMSIZEDEFINITIONS@@@std@@@std@@@std@@@std@@@2@@std@@QAEXIABV?$_List_unchecked_iterator@V?$_List_val@U?$_List_simple_types@U?$pair@$$CBV?$basic_string@DU?$char_traits@D@std@@V?$allocator@D@2@@std@@U_TEAMSIZEDEFINITIONS@@@std@@@std@@@std@@@2@@Z
	?begin@?$_Hash@V?$_Umap_traits@HU_BUILDABLE_STRUCTURE@@V?$_Uhash_compare@HU?$hash@H@std@@U?$equal_to@H@2@@std@@V?$allocator@U?$pair@$$CBHU_BUILDABLE_STRUCTURE@@@std@@@3@$0A@@std@@@std@@QAE?AV?$_List_iterator@V?$_List_val@U?$_List_simple_types@U?$pair@$$CBHU_BUILDABLE_STRUCTURE@@@std@@@std@@@std@@@2@XZ
	?begin@?$_Hash@V?$_Umap_traits@HU_DROPPED_MARINE_ITEM@@V?$_Uhash_compare@HU?$hash@H@std@@U?$equal_to@H@2@@std@@V?$allocator@U?$pair@$$CBHU_DROPPED_MARINE_ITEM@@@std@@@3@$0A@@std@@@std@@QAE?AV?$_List_iterator@V?$_List_val@U?$_List_simple_types@U?$pair@$$CBHU_DROPPED_MARINE_ITEM@@@std@@@std@@@std@@@2@XZ
	?begin@?$basic_string@DU?$char_traits@D@std@@V?$allocator@D@2@@std@@QAE?AV?$_String_iterator@V?$_String_val@U?$_Simple_types@D@std@@@std@@@2@XZ
	?begin@?$initializer_list@W4HiveTechStatus@@@std@@QBEPBW4HiveTechStatus@@XZ
	?begin@?$list@U?$pair@$$CBHU_BUILDABLE_STRUCTURE@@@std@@V?$allocator@U?$pair@$$CBHU_BUILDABLE_STRUCTURE@@@std@@@2@@std@@QAE?AV?$_List_iterator@V?$_List_val@U?$_List_simple_types@U?$pair@$$CBHU_BUILDABLE_STRUCTURE@@@std@@@std@@@std@@@2@XZ
	?begin@?$list@U?$pair@$$CBHU_DROPPED_MARINE_ITEM@@@std@@V?$allocator@U?$pair@$$CBHU_DROPPED_MARINE_ITEM@@@std@@@2@@std@@QAE?AV?$_List_iterator@V?$_List_val@U?$_List_simple_types@U?$pair@$$CBHU_DROPPED_MARINE_ITEM@@@std@@@std@@@std@@@2@XZ
	?begin@?$list@U?$pair@$$CBV?$basic_string@DU?$char_traits@D@std@@V?$allocator@D@2@@std@@U_BOT_SKILL@@@std@@V?$allocator@U?$pair@$$CBV?$basic_string@DU?$char_traits@D@std@@V?$allocator@D@2@@std@@U_BOT_SKILL@@@std@@@2@@std@@QAE?AV?$_List_iterator@V?$_List_val@U?$_List_simple_types@U?$pair@$$CBV?$basic_string@DU?$char_traits@D@std@@V?$allocator@D@2@@std@@U_BOT_SKILL@@@std@@@std@@@std@@@2@XZ
	?begin@?$list@U?$pair@$$CBV?$basic_string@DU?$char_traits@D@std@@V?$allocator@D@2@@std@@U_TEAMSIZEDEFINITIONS@@@std@@V?$allocator@U?$pair@$$CBV?$basic_string@DU?$char_traits@D@std@@V?$allocator@D@2@@std@@U_TEAMSIZEDEFINITIONS@@@std@@@2@@std@@QAE?AV?$_List_iterator@V?$_List_val@U?$_List_simple_types@U?$pair@$$CBV?$basic_string@DU?$char_traits@D@std@@V?$allocator@D@2@@std@@U_TEAMSIZEDEFINITIONS@@@std@@@std@@@std@@@2@XZ
	?begin@?$vector@W4HiveTechStatus@@V?$allocator@W4HiveTechStatus@@@std@@@std@@QAE?AV?$_Vector_iterator@V?$_Vector_val@U?$_Simple_types@W4HiveTechStatus@@@std@@@std@@@2@XZ
	?bucket_count@?$_Hash@V?$_Umap_traits@HU_BUILDABLE_STRUCTURE@@V?$_Uhash_compare@HU?$hash@H@std@@U?$equal_to@H@2@@std@@V?$allocator@U?$pair@$$CBHU_BUILDABLE_STRUCTURE@@@std@@@3@$0A@@std@@@std@@QBEIXZ
	?bucket_count@?$_Hash@V?$_Umap_traits@HU_DROPPED_MARINE_ITEM@@V?$_Uhash_compare@HU?$hash@H@std@@U?$equal_to@H@2@@std@@V?$allocator@U?$pair@$$CBHU_DROPPED_MARINE_ITEM@@@std@@@3@$0A@@std@@@std@@QBEIXZ
	?bucket_count@?$_Hash@V?$_Umap_traits@V?$basic_string@DU?$char_traits@D@std@@V?$allocator@D@2@@std@@U_BOT_SKILL@@V?$_Uhash_compare@V?$basic_string@DU?$char_traits@D@std@@V?$allocator@D@2@@std@@U?$hash@V?$basic_string@DU?$char_traits@D@std@@V?$allocator@D@2@@std@@@2@U?$equal_to@V?$basic_string@DU?$char_traits@D@std@@V?$allocator@D@2@@std@@@2@@2@V?$allocator@U?$pair@$$CBV?$basic_string@DU?$char_traits@D@std@@V?$allocator@D@2@@std@@U_BOT_SKILL@@@std@@@2@$0A@@std@@@std@@QBEIXZ
	?bucket_count@?$_Hash@V?$_Umap_traits@V?$basic_string@DU?$char_traits@D@std@@V?$allocator@D@2@@std@@U_TEAMSIZEDEFINITIONS@@V?$_Uhash_compare@V?$basic_string@DU?$char_traits@D@std@@V?$allocator@D@2@@std@@U?$hash@V?$basic_string@DU?$char_traits@D@std@@V?$allocator@D@2@@std@@@2@U?$equal_to@V?$basic_string@DU?$char_traits@D@std@@V?$allocator@D@2@@std@@@2@@2@V?$allocator@U?$pair@$$CBV?$basic_string@DU?$char_traits@D@std@@V?$allocator@D@2@@std@@U_TEAMSIZEDEFINITIONS@@@std@@@2@$0A@@std@@@std@@QBEIXZ
	?c_str@?$basic_string@DU?$char_traits@D@std@@V?$allocator@D@2@@std@@QBEPBDXZ
	?capacity@?$vector@V?$_List_unchecked_iterator@V?$_List_val@U?$_List_simple_types@U?$pair@$$CBHU_BUILDABLE_STRUCTURE@@@std@@@std@@@std@@@std@@V?$allocator@V?$_List_unchecked_iterator@V?$_List_val@U?$_List_simple_types@U?$pair@$$CBHU_BUILDABLE_STRUCTURE@@@std@@@std@@@std@@@std@@@2@@std@@QBEIXZ
	?capacity@?$vector@V?$_List_unchecked_iterator@V?$_List_val@U?$_List_simple_types@U?$pair@$$CBHU_DROPPED_MARINE_ITEM@@@std@@@std@@@std@@@std@@V?$allocator@V?$_List_unchecked_iterator@V?$_List_val@U?$_List_simple_types@U?$pair@$$CBHU_DROPPED_MARINE_ITEM@@@std@@@std@@@std@@@std@@@2@@std@@QBEIXZ
	?capacity@?$vector@V?$_List_unchecked_iterator@V?$_List_val@U?$_List_simple_types@U?$pair@$$CBV?$basic_string@DU?$char_traits@D@std@@V?$allocator@D@2@@std@@U_BOT_SKILL@@@std@@@std@@@std@@@std@@V?$allocator@V?$_List_unchecked_iterator@V?$_List_val@U?$_List_simple_types@U?$pair@$$CBV?$basic_string@DU?$char_traits@D@std@@V?$allocator@D@2@@std@@U_BOT_SKILL@@@std@@@std@@@std@@@std@@@2@@std@@QBEIXZ
	?capacity@?$vector@V?$_List_unchecked_iterator@V?$_List_val@U?$_List_simple_types@U?$pair@$$CBV?$basic_string@DU?$char_traits@D@std@@V?$allocator@D@2@@std@@U_TEAMSIZEDEFINITIONS@@@std@@@std@@@std@@@std@@V?$allocator@V?$_List_unchecked_iterator@V?$_List_val@U?$_List_simple_types@U?$pair@$$CBV?$basic_string@DU?$char_traits@D@std@@V?$allocator@D@2@@std@@U_TEAMSIZEDEFINITIONS@@@std@@@std@@@std@@@std@@@2@@std@@QBEIXZ
	?capacity@?$vector@W4HiveTechStatus@@V?$allocator@W4HiveTechStatus@@@std@@@std@@QBEIXZ
	?ceil@@YAMM@Z
	?clampf@@YAMMMM@Z
	?clampi@@YAMHHH@Z
	?clear@?$_Hash@V?$_Umap_traits@HU_BUILDABLE_STRUCTURE@@V?$_Uhash_compare@HU?$hash@H@std@@U?$equal_to@H@2@@std@@V?$allocator@U?$pair@$$CBHU_BUILDABLE_STRUCTURE@@@std@@@3@$0A@@std@@@std@@QAEXXZ
	?clear@?$_Hash@V?$_Umap_traits@HU_DROPPED_MARINE_ITEM@@V?$_Uhash_compare@HU?$hash@H@std@@U?$equal_to@H@2@@std@@V?$allocator@U?$pair@$$CBHU_DROPPED_MARINE_ITEM@@@std@@@3@$0A@@std@@@std@@QAEXXZ
	?clear@?$_Hash@V?$_Umap_traits@V?$basic_string@DU?$char_traits@D@std@@V?$allocator@D@2@@std@@U_BOT_SKILL@@V?$_Uhash_compare@V?$basic_string@DU?$char_traits@D@std@@V?$allocator@D@2@@std@@U?$hash@V?$basic_string@DU?$char_traits@D@std@@V?$allocator@D@2@@std@@@2@U?$equal_to@V?$basic_string@DU?$char_traits@D@std@@V?$allocator@D@2@@std@@@2@@2@V?$allocator@U?$pair@$$CBV?$basic_string@DU?$char_traits@D@std@@V?$allocator@D@2@@std@@U_BOT_SKILL@@@std@@@2@$0A@@std@@@std@@QAEXXZ
	?clear@?$_Hash@V?$_Umap_traits@V?$basic_string@DU?$char_traits@D@std@@V?$allocator@D@2@@std@@U_TEAMSIZEDEFINITIONS@@V?$_Uhash_compare@V?$basic_string@DU?$char_traits@D@std@@V?$allocator@D@2@@std@@U?$hash@V?$basic_string@DU?$char_traits@D@std@@V?$allocator@D@2@@std@@@2@U?$equal_to@V?$basic_string@DU?$char_traits@D@std@@V?$allocator@D@2@@std@@@2@@2@V?$allocator@U?$pair@$$CBV?$basic_string@DU?$char_traits@D@std@@V?$allocator@D@2@@std@@U_TEAMSIZEDEFINITIONS@@@std@@@2@$0A@@std@@@std@@QAEXXZ
	?clear@?$list@U?$pair@$$CBHU_BUILDABLE_STRUCTURE@@@std@@V?$allocator@U?$pair@$$CBHU_BUILDABLE_STRUCTURE@@@std@@@2@@std@@QAEXXZ
	?clear@?$list@U?$pair@$$CBHU_DROPPED_MARINE_ITEM@@@std@@V?$allocator@U?$pair@$$CBHU_DROPPED_MARINE_ITEM@@@std@@@2@@std@@QAEXXZ
	?clear@?$list@U?$pair@$$CBV?$basic_string@DU?$char_traits@D@std@@V?$allocator@D@2@@std@@U_BOT_SKILL@@@std@@V?$allocator@U?$pair@$$CBV?$basic_string@DU?$char_traits@D@std@@V?$allocator@D@2@@std@@U_BOT_SKILL@@@std@@@2@@std@@QAEXXZ
	?clear@?$list@U?$pair@$$CBV?$basic_string@DU?$char_traits@D@std@@V?$allocator@D@2@@std@@U_TEAMSIZEDEFINITIONS@@@std@@V?$allocator@U?$pair@$$CBV?$basic_string@DU?$char_traits@D@std@@V?$allocator@D@2@@std@@U_TEAMSIZEDEFINITIONS@@@std@@@2@@std@@QAEXXZ
	?compare@?$basic_string@DU?$char_traits@D@std@@V?$allocator@D@2@@std@@QBEHQBD@Z
	?compare@?$char_traits@D@std@@SAHQBD0I@Z
	?compress@FastLZCompressor@@UAEIPBEHPAEHPAH@Z
	?copy@?$char_traits@D@std@@SAPADQADQBDI@Z
	?cos@@YAMM@Z
	?data@?$basic_string@DU?$char_traits@D@std@@V?$allocator@D@2@@std@@QBEPBDXZ
	?deallocate@?$_Default_allocator_traits@V?$allocator@U?$_List_node@U?$pair@$$CBHU_BUILDABLE_STRUCTURE@@@std@@PAX@std@@@std@@@std@@SAXAAV?$allocator@U?$_List_node@U?$pair@$$CBHU_BUILDABLE_STRUCTURE@@@std@@PAX@std@@@2@QAU?$_List_node@U?$pair@$$CBHU_BUILDABLE_STRUCTURE@@@std@@PAX@2@I@Z
	?deallocate@?$_Default_allocator_traits@V?$allocator@U?$_List_node@U?$pair@$$CBHU_DROPPED_MARINE_ITEM@@@std@@PAX@std@@@std@@@std@@SAXAAV?$allocator@U?$_List_node@U?$pair@$$CBHU_DROPPED_MARINE_ITEM@@@std@@PAX@std@@@2@QAU?$_List_node@U?$pair@$$CBHU_DROPPED_MARINE_ITEM@@@std@@PAX@2@I@Z
	?deallocate@?$_Default_allocator_traits@V?$allocator@U?$_List_node@U?$pair@$$CBV?$basic_string@DU?$char_traits@D@std@@V?$allocator@D@2@@std@@U_BOT_SKILL@@@std@@PAX@std@@@std@@@std@@SAXAAV?$allocator@U?$_List_node@U?$pair@$$CBV?$basic_string@DU?$char_traits@D@std@@V?$allocator@D@2@@std@@U_BOT_SKILL@@@std@@PAX@std@@@2@QAU?$_List_node@U?$pair@$$CBV?$basic_string@DU?$char_traits@D@std@@V?$allocator@D@2@@std@@U_BOT_SKILL@@@std@@PAX@2@I@Z
	?deallocate@?$_Default_allocator_traits@V?$allocator@U?$_List_node@U?$pair@$$CBV?$basic_string@DU?$char_traits@D@std@@V?$allocator@D@2@@std@@U_TEAMSIZEDEFINITIONS@@@std@@PAX@std@@@std@@@std@@SAXAAV?$allocator@U?$_List_node@U?$pair@$$CBV?$basic_string@DU?$char_traits@D@std@@V?$allocator@D@2@@std@@U_TEAMSIZEDEFINITIONS@@@std@@PAX@std@@@2@QAU?$_List_node@U?$pair@$$CBV?$basic_string@DU?$char_traits@D@std@@V?$allocator@D@2@@std@@U_TEAMSIZEDEFINITIONS@@@std@@PAX@2@I@Z
	?deallocate@?$_Default_allocator_traits@V?$allocator@U_Container_proxy@std@@@std@@@std@@SAXAAV?$allocator@U_Container_proxy@std@@@2@QAU_Container_proxy@2@I@Z
	?deallocate@?$allocator@D@std@@QAEXQADI@Z
	?deallocate@?$allocator@U?$_List_node@U?$pair@$$CBHU_BUILDABLE_STRUCTURE@@@std@@PAX@std@@@std@@QAEXQAU?$_List_node@U?$pair@$$CBHU_BUILDABLE_STRUCTURE@@@std@@PAX@2@I@Z
	?deallocate@?$allocator@U?$_List_node@U?$pair@$$CBHU_DROPPED_MARINE_ITEM@@@std@@PAX@std@@@std@@QAEXQAU?$_List_node@U?$pair@$$CBHU_DROPPED_MARINE_ITEM@@@std@@PAX@2@I@Z
	?deallocate@?$allocator@U?$_List_node@U?$pair@$$CBV?$basic_string@DU?$char_traits@D@std@@V?$allocator@D@2@@std@@U_BOT_SKILL@@@std@@PAX@std@@@std@@QAEXQAU?$_List_node@U?$pair@$$CBV?$basic_string@DU?$char_traits@D@std@@V?$allocator@D@2@@std@@U_BOT_SKILL@@@std@@PAX@2@I@Z
	?deallocate@?$allocator@U?$_List_node@U?$pair@$$CBV?$basic_string@DU?$char_traits@D@std@@V?$allocator@D@2@@std@@U_TEAMSIZEDEFINITIONS@@@std@@PAX@std@@@std@@QAEXQAU?$_List_node@U?$pair@$$CBV?$basic_string@DU?$char_traits@D@std@@V?$allocator@D@2@@std@@U_TEAMSIZEDEFINITIONS@@@std@@PAX@2@I@Z
	?deallocate@?$allocator@V?$_List_unchecked_iterator@V?$_List_val@U?$_List_simple_types@U?$pair@$$CBHU_BUILDABLE_STRUCTURE@@@std@@@std@@@std@@@std@@@std@@QAEXQAV?$_List_unchecked_iterator@V?$_List_val@U?$_List_simple_types@U?$pair@$$CBHU_BUILDABLE_STRUCTURE@@@std@@@std@@@std@@@2@I@Z
	?deallocate@?$allocator@V?$_List_unchecked_iterator@V?$_List_val@U?$_List_simple_types@U?$pair@$$CBHU_DROPPED_MARINE_ITEM@@@std@@@std@@@std@@@std@@@std@@QAEXQAV?$_List_unchecked_iterator@V?$_List_val@U?$_List_simple_types@U?$pair@$$CBHU_DROPPED_MARINE_ITEM@@@std@@@std@@@std@@@2@I@Z
	?deallocate@?$allocator@V?$_List_unchecked_iterator@V?$_List_val@U?$_List_simple_types@U?$pair@$$CBV?$basic_string@DU?$char_traits@D@std@@V?$allocator@D@2@@std@@U_BOT_SKILL@@@std@@@std@@@std@@@std@@@std@@QAEXQAV?$_List_unchecked_iterator@V?$_List_val@U?$_List_simple_types@U?$pair@$$CBV?$basic_string@DU?$char_traits@D@std@@V?$allocator@D@2@@std@@U_BOT_SKILL@@@std@@@std@@@std@@@2@I@Z
	?deallocate@?$allocator@V?$_List_unchecked_iterator@V?$_List_val@U?$_List_simple_types@U?$pair@$$CBV?$basic_string@DU?$char_traits@D@std@@V?$allocator@D@2@@std@@U_TEAMSIZEDEFINITIONS@@@std@@@std@@@std@@@std@@@std@@QAEXQAV?$_List_unchecked_iterator@V?$_List_val@U?$_List_simple_types@U?$pair@$$CBV?$basic_string@DU?$char_traits@D@std@@V?$allocator@D@2@@std@@U_TEAMSIZEDEFINITIONS@@@std@@@std@@@std@@@2@I@Z
	?deallocate@?$allocator@W4HiveTechStatus@@@std@@QAEXQAW4HiveTechStatus@@I@Z
	?decompress@FastLZCompressor@@UAEIPBEHPAEHPAH@Z
	?dtStatusFailed@@YA_NI@Z
	?dtStatusSucceed@@YA_NI@Z
	?dtVcopy@@YAXPAMPBM@Z
	?dtVdistSqr@@YAMPBM0@Z
	?empty@?$basic_string@DU?$char_traits@D@std@@V?$allocator@D@2@@std@@QBE_NXZ
	?end@?$_Hash@V?$_Umap_traits@HU_BUILDABLE_STRUCTURE@@V?$_Uhash_compare@HU?$hash@H@std@@U?$equal_to@H@2@@std@@V?$allocator@U?$pair@$$CBHU_BUILDABLE_STRUCTURE@@@std@@@3@$0A@@std@@@std@@QAE?AV?$_List_iterator@V?$_List_val@U?$_List_simple_types@U?$pair@$$CBHU_BUILDABLE_STRUCTURE@@@std@@@std@@@std@@@2@XZ
	?end@?$_Hash@V?$_Umap_traits@HU_DROPPED_MARINE_ITEM@@V?$_Uhash_compare@HU?$hash@H@std@@U?$equal_to@H@2@@std@@V?$allocator@U?$pair@$$CBHU_DROPPED_MARINE_ITEM@@@std@@@3@$0A@@std@@@std@@QAE?AV?$_List_iterator@V?$_List_val@U?$_List_simple_types@U?$pair@$$CBHU_DROPPED_MARINE_ITEM@@@std@@@std@@@std@@@2@XZ
	?end@?$_Hash@V?$_Umap_traits@V?$basic_string@DU?$char_traits@D@std@@V?$allocator@D@2@@std@@U_BOT_SKILL@@V?$_Uhash_compare@V?$basic_string@DU?$char_traits@D@std@@V?$allocator@D@2@@std@@U?$hash@V?$basic_string@DU?$char_traits@D@std@@V?$allocator@D@2@@std@@@2@U?$equal_to@V?$basic_string@DU?$char_traits@D@std@@V?$allocator@D@2@@std@@@2@@2@V?$allocator@U?$pair@$$CBV?$basic_string@DU?$char_traits@D@std@@V?$allocator@D@2@@std@@U_BOT_SKILL@@@std@@@2@$0A@@std@@@std@@QAE?AV?$_List_iterator@V?$_List_val@U?$_List_simple_types@U?$pair@$$CBV?$basic_string@DU?$char_traits@D@std@@V?$allocator@D@2@@std@@U_BOT_SKILL@@@std@@@std@@@std@@@2@XZ
	?end@?$_Hash@V?$_Umap_traits@V?$basic_string@DU?$char_traits@D@std@@V?$allocator@D@2@@std@@U_TEAMSIZEDEFINITIONS@@V?$_Uhash_compare@V?$basic_string@DU?$char_traits@D@std@@V?$allocator@D@2@@std@@U?$hash@V?$basic_string@DU?$char_traits@D@std@@V?$allocator@D@2@@std@@@2@U?$equal_to@V?$basic_string@DU?$char_traits@D@std@@V?$allocator@D@2@@std@@@2@@2@V?$allocator@U?$pair@$$CBV?$basic_string@DU?$char_traits@D@std@@V?$allocator@D@2@@std@@U_TEAMSIZEDEFINITIONS@@@std@@@2@$0A@@std@@@std@@QAE?AV?$_List_iterator@V?$_List_val@U?$_List_simple_types@U?$pair@$$CBV?$basic_string@DU?$char_traits@D@std@@V?$allocator@D@2@@std@@U_TEAMSIZEDEFINITIONS@@@std@@@std@@@std@@@2@XZ
	?end@?$basic_string@DU?$char_traits@D@std@@V?$allocator@D@2@@std@@QAE?AV?$_String_iterator@V?$_String_val@U?$_Simple_types@D@std@@@std@@@2@XZ
	?end@?$initializer_list@W4HiveTechStatus@@@std@@QBEPBW4HiveTechStatus@@XZ
	?end@?$list@U?$pair@$$CBHU_BUILDABLE_STRUCTURE@@@std@@V?$allocator@U?$pair@$$CBHU_BUILDABLE_STRUCTURE@@@std@@@2@@std@@QAE?AV?$_List_iterator@V?$_List_val@U?$_List_simple_types@U?$pair@$$CBHU_BUILDABLE_STRUCTURE@@@std@@@std@@@std@@@2@XZ
	?end@?$list@U?$pair@$$CBHU_DROPPED_MARINE_ITEM@@@std@@V?$allocator@U?$pair@$$CBHU_DROPPED_MARINE_ITEM@@@std@@@2@@std@@QAE?AV?$_List_iterator@V?$_List_val@U?$_List_simple_types@U?$pair@$$CBHU_DROPPED_MARINE_ITEM@@@std@@@std@@@std@@@2@XZ
	?end@?$list@U?$pair@$$CBV?$basic_string@DU?$char_traits@D@std@@V?$allocator@D@2@@std@@U_BOT_SKILL@@@std@@V?$allocator@U?$pair@$$CBV?$basic_string@DU?$char_traits@D@std@@V?$allocator@D@2@@std@@U_BOT_SKILL@@@std@@@2@@std@@QAE?AV?$_List_iterator@V?$_List_val@U?$_List_simple_types@U?$pair@$$CBV?$basic_string@DU?$char_traits@D@std@@V?$allocator@D@2@@std@@U_BOT_SKILL@@@std@@@std@@@std@@@2@XZ
	?end@?$list@U?$pair@$$CBV?$basic_string@DU?$char_traits@D@std@@V?$allocator@D@2@@std@@U_TEAMSIZEDEFINITIONS@@@std@@V?$allocator@U?$pair@$$CBV?$basic_string@DU?$char_traits@D@std@@V?$allocator@D@2@@std@@U_TEAMSIZEDEFINITIONS@@@std@@@2@@std@@QAE?AV?$_List_iterator@V?$_List_val@U?$_List_simple_types@U?$pair@$$CBV?$basic_string@DU?$char_traits@D@std@@V?$allocator@D@2@@std@@U_TEAMSIZEDEFINITIONS@@@std@@@std@@@std@@@2@XZ
	?end@?$vector@W4HiveTechStatus@@V?$allocator@W4HiveTechStatus@@@std@@@std@@QAE?AV?$_Vector_iterator@V?$_Vector_val@U?$_Simple_types@W4HiveTechStatus@@@std@@@std@@@2@XZ
	?eof@?$char_traits@D@std@@SAHXZ
	?eq@?$char_traits@D@std@@SA_NABD0@Z
	?eq_int_type@?$char_traits@D@std@@SA_NABH0@Z
	?erase@?$_Hash@V?$_Umap_traits@HU_BUILDABLE_STRUCTURE@@V?$_Uhash_compare@HU?$hash@H@std@@U?$equal_to@H@2@@std@@V?$allocator@U?$pair@$$CBHU_BUILDABLE_STRUCTURE@@@std@@@3@$0A@@std@@@std@@QAE?AV?$_List_iterator@V?$_List_val@U?$_List_simple_types@U?$pair@$$CBHU_BUILDABLE_STRUCTURE@@@std@@@std@@@std@@@2@V?$_List_const_iterator@V?$_List_val@U?$_List_simple_types@U?$pair@$$CBHU_BUILDABLE_STRUCTURE@@@std@@@std@@@std@@@2@@Z
	?erase@?$_Hash@V?$_Umap_traits@HU_DROPPED_MARINE_ITEM@@V?$_Uhash_compare@HU?$hash@H@std@@U?$equal_to@H@2@@std@@V?$allocator@U?$pair@$$CBHU_DROPPED_MARINE_ITEM@@@std@@@3@$0A@@std@@@std@@QAE?AV?$_List_iterator@V?$_List_val@U?$_List_simple_types@U?$pair@$$CBHU_DROPPED_MARINE_ITEM@@@std@@@std@@@std@@@2@V?$_List_const_iterator@V?$_List_val@U?$_List_simple_types@U?$pair@$$CBHU_DROPPED_MARINE_ITEM@@@std@@@std@@@std@@@2@@Z
	?erase@?$_Hash@V?$_Umap_traits@V?$basic_string@DU?$char_traits@D@std@@V?$allocator@D@2@@std@@U_BOT_SKILL@@V?$_Uhash_compare@V?$basic_string@DU?$char_traits@D@std@@V?$allocator@D@2@@std@@U?$hash@V?$basic_string@DU?$char_traits@D@std@@V?$allocator@D@2@@std@@@2@U?$equal_to@V?$basic_string@DU?$char_traits@D@std@@V?$allocator@D@2@@std@@@2@@2@V?$allocator@U?$pair@$$CBV?$basic_string@DU?$char_traits@D@std@@V?$allocator@D@2@@std@@U_BOT_SKILL@@@std@@@2@$0A@@std@@@std@@QAE?AV?$_List_iterator@V?$_List_val@U?$_List_simple_types@U?$pair@$$CBV?$basic_string@DU?$char_traits@D@std@@V?$allocator@D@2@@std@@U_BOT_SKILL@@@std@@@std@@@std@@@2@V?$_List_const_iterator@V?$_List_val@U?$_List_simple_types@U?$pair@$$CBV?$basic_string@DU?$char_traits@D@std@@V?$allocator@D@2@@std@@U_BOT_SKILL@@@std@@@std@@@std@@@2@@Z
	?erase@?$_Hash@V?$_Umap_traits@V?$basic_string@DU?$char_traits@D@std@@V?$allocator@D@2@@std@@U_TEAMSIZEDEFINITIONS@@V?$_Uhash_compare@V?$basic_string@DU?$char_traits@D@std@@V?$allocator@D@2@@std@@U?$hash@V?$basic_string@DU?$char_traits@D@std@@V?$allocator@D@2@@std@@@2@U?$equal_to@V?$basic_string@DU?$char_traits@D@std@@V?$allocator@D@2@@std@@@2@@2@V?$allocator@U?$pair@$$CBV?$basic_string@DU?$char_traits@D@std@@V?$allocator@D@2@@std@@U_TEAMSIZEDEFINITIONS@@@std@@@2@$0A@@std@@@std@@QAE?AV?$_List_iterator@V?$_List_val@U?$_List_simple_types@U?$pair@$$CBV?$basic_string@DU?$char_traits@D@std@@V?$allocator@D@2@@std@@U_TEAMSIZEDEFINITIONS@@@std@@@std@@@std@@@2@V?$_List_const_iterator@V?$_List_val@U?$_List_simple_types@U?$pair@$$CBV?$basic_string@DU?$char_traits@D@std@@V?$allocator@D@2@@std@@U_TEAMSIZEDEFINITIONS@@@std@@@std@@@std@@@2@@Z
	?erase@?$basic_string@DU?$char_traits@D@std@@V?$allocator@D@2@@std@@QAE?AV?$_String_iterator@V?$_String_val@U?$_Simple_types@D@std@@@std@@@2@V?$_String_const_iterator@V?$_String_val@U?$_Simple_types@D@std@@@std@@@2@0@Z
	?erase@?$basic_string@DU?$char_traits@D@std@@V?$allocator@D@2@@std@@QAEAAV12@I@Z
	?erase@?$basic_string@DU?$char_traits@D@std@@V?$allocator@D@2@@std@@QAEAAV12@II@Z
	?erase@?$list@U?$pair@$$CBHU_BUILDABLE_STRUCTURE@@@std@@V?$allocator@U?$pair@$$CBHU_BUILDABLE_STRUCTURE@@@std@@@2@@std@@QAE?AV?$_List_iterator@V?$_List_val@U?$_List_simple_types@U?$pair@$$CBHU_BUILDABLE_STRUCTURE@@@std@@@std@@@std@@@2@V?$_List_const_iterator@V?$_List_val@U?$_List_simple_types@U?$pair@$$CBHU_BUILDABLE_STRUCTURE@@@std@@@std@@@std@@@2@@Z
	?erase@?$list@U?$pair@$$CBHU_DROPPED_MARINE_ITEM@@@std@@V?$allocator@U?$pair@$$CBHU_DROPPED_MARINE_ITEM@@@std@@@2@@std@@QAE?AV?$_List_iterator@V?$_List_val@U?$_List_simple_types@U?$pair@$$CBHU_DROPPED_MARINE_ITEM@@@std@@@std@@@std@@@2@V?$_List_const_iterator@V?$_List_val@U?$_List_simple_types@U?$pair@$$CBHU_DROPPED_MARINE_ITEM@@@std@@@std@@@std@@@2@@Z
	?erase@?$list@U?$pair@$$CBV?$basic_string@DU?$char_traits@D@std@@V?$allocator@D@2@@std@@U_BOT_SKILL@@@std@@V?$allocator@U?$pair@$$CBV?$basic_string@DU?$char_traits@D@std@@V?$allocator@D@2@@std@@U_BOT_SKILL@@@std@@@2@@std@@QAE?AV?$_List_iterator@V?$_List_val@U?$_List_simple_types@U?$pair@$$CBV?$basic_string@DU?$char_traits@D@std@@V?$allocator@D@2@@std@@U_BOT_SKILL@@@std@@@std@@@std@@@2@V?$_List_const_iterator@V?$_List_val@U?$_List_simple_types@U?$pair@$$CBV?$basic_string@DU?$char_traits@D@std@@V?$allocator@D@2@@std@@U_BOT_SKILL@@@std@@@std@@@std@@@2@@Z
	?erase@?$list@U?$pair@$$CBV?$basic_string@DU?$char_traits@D@std@@V?$allocator@D@2@@std@@U_TEAMSIZEDEFINITIONS@@@std@@V?$allocator@U?$pair@$$CBV?$basic_string@DU?$char_traits@D@std@@V?$allocator@D@2@@std@@U_TEAMSIZEDEFINITIONS@@@std@@@2@@std@@QAE?AV?$_List_iterator@V?$_List_val@U?$_List_simple_types@U?$pair@$$CBV?$basic_string@DU?$char_traits@D@std@@V?$allocator@D@2@@std@@U_TEAMSIZEDEFINITIONS@@@std@@@std@@@std@@@2@V?$_List_const_iterator@V?$_List_val@U?$_List_simple_types@U?$pair@$$CBV?$basic_string@DU?$char_traits@D@std@@V?$allocator@D@2@@std@@U_TEAMSIZEDEFINITIONS@@@std@@@std@@@std@@@2@@Z
	?erase@?$vector@W4HiveTechStatus@@V?$allocator@W4HiveTechStatus@@@std@@@std@@QAE?AV?$_Vector_iterator@V?$_Vector_val@U?$_Simple_types@W4HiveTechStatus@@@std@@@std@@@2@V?$_Vector_const_iterator@V?$_Vector_val@U?$_Simple_types@W4HiveTechStatus@@@std@@@std@@@2@0@Z
	?fDegreesToRadians@@YAMM@Z
	?fInterpConstantTo@@YAMMMMM@Z
	?fInterpTo@@YAMMMMM@Z
	?fNearlyEqual@@YA_NMM@Z
	?fabs@@YAMM@Z
	?fastlz_compress@@YAHPBXHPAX@Z
	?fastlz_compress_level@@YAHHPBXHPAX@Z
	?fastlz_decompress@@YAHPBXHPAXH@Z
	?find@?$_Hash@V?$_Umap_traits@HU_BUILDABLE_STRUCTURE@@V?$_Uhash_compare@HU?$hash@H@std@@U?$equal_to@H@2@@std@@V?$allocator@U?$pair@$$CBHU_BUILDABLE_STRUCTURE@@@std@@@3@$0A@@std@@@std@@QAE?AV?$_List_iterator@V?$_List_val@U?$_List_simple_types@U?$pair@$$CBHU_BUILDABLE_STRUCTURE@@@std@@@std@@@std@@@2@ABH@Z
	?find@?$_Hash@V?$_Umap_traits@HU_DROPPED_MARINE_ITEM@@V?$_Uhash_compare@HU?$hash@H@std@@U?$equal_to@H@2@@std@@V?$allocator@U?$pair@$$CBHU_DROPPED_MARINE_ITEM@@@std@@@3@$0A@@std@@@std@@QAE?AV?$_List_iterator@V?$_List_val@U?$_List_simple_types@U?$pair@$$CBHU_DROPPED_MARINE_ITEM@@@std@@@std@@@std@@@2@ABH@Z
	?find@?$_Hash@V?$_Umap_traits@V?$basic_string@DU?$char_traits@D@std@@V?$allocator@D@2@@std@@U_BOT_SKILL@@V?$_Uhash_compare@V?$basic_string@DU?$char_traits@D@std@@V?$allocator@D@2@@std@@U?$hash@V?$basic_string@DU?$char_traits@D@std@@V?$allocator@D@2@@std@@@2@U?$equal_to@V?$basic_string@DU?$char_traits@D@std@@V?$allocator@D@2@@std@@@2@@2@V?$allocator@U?$pair@$$CBV?$basic_string@DU?$char_traits@D@std@@V?$allocator@D@2@@std@@U_BOT_SKILL@@@std@@@2@$0A@@std@@@std@@QAE?AV?$_List_iterator@V?$_List_val@U?$_List_simple_types@U?$pair@$$CBV?$basic_string@DU?$char_traits@D@std@@V?$allocator@D@2@@std@@U_BOT_SKILL@@@std@@@std@@@std@@@2@ABV?$basic_string@DU?$char_traits@D@std@@V?$allocator@D@2@@2@@Z
	?find@?$_Hash@V?$_Umap_traits@V?$basic_string@DU?$char_traits@D@std@@V?$allocator@D@2@@std@@U_TEAMSIZEDEFINITIONS@@V?$_Uhash_compare@V?$basic_string@DU?$char_traits@D@std@@V?$allocator@D@2@@std@@U?$hash@V?$basic_string@DU?$char_traits@D@std@@V?$allocator@D@2@@std@@@2@U?$equal_to@V?$basic_string@DU?$char_traits@D@std@@V?$allocator@D@2@@std@@@2@@2@V?$allocator@U?$pair@$$CBV?$basic_string@DU?$char_traits@D@std@@V?$allocator@D@2@@std@@U_TEAMSIZEDEFINITIONS@@@std@@@2@$0A@@std@@@std@@QAE?AV?$_List_iterator@V?$_List_val@U?$_List_simple_types@U?$pair@$$CBV?$basic_string@DU?$char_traits@D@std@@V?$allocator@D@2@@std@@U_TEAMSIZEDEFINITIONS@@@std@@@std@@@std@@@2@ABV?$basic_string@DU?$char_traits@D@std@@V?$allocator@D@2@@2@@Z
	?find@?$basic_string@DU?$char_traits@D@std@@V?$allocator@D@2@@std@@QBEIQBDI@Z
	?find@?$char_traits@D@std@@SAPBDQBDIABD@Z
	?find_first_not_of@?$basic_string@DU?$char_traits@D@std@@V?$allocator@D@2@@std@@QBEIQBDI@Z
	?fpclassify@@YAHM@Z
	?frandrange@@YAMMM@Z
	?free@LinearAllocator@@UAEXPAX@Z
	?free@dtTileCacheAlloc@@UAEXPAX@Z
	?front@?$basic_string@DU?$char_traits@D@std@@V?$allocator@D@2@@std@@QAEAADXZ
	?front@?$list@U?$pair@$$CBHU_BUILDABLE_STRUCTURE@@@std@@V?$allocator@U?$pair@$$CBHU_BUILDABLE_STRUCTURE@@@std@@@2@@std@@QAEAAU?$pair@$$CBHU_BUILDABLE_STRUCTURE@@@2@XZ
	?front@?$list@U?$pair@$$CBHU_DROPPED_MARINE_ITEM@@@std@@V?$allocator@U?$pair@$$CBHU_DROPPED_MARINE_ITEM@@@std@@@2@@std@@QAEAAU?$pair@$$CBHU_DROPPED_MARINE_ITEM@@@2@XZ
	?front@?$list@U?$pair@$$CBV?$basic_string@DU?$char_traits@D@std@@V?$allocator@D@2@@std@@U_BOT_SKILL@@@std@@V?$allocator@U?$pair@$$CBV?$basic_string@DU?$char_traits@D@std@@V?$allocator@D@2@@std@@U_BOT_SKILL@@@std@@@2@@std@@QAEAAU?$pair@$$CBV?$basic_string@DU?$char_traits@D@std@@V?$allocator@D@2@@std@@U_BOT_SKILL@@@2@XZ
	?front@?$list@U?$pair@$$CBV?$basic_string@DU?$char_traits@D@std@@V?$allocator@D@2@@std@@U_TEAMSIZEDEFINITIONS@@@std@@V?$allocator@U?$pair@$$CBV?$basic_string@DU?$char_traits@D@std@@V?$allocator@D@2@@std@@U_TEAMSIZEDEFINITIONS@@@std@@@2@@std@@QAEAAU?$pair@$$CBV?$basic_string@DU?$char_traits@D@std@@V?$allocator@D@2@@std@@U_TEAMSIZEDEFINITIONS@@@2@XZ
	?get@?$unique_ptr@V_Facet_base@std@@U?$default_delete@V_Facet_base@std@@@2@@std@@QBEPAV_Facet_base@2@XZ
	?getAreaCost@dtQueryFilter@@QBEMH@Z
	?getMeshProcess@dtTileCache@@QAEPAUdtTileCacheMeshProcess@@XZ
	?getObstacle@dtTileCache@@QBEPBUdtTileCacheObstacle@@H@Z
	?getObstacleCount@dtTileCache@@QBEHXZ
	?getTileCount@dtTileCache@@QBEHXZ
	?get_allocator@?$basic_string@DU?$char_traits@D@std@@V?$allocator@D@2@@std@@QBE?AV?$allocator@D@2@XZ
	?get_deleter@?$_Unique_ptr_base@V_Facet_base@std@@U?$default_delete@V_Facet_base@std@@@2@@std@@QAEAAU?$default_delete@V_Facet_base@std@@@2@XZ
	?imaxi@@YAHHH@Z
	?imbue@?$basic_filebuf@DU?$char_traits@D@std@@@std@@MAEXABVlocale@2@@Z
	?imini@@YAHHH@Z
	?irandrange@@YAHHH@Z
	?isFloat@@YA_NPBD@Z
	?isNumber@@YA_NPBD@Z
	?is_open@?$basic_filebuf@DU?$char_traits@D@std@@@std@@QBE_NXZ
	?is_open@?$basic_ifstream@DU?$char_traits@D@std@@@std@@QBE_NXZ
	?length@?$char_traits@D@std@@SAIQBD@Z
	?loadNavigationData@@YA_NPBD@Z
	?load_factor@?$_Hash@V?$_Umap_traits@HU_BUILDABLE_STRUCTURE@@V?$_Uhash_compare@HU?$hash@H@std@@U?$equal_to@H@2@@std@@V?$allocator@U?$pair@$$CBHU_BUILDABLE_STRUCTURE@@@std@@@3@$0A@@std@@@std@@QBEMXZ
	?load_factor@?$_Hash@V?$_Umap_traits@HU_DROPPED_MARINE_ITEM@@V?$_Uhash_compare@HU?$hash@H@std@@U?$equal_to@H@2@@std@@V?$allocator@U?$pair@$$CBHU_DROPPED_MARINE_ITEM@@@std@@@3@$0A@@std@@@std@@QBEMXZ
	?load_factor@?$_Hash@V?$_Umap_traits@V?$basic_string@DU?$char_traits@D@std@@V?$allocator@D@2@@std@@U_BOT_SKILL@@V?$_Uhash_compare@V?$basic_string@DU?$char_traits@D@std@@V?$allocator@D@2@@std@@U?$hash@V?$basic_string@DU?$char_traits@D@std@@V?$allocator@D@2@@std@@@2@U?$equal_to@V?$basic_string@DU?$char_traits@D@std@@V?$allocator@D@2@@std@@@2@@2@V?$allocator@U?$pair@$$CBV?$basic_string@DU?$char_traits@D@std@@V?$allocator@D@2@@std@@U_BOT_SKILL@@@std@@@2@$0A@@std@@@std@@QBEMXZ
	?load_factor@?$_Hash@V?$_Umap_traits@V?$basic_string@DU?$char_traits@D@std@@V?$allocator@D@2@@std@@U_TEAMSIZEDEFINITIONS@@V?$_Uhash_compare@V?$basic_string@DU?$char_traits@D@std@@V?$allocator@D@2@@std@@U?$hash@V?$basic_string@DU?$char_traits@D@std@@V?$allocator@D@2@@std@@@2@U?$equal_to@V?$basic_string@DU?$char_traits@D@std@@V?$allocator@D@2@@std@@@2@@2@V?$allocator@U?$pair@$$CBV?$basic_string@DU?$char_traits@D@std@@V?$allocator@D@2@@std@@U_TEAMSIZEDEFINITIONS@@@std@@@2@$0A@@std@@@std@@QBEMXZ
	?lower_bound@?$_Hash@V?$_Umap_traits@HU_BUILDABLE_STRUCTURE@@V?$_Uhash_compare@HU?$hash@H@std@@U?$equal_to@H@2@@std@@V?$allocator@U?$pair@$$CBHU_BUILDABLE_STRUCTURE@@@std@@@3@$0A@@std@@@std@@QAE?AV?$_List_iterator@V?$_List_val@U?$_List_simple_types@U?$pair@$$CBHU_BUILDABLE_STRUCTURE@@@std@@@std@@@std@@@2@ABH@Z
	?lower_bound@?$_Hash@V?$_Umap_traits@HU_DROPPED_MARINE_ITEM@@V?$_Uhash_compare@HU?$hash@H@std@@U?$equal_to@H@2@@std@@V?$allocator@U?$pair@$$CBHU_DROPPED_MARINE_ITEM@@@std@@@3@$0A@@std@@@std@@QAE?AV?$_List_iterator@V?$_List_val@U?$_List_simple_types@U?$pair@$$CBHU_DROPPED_MARINE_ITEM@@@std@@@std@@@std@@@2@ABH@Z
	?lower_bound@?$_Hash@V?$_Umap_traits@V?$basic_string@DU?$char_traits@D@std@@V?$allocator@D@2@@std@@U_BOT_SKILL@@V?$_Uhash_compare@V?$basic_string@DU?$char_traits@D@std@@V?$allocator@D@2@@std@@U?$hash@V?$basic_string@DU?$char_traits@D@std@@V?$allocator@D@2@@std@@@2@U?$equal_to@V?$basic_string@DU?$char_traits@D@std@@V?$allocator@D@2@@std@@@2@@2@V?$allocator@U?$pair@$$CBV?$basic_string@DU?$char_traits@D@std@@V?$allocator@D@2@@std@@U_BOT_SKILL@@@std@@@2@$0A@@std@@@std@@QAE?AV?$_List_iterator@V?$_List_val@U?$_List_simple_types@U?$pair@$$CBV?$basic_string@DU?$char_traits@D@std@@V?$allocator@D@2@@std@@U_BOT_SKILL@@@std@@@std@@@std@@@2@ABV?$basic_string@DU?$char_traits@D@std@@V?$allocator@D@2@@2@@Z
	?lower_bound@?$_Hash@V?$_Umap_traits@V?$basic_string@DU?$char_traits@D@std@@V?$allocator@D@2@@std@@U_TEAMSIZEDEFINITIONS@@V?$_Uhash_compare@V?$basic_string@DU?$char_traits@D@std@@V?$allocator@D@2@@std@@U?$hash@V?$basic_string@DU?$char_traits@D@std@@V?$allocator@D@2@@std@@@2@U?$equal_to@V?$basic_string@DU?$char_traits@D@std@@V?$allocator@D@2@@std@@@2@@2@V?$allocator@U?$pair@$$CBV?$basic_string@DU?$char_traits@D@std@@V?$allocator@D@2@@std@@U_TEAMSIZEDEFINITIONS@@@std@@@2@$0A@@std@@@std@@QAE?AV?$_List_iterator@V?$_List_val@U?$_List_simple_types@U?$pair@$$CBV?$basic_string@DU?$char_traits@D@std@@V?$allocator@D@2@@std@@U_TEAMSIZEDEFINITIONS@@@std@@@std@@@std@@@2@ABV?$basic_string@DU?$char_traits@D@std@@V?$allocator@D@2@@2@@Z
	?max@?$numeric_limits@H@std@@SAHXZ
	?maxCompressedSize@FastLZCompressor@@UAEHH@Z
	?max_load_factor@?$_Hash@V?$_Umap_traits@HU_BUILDABLE_STRUCTURE@@V?$_Uhash_compare@HU?$hash@H@std@@U?$equal_to@H@2@@std@@V?$allocator@U?$pair@$$CBHU_BUILDABLE_STRUCTURE@@@std@@@3@$0A@@std@@@std@@QBEMXZ
	?max_load_factor@?$_Hash@V?$_Umap_traits@HU_DROPPED_MARINE_ITEM@@V?$_Uhash_compare@HU?$hash@H@std@@U?$equal_to@H@2@@std@@V?$allocator@U?$pair@$$CBHU_DROPPED_MARINE_ITEM@@@std@@@3@$0A@@std@@@std@@QBEMXZ
	?max_load_factor@?$_Hash@V?$_Umap_traits@V?$basic_string@DU?$char_traits@D@std@@V?$allocator@D@2@@std@@U_BOT_SKILL@@V?$_Uhash_compare@V?$basic_string@DU?$char_traits@D@std@@V?$allocator@D@2@@std@@U?$hash@V?$basic_string@DU?$char_traits@D@std@@V?$allocator@D@2@@std@@@2@U?$equal_to@V?$basic_string@DU?$char_traits@D@std@@V?$allocator@D@2@@std@@@2@@2@V?$allocator@U?$pair@$$CBV?$basic_string@DU?$char_traits@D@std@@V?$allocator@D@2@@std@@U_BOT_SKILL@@@std@@@2@$0A@@std@@@std@@QBEMXZ
	?max_load_factor@?$_Hash@V?$_Umap_traits@V?$basic_string@DU?$char_traits@D@std@@V?$allocator@D@2@@std@@U_TEAMSIZEDEFINITIONS@@V?$_Uhash_compare@V?$basic_string@DU?$char_traits@D@std@@V?$allocator@D@2@@std@@U?$hash@V?$basic_string@DU?$char_traits@D@std@@V?$allocator@D@2@@std@@@2@U?$equal_to@V?$basic_string@DU?$char_traits@D@std@@V?$allocator@D@2@@std@@@2@@2@V?$allocator@U?$pair@$$CBV?$basic_string@DU?$char_traits@D@std@@V?$allocator@D@2@@std@@U_TEAMSIZEDEFINITIONS@@@std@@@2@$0A@@std@@@std@@QBEMXZ
	?max_size@?$_Default_allocator_traits@V?$allocator@D@std@@@std@@SAIABV?$allocator@D@2@@Z
	?max_size@?$_Default_allocator_traits@V?$allocator@U?$_List_node@U?$pair@$$CBHU_BUILDABLE_STRUCTURE@@@std@@PAX@std@@@std@@@std@@SAIABV?$allocator@U?$_List_node@U?$pair@$$CBHU_BUILDABLE_STRUCTURE@@@std@@PAX@std@@@2@@Z
	?max_size@?$_Default_allocator_traits@V?$allocator@U?$_List_node@U?$pair@$$CBHU_DROPPED_MARINE_ITEM@@@std@@PAX@std@@@std@@@std@@SAIABV?$allocator@U?$_List_node@U?$pair@$$CBHU_DROPPED_MARINE_ITEM@@@std@@PAX@std@@@2@@Z
	?max_size@?$_Default_allocator_traits@V?$allocator@U?$_List_node@U?$pair@$$CBV?$basic_string@DU?$char_traits@D@std@@V?$allocator@D@2@@std@@U_BOT_SKILL@@@std@@PAX@std@@@std@@@std@@SAIABV?$allocator@U?$_List_node@U?$pair@$$CBV?$basic_string@DU?$char_traits@D@std@@V?$allocator@D@2@@std@@U_BOT_SKILL@@@std@@PAX@std@@@2@@Z
	?max_size@?$_Default_allocator_traits@V?$allocator@U?$_List_node@U?$pair@$$CBV?$basic_string@DU?$char_traits@D@std@@V?$allocator@D@2@@std@@U_TEAMSIZEDEFINITIONS@@@std@@PAX@std@@@std@@@std@@SAIABV?$allocator@U?$_List_node@U?$pair@$$CBV?$basic_string@DU?$char_traits@D@std@@V?$allocator@D@2@@std@@U_TEAMSIZEDEFINITIONS@@@std@@PAX@std@@@2@@Z
	?max_size@?$_Default_allocator_traits@V?$allocator@V?$_List_unchecked_iterator@V?$_List_val@U?$_List_simple_types@U?$pair@$$CBHU_BUILDABLE_STRUCTURE@@@std@@@std@@@std@@@std@@@std@@@std@@SAIABV?$allocator@V?$_List_unchecked_iterator@V?$_List_val@U?$_List_simple_types@U?$pair@$$CBHU_BUILDABLE_STRUCTURE@@@std@@@std@@@std@@@std@@@2@@Z
	?max_size@?$_Default_allocator_traits@V?$allocator@V?$_List_unchecked_iterator@V?$_List_val@U?$_List_simple_types@U?$pair@$$CBHU_DROPPED_MARINE_ITEM@@@std@@@std@@@std@@@std@@@std@@@std@@SAIABV?$allocator@V?$_List_unchecked_iterator@V?$_List_val@U?$_List_simple_types@U?$pair@$$CBHU_DROPPED_MARINE_ITEM@@@std@@@std@@@std@@@std@@@2@@Z
	?max_size@?$_Default_allocator_traits@V?$allocator@V?$_List_unchecked_iterator@V?$_List_val@U?$_List_simple_types@U?$pair@$$CBV?$basic_string@DU?$char_traits@D@std@@V?$allocator@D@2@@std@@U_BOT_SKILL@@@std@@@std@@@std@@@std@@@std@@@std@@SAIABV?$allocator@V?$_List_unchecked_iterator@V?$_List_val@U?$_List_simple_types@U?$pair@$$CBV?$basic_string@DU?$char_traits@D@std@@V?$allocator@D@2@@std@@U_BOT_SKILL@@@std@@@std@@@std@@@std@@@2@@Z
	?max_size@?$_Default_allocator_traits@V?$allocator@V?$_List_unchecked_iterator@V?$_List_val@U?$_List_simple_types@U?$pair@$$CBV?$basic_string@DU?$char_traits@D@std@@V?$allocator@D@2@@std@@U_TEAMSIZEDEFINITIONS@@@std@@@std@@@std@@@std@@@std@@@std@@SAIABV?$allocator@V?$_List_unchecked_iterator@V?$_List_val@U?$_List_simple_types@U?$pair@$$CBV?$basic_string@DU?$char_traits@D@std@@V?$allocator@D@2@@std@@U_TEAMSIZEDEFINITIONS@@@std@@@std@@@std@@@std@@@2@@Z
	?max_size@?$_Default_allocator_traits@V?$allocator@W4HiveTechStatus@@@std@@@std@@SAIABV?$allocator@W4HiveTechStatus@@@2@@Z
	?max_size@?$basic_string@DU?$char_traits@D@std@@V?$allocator@D@2@@std@@QBEIXZ
	?max_size@?$list@U?$pair@$$CBHU_BUILDABLE_STRUCTURE@@@std@@V?$allocator@U?$pair@$$CBHU_BUILDABLE_STRUCTURE@@@std@@@2@@std@@QBEIXZ
	?max_size@?$list@U?$pair@$$CBHU_DROPPED_MARINE_ITEM@@@std@@V?$allocator@U?$pair@$$CBHU_DROPPED_MARINE_ITEM@@@std@@@2@@std@@QBEIXZ
	?max_size@?$list@U?$pair@$$CBV?$basic_string@DU?$char_traits@D@std@@V?$allocator@D@2@@std@@U_BOT_SKILL@@@std@@V?$allocator@U?$pair@$$CBV?$basic_string@DU?$char_traits@D@std@@V?$allocator@D@2@@std@@U_BOT_SKILL@@@std@@@2@@std@@QBEIXZ
	?max_size@?$list@U?$pair@$$CBV?$basic_string@DU?$char_traits@D@std@@V?$allocator@D@2@@std@@U_TEAMSIZEDEFINITIONS@@@std@@V?$allocator@U?$pair@$$CBV?$basic_string@DU?$char_traits@D@std@@V?$allocator@D@2@@std@@U_TEAMSIZEDEFINITIONS@@@std@@@2@@std@@QBEIXZ
	?max_size@?$vector@V?$_List_unchecked_iterator@V?$_List_val@U?$_List_simple_types@U?$pair@$$CBHU_BUILDABLE_STRUCTURE@@@std@@@std@@@std@@@std@@V?$allocator@V?$_List_unchecked_iterator@V?$_List_val@U?$_List_simple_types@U?$pair@$$CBHU_BUILDABLE_STRUCTURE@@@std@@@std@@@std@@@std@@@2@@std@@QBEIXZ
	?max_size@?$vector@V?$_List_unchecked_iterator@V?$_List_val@U?$_List_simple_types@U?$pair@$$CBHU_DROPPED_MARINE_ITEM@@@std@@@std@@@std@@@std@@V?$allocator@V?$_List_unchecked_iterator@V?$_List_val@U?$_List_simple_types@U?$pair@$$CBHU_DROPPED_MARINE_ITEM@@@std@@@std@@@std@@@std@@@2@@std@@QBEIXZ
	?max_size@?$vector@V?$_List_unchecked_iterator@V?$_List_val@U?$_List_simple_types@U?$pair@$$CBV?$basic_string@DU?$char_traits@D@std@@V?$allocator@D@2@@std@@U_BOT_SKILL@@@std@@@std@@@std@@@std@@V?$allocator@V?$_List_unchecked_iterator@V?$_List_val@U?$_List_simple_types@U?$pair@$$CBV?$basic_string@DU?$char_traits@D@std@@V?$allocator@D@2@@std@@U_BOT_SKILL@@@std@@@std@@@std@@@std@@@2@@std@@QBEIXZ
	?max_size@?$vector@V?$_List_unchecked_iterator@V?$_List_val@U?$_List_simple_types@U?$pair@$$CBV?$basic_string@DU?$char_traits@D@std@@V?$allocator@D@2@@std@@U_TEAMSIZEDEFINITIONS@@@std@@@std@@@std@@@std@@V?$allocator@V?$_List_unchecked_iterator@V?$_List_val@U?$_List_simple_types@U?$pair@$$CBV?$basic_string@DU?$char_traits@D@std@@V?$allocator@D@2@@std@@U_TEAMSIZEDEFINITIONS@@@std@@@std@@@std@@@std@@@2@@std@@QBEIXZ
	?max_size@?$vector@W4HiveTechStatus@@V?$allocator@W4HiveTechStatus@@@std@@@std@@QBEIXZ
	?move@?$char_traits@D@std@@SAPADQADQBDI@Z
	?noskipws@std@@YAAAVios_base@1@AAV21@@Z
	?not_eof@?$char_traits@D@std@@SAHABH@Z
	?overflow@?$basic_filebuf@DU?$char_traits@D@std@@@std@@MAEHH@Z
	?overflow@?$basic_stringbuf@DU?$char_traits@D@std@@V?$allocator@D@2@@std@@MAEHH@Z
	?pbackfail@?$basic_filebuf@DU?$char_traits@D@std@@@std@@MAEHH@Z
	?pbackfail@?$basic_stringbuf@DU?$char_traits@D@std@@V?$allocator@D@2@@std@@MAEHH@Z
	?pfnChangeLevel@@YAXPAD0@Z
	?pfnClientCommand@@YAXPAUedict_s@@PADZZ
	?pfnClientPrintf@@YAXPAUedict_s@@W4PRINT_TYPE@@PBD@Z
	?pfnCmd_Argc@@YAHXZ
	?pfnCmd_Args@@YAPBDXZ
	?pfnCmd_Argv@@YAPBDH@Z
	?pfnEmitSound@@YAXPAUedict_s@@HPBDMMHH@Z
	?pfnFindEntityByString@@YAPAUedict_s@@PAU1@PBD1@Z
	?pfnGetPlayerAuthId@@YAPBDPAUedict_s@@@Z
	?pfnGetPlayerUserId@@YAHPAUedict_s@@@Z
	?pfnMessageBegin@@YAXHHPBMPAUedict_s@@@Z
	?pfnMessageEnd@@YAXXZ
	?pfnSetClientMaxspeed@@YAXPBUedict_s@@M@Z
	?pfnWriteAngle@@YAXM@Z
	?pfnWriteByte@@YAXH@Z
	?pfnWriteChar@@YAXH@Z
	?pfnWriteCoord@@YAXM@Z
	?pfnWriteEntity@@YAXH@Z
	?pfnWriteLong@@YAXH@Z
	?pfnWriteShort@@YAXH@Z
	?pfnWriteString@@YAXPBD@Z
	?pointer_to@?$pointer_traits@PAD@std@@SAPADAAD@Z
	?pointer_to@?$pointer_traits@PAU?$pair@$$CBHU_BUILDABLE_STRUCTURE@@@std@@@std@@SAPAU?$pair@$$CBHU_BUILDABLE_STRUCTURE@@@2@AAU32@@Z
	?pointer_to@?$pointer_traits@PAU?$pair@$$CBHU_DROPPED_MARINE_ITEM@@@std@@@std@@SAPAU?$pair@$$CBHU_DROPPED_MARINE_ITEM@@@2@AAU32@@Z
	?pointer_to@?$pointer_traits@PAU?$pair@$$CBV?$basic_string@DU?$char_traits@D@std@@V?$allocator@D@2@@std@@U_BOT_SKILL@@@std@@@std@@SAPAU?$pair@$$CBV?$basic_string@DU?$char_traits@D@std@@V?$allocator@D@2@@std@@U_BOT_SKILL@@@2@AAU32@@Z
	?pointer_to@?$pointer_traits@PAU?$pair@$$CBV?$basic_string@DU?$char_traits@D@std@@V?$allocator@D@2@@std@@U_TEAMSIZEDEFINITIONS@@@std@@@std@@SAPAU?$pair@$$CBV?$basic_string@DU?$char_traits@D@std@@V?$allocator@D@2@@std@@U_TEAMSIZEDEFINITIONS@@@2@AAU32@@Z
	?pointer_to@?$pointer_traits@PBU?$pair@$$CBV?$basic_string@DU?$char_traits@D@std@@V?$allocator@D@2@@std@@U_BOT_SKILL@@@std@@@std@@SAPBU?$pair@$$CBV?$basic_string@DU?$char_traits@D@std@@V?$allocator@D@2@@std@@U_BOT_SKILL@@@2@ABU32@@Z
	?pointer_to@?$pointer_traits@PBU?$pair@$$CBV?$basic_string@DU?$char_traits@D@std@@V?$allocator@D@2@@std@@U_TEAMSIZEDEFINITIONS@@@std@@@std@@SAPBU?$pair@$$CBV?$basic_string@DU?$char_traits@D@std@@V?$allocator@D@2@@std@@U_TEAMSIZEDEFINITIONS@@@2@ABU32@@Z
	?process@MeshProcess@@UAEXPAUdtNavMeshCreateParams@@PAEPAG@Z
	?push_back@?$basic_string@DU?$char_traits@D@std@@V?$allocator@D@2@@std@@QAEXD@Z
	?randbool@@YA_NXZ
	?random_unit_vector_within_cone@@YA?AVVector@@V1@N@Z
	?release@?$unique_ptr@V_Facet_base@std@@U?$default_delete@V_Facet_base@std@@@2@@std@@QAEPAV_Facet_base@2@XZ
	?reserve@?$vector@V?$_List_unchecked_iterator@V?$_List_val@U?$_List_simple_types@U?$pair@$$CBHU_BUILDABLE_STRUCTURE@@@std@@@std@@@std@@@std@@V?$allocator@V?$_List_unchecked_iterator@V?$_List_val@U?$_List_simple_types@U?$pair@$$CBHU_BUILDABLE_STRUCTURE@@@std@@@std@@@std@@@std@@@2@@std@@QAEXI@Z
	?reserve@?$vector@V?$_List_unchecked_iterator@V?$_List_val@U?$_List_simple_types@U?$pair@$$CBHU_DROPPED_MARINE_ITEM@@@std@@@std@@@std@@@std@@V?$allocator@V?$_List_unchecked_iterator@V?$_List_val@U?$_List_simple_types@U?$pair@$$CBHU_DROPPED_MARINE_ITEM@@@std@@@std@@@std@@@std@@@2@@std@@QAEXI@Z
	?reserve@?$vector@V?$_List_unchecked_iterator@V?$_List_val@U?$_List_simple_types@U?$pair@$$CBV?$basic_string@DU?$char_traits@D@std@@V?$allocator@D@2@@std@@U_BOT_SKILL@@@std@@@std@@@std@@@std@@V?$allocator@V?$_List_unchecked_iterator@V?$_List_val@U?$_List_simple_types@U?$pair@$$CBV?$basic_string@DU?$char_traits@D@std@@V?$allocator@D@2@@std@@U_BOT_SKILL@@@std@@@std@@@std@@@std@@@2@@std@@QAEXI@Z
	?reserve@?$vector@V?$_List_unchecked_iterator@V?$_List_val@U?$_List_simple_types@U?$pair@$$CBV?$basic_string@DU?$char_traits@D@std@@V?$allocator@D@2@@std@@U_TEAMSIZEDEFINITIONS@@@std@@@std@@@std@@@std@@V?$allocator@V?$_List_unchecked_iterator@V?$_List_val@U?$_List_simple_types@U?$pair@$$CBV?$basic_string@DU?$char_traits@D@std@@V?$allocator@D@2@@std@@U_TEAMSIZEDEFINITIONS@@@std@@@std@@@std@@@std@@@2@@std@@QAEXI@Z
	?reset@LinearAllocator@@UAEXXZ
	?reset@dtTileCacheAlloc@@UAEXXZ
	?resize@LinearAllocator@@QAEXI@Z
	?seekoff@?$basic_filebuf@DU?$char_traits@D@std@@@std@@MAE?AV?$fpos@U_Mbstatet@@@2@_JHH@Z
	?seekoff@?$basic_stringbuf@DU?$char_traits@D@std@@V?$allocator@D@2@@std@@MAE?AV?$fpos@U_Mbstatet@@@2@_JHH@Z
	?seekpos@?$basic_filebuf@DU?$char_traits@D@std@@@std@@MAE?AV?$fpos@U_Mbstatet@@@2@V32@H@Z
	?seekpos@?$basic_stringbuf@DU?$char_traits@D@std@@V?$allocator@D@2@@std@@MAE?AV?$fpos@U_Mbstatet@@@2@V32@H@Z
	?select_on_container_copy_construction@?$_Default_allocator_traits@V?$allocator@D@std@@@std@@SA?AV?$allocator@D@2@ABV32@@Z
	?setAreaCost@dtQueryFilter@@QAEXHM@Z
	?setExcludeFlags@dtQueryFilter@@QAEXG@Z
	?setIncludeFlags@dtQueryFilter@@QAEXG@Z
	?setbuf@?$basic_filebuf@DU?$char_traits@D@std@@@std@@MAEPAV?$basic_streambuf@DU?$char_traits@D@std@@@2@PAD_J@Z
	?signf@@YAMM@Z
	?sin@@YAMM@Z
	?size@?$_Hash@V?$_Umap_traits@HU_BUILDABLE_STRUCTURE@@V?$_Uhash_compare@HU?$hash@H@std@@U?$equal_to@H@2@@std@@V?$allocator@U?$pair@$$CBHU_BUILDABLE_STRUCTURE@@@std@@@3@$0A@@std@@@std@@QBEIXZ
	?size@?$_Hash@V?$_Umap_traits@HU_DROPPED_MARINE_ITEM@@V?$_Uhash_compare@HU?$hash@H@std@@U?$equal_to@H@2@@std@@V?$allocator@U?$pair@$$CBHU_DROPPED_MARINE_ITEM@@@std@@@3@$0A@@std@@@std@@QBEIXZ
	?size@?$_Hash@V?$_Umap_traits@V?$basic_string@DU?$char_traits@D@std@@V?$allocator@D@2@@std@@U_BOT_SKILL@@V?$_Uhash_compare@V?$basic_string@DU?$char_traits@D@std@@V?$allocator@D@2@@std@@U?$hash@V?$basic_string@DU?$char_traits@D@std@@V?$allocator@D@2@@std@@@2@U?$equal_to@V?$basic_string@DU?$char_traits@D@std@@V?$allocator@D@2@@std@@@2@@2@V?$allocator@U?$pair@$$CBV?$basic_string@DU?$char_traits@D@std@@V?$allocator@D@2@@std@@U_BOT_SKILL@@@std@@@2@$0A@@std@@@std@@QBEIXZ
	?size@?$_Hash@V?$_Umap_traits@V?$basic_string@DU?$char_traits@D@std@@V?$allocator@D@2@@std@@U_TEAMSIZEDEFINITIONS@@V?$_Uhash_compare@V?$basic_string@DU?$char_traits@D@std@@V?$allocator@D@2@@std@@U?$hash@V?$basic_string@DU?$char_traits@D@std@@V?$allocator@D@2@@std@@@2@U?$equal_to@V?$basic_string@DU?$char_traits@D@std@@V?$allocator@D@2@@std@@@2@@2@V?$allocator@U?$pair@$$CBV?$basic_string@DU?$char_traits@D@std@@V?$allocator@D@2@@std@@U_TEAMSIZEDEFINITIONS@@@std@@@2@$0A@@std@@@std@@QBEIXZ
	?size@?$basic_string@DU?$char_traits@D@std@@V?$allocator@D@2@@std@@QBEIXZ
	?size@?$list@U?$pair@$$CBHU_BUILDABLE_STRUCTURE@@@std@@V?$allocator@U?$pair@$$CBHU_BUILDABLE_STRUCTURE@@@std@@@2@@std@@QBEIXZ
	?size@?$list@U?$pair@$$CBHU_DROPPED_MARINE_ITEM@@@std@@V?$allocator@U?$pair@$$CBHU_DROPPED_MARINE_ITEM@@@std@@@2@@std@@QBEIXZ
	?size@?$list@U?$pair@$$CBV?$basic_string@DU?$char_traits@D@std@@V?$allocator@D@2@@std@@U_BOT_SKILL@@@std@@V?$allocator@U?$pair@$$CBV?$basic_string@DU?$char_traits@D@std@@V?$allocator@D@2@@std@@U_BOT_SKILL@@@std@@@2@@std@@QBEIXZ
	?size@?$list@U?$pair@$$CBV?$basic_string@DU?$char_traits@D@std@@V?$allocator@D@2@@std@@U_TEAMSIZEDEFINITIONS@@@std@@V?$allocator@U?$pair@$$CBV?$basic_string@DU?$char_traits@D@std@@V?$allocator@D@2@@std@@U_TEAMSIZEDEFINITIONS@@@std@@@2@@std@@QBEIXZ
	?size@?$vector@V?$_List_unchecked_iterator@V?$_List_val@U?$_List_simple_types@U?$pair@$$CBHU_BUILDABLE_STRUCTURE@@@std@@@std@@@std@@@std@@V?$allocator@V?$_List_unchecked_iterator@V?$_List_val@U?$_List_simple_types@U?$pair@$$CBHU_BUILDABLE_STRUCTURE@@@std@@@std@@@std@@@std@@@2@@std@@QBEIXZ
	?size@?$vector@V?$_List_unchecked_iterator@V?$_List_val@U?$_List_simple_types@U?$pair@$$CBHU_DROPPED_MARINE_ITEM@@@std@@@std@@@std@@@std@@V?$allocator@V?$_List_unchecked_iterator@V?$_List_val@U?$_List_simple_types@U?$pair@$$CBHU_DROPPED_MARINE_ITEM@@@std@@@std@@@std@@@std@@@2@@std@@QBEIXZ
	?size@?$vector@V?$_List_unchecked_iterator@V?$_List_val@U?$_List_simple_types@U?$pair@$$CBV?$basic_string@DU?$char_traits@D@std@@V?$allocator@D@2@@std@@U_BOT_SKILL@@@std@@@std@@@std@@@std@@V?$allocator@V?$_List_unchecked_iterator@V?$_List_val@U?$_List_simple_types@U?$pair@$$CBV?$basic_string@DU?$char_traits@D@std@@V?$allocator@D@2@@std@@U_BOT_SKILL@@@std@@@std@@@std@@@std@@@2@@std@@QBEIXZ
	?size@?$vector@V?$_List_unchecked_iterator@V?$_List_val@U?$_List_simple_types@U?$pair@$$CBV?$basic_string@DU?$char_traits@D@std@@V?$allocator@D@2@@std@@U_TEAMSIZEDEFINITIONS@@@std@@@std@@@std@@@std@@V?$allocator@V?$_List_unchecked_iterator@V?$_List_val@U?$_List_simple_types@U?$pair@$$CBV?$basic_string@DU?$char_traits@D@std@@V?$allocator@D@2@@std@@U_TEAMSIZEDEFINITIONS@@@std@@@std@@@std@@@std@@@2@@std@@QBEIXZ
	?size@?$vector@W4HiveTechStatus@@V?$allocator@W4HiveTechStatus@@@std@@@std@@QBEIXZ
	?sqrf@@YAMM@Z
	?sqrt@@YAMM@Z
	?state@?$fpos@U_Mbstatet@@@std@@QBE?AU_Mbstatet@@XZ
	?stof@std@@YAMABV?$basic_string@DU?$char_traits@D@std@@V?$allocator@D@2@@1@PAI@Z
	?strchr@@YAPADQADH@Z
	?substr@?$basic_string@DU?$char_traits@D@std@@V?$allocator@D@2@@std@@QBE?AV12@II@Z
	?sync@?$basic_filebuf@DU?$char_traits@D@std@@@std@@MAEHXZ
	?tan@@YAMM@Z
	?to_char_type@?$char_traits@D@std@@SADABH@Z
	?to_int_type@?$char_traits@D@std@@SAHABD@Z
	?uflow@?$basic_filebuf@DU?$char_traits@D@std@@@std@@MAEHXZ
	?underflow@?$basic_filebuf@DU?$char_traits@D@std@@@std@@MAEHXZ
	?underflow@?$basic_stringbuf@DU?$char_traits@D@std@@V?$allocator@D@2@@std@@MAEHXZ
	?vClosestPointOnInfiniteLine2D@@YA?AVVector@@V1@00@Z
	?vClosestPointOnInfiniteLine3D@@YA?AVVector@@V1@00@Z
	?vClosestPointOnLine2D@@YA?AVVector@@V1@00@Z
	?vClosestPointOnLine@@YA?AVVector@@V1@00@Z
	?vDist2D@@YAMVVector@@0@Z
	?vDist2DSq@@YAMVVector@@0@Z
	?vDist3D@@YAMVVector@@0@Z
	?vDist3DSq@@YAMVVector@@0@Z
	?vDistanceFromLine2D@@YAMVVector@@00@Z
	?vDistanceFromLine2DSq@@YAMVVector@@00@Z
	?vDistanceFromLine3D@@YAMVVector@@00@Z
	?vEquals2D@@YA_NVVector@@0@Z
	?vEquals2D@@YA_NVVector@@0M@Z
	?vEquals@@YA_NVVector@@0@Z
	?vEquals@@YA_NVVector@@0M@Z
	?vPointOnLine@@YAHVVector@@00@Z
	?vSize2D@@YAMVVector@@@Z
	?vSize2DSq@@YAMVVector@@@Z
	?vSize3D@@YAMVVector@@@Z
	?vSize3DSq@@YAMVVector@@@Z
	?what@exception@std@@UBEPBDXZ
	?xsgetn@?$basic_filebuf@DU?$char_traits@D@std@@@std@@MAE_JPAD_J@Z
	?xsputn@?$basic_filebuf@DU?$char_traits@D@std@@@std@@MAE_JPBD_J@Z
	GetEngineFunctions
	GetEntityAPI2
	GiveFnptrsToDll
	Meta_Attach
	Meta_Detach
	Meta_Query
	__local_stdio_printf_options
	_vfprintf_l
	_vsnprintf
	_vsnprintf_l
	_vsprintf_l
	atanf
	ceilf
	cosf
	fabsf
	floorf
	fprintf
	sinf
	sprintf
	sqrtf
	tanf
